	.file	"array.c"
	.text
.Ltext0:
	.file 0 "/home/unazed/Programming/c/ucc-0.2.0" "src/array.c"
	.section	.rodata
	.align 32
.LC0:
	.string	"self->length == self->capacity"
	.zero	33
	.align 32
.LC1:
	.string	"src/array.c"
	.zero	52
	.align 32
.LC2:
	.string	"\033[1;37m%s:%u\033[0m: \033[1;31merror: \033[0m\033[1;37mAssertion failed: \033[0m%s\n"
	.zero	59
	.align 32
.LC3:
	.string	"\033[1;37m%s:%u\033[0m: \033[1;31merror: \033[0mExpected array length to be at capacity\n"
	.zero	51
	.align 32
.LC4:
	.string	"\033[1;37m%s:%u\033[0m: \033[1;36mminutiae: \033[0mresized array %p from %zu bytes to %zu bytes\n"
	.zero	43
	.text
	.globl	array_impl_resize
	.type	array_impl_resize, @function
array_impl_resize:
.LASANPC53:
.LVL0:
.LFB53:
	.file 1 "src/array.c"
	.loc 1 25 1 view -0
	.cfi_startproc
	.loc 1 25 1 is_stmt 0 view .LVU1
	endbr64
	pushq	%rbp
	.cfi_def_cfa_offset 16
	.cfi_offset 6, -16
	movq	%rsp, %rbp
	.cfi_def_cfa_register 6
	pushq	%r15
	pushq	%r14
	pushq	%r13
	pushq	%r12
	pushq	%rbx
	subq	$8, %rsp
	.cfi_offset 15, -24
	.cfi_offset 14, -32
	.cfi_offset 13, -40
	.cfi_offset 12, -48
	.cfi_offset 3, -56
1:	call	*mcount@GOTPCREL(%rip)
	movq	%rdi, %rbx
	.loc 1 26 3 is_stmt 1 view .LVU2
	.loc 1 26 13 is_stmt 0 view .LVU3
	testq	%rdi, %rdi
	je	.L2
	testb	$7, %dil
	jne	.L2
.LVL1:
.L3:
	.loc 1 26 13 view .LVU4
	leaq	8(%rbx), %rdx
	cmpq	$-8, %rbx
	jnb	.L35
.L4:
	leaq	8(%rbx), %rdi
	movq	%rdi, %rax
	shrq	$3, %rax
	cmpb	$0, 2147450880(%rax)
	jne	.L36
	movq	8(%rbx), %r13
	.loc 1 26 29 view .LVU5
	testq	%rbx, %rbx
	je	.L6
	testb	$7, %bl
	jne	.L6
.L7:
	leaq	16(%rbx), %rdx
	cmpq	$-16, %rbx
	jnb	.L37
.L8:
	leaq	16(%rbx), %rdi
	movq	%rdi, %rax
	shrq	$3, %rax
	cmpb	$0, 2147450880(%rax)
	jne	.L38
	movq	16(%rbx), %r12
	.loc 1 26 6 view .LVU6
	cmpq	%r12, %r13
	jne	.L39
	.loc 1 26 6 is_stmt 1 discriminator 2 view .LVU7
	.loc 1 26 9 discriminator 2 view .LVU8
	.loc 1 27 3 view .LVU9
	.loc 1 27 69 is_stmt 0 view .LVU10
	testq	%rbx, %rbx
	je	.L15
	testb	$7, %bl
	jne	.L15
.L16:
	.loc 1 27 16 view .LVU11
	salq	$4, %r12
	.loc 1 27 51 view .LVU12
	testq	%rbx, %rbx
	je	.L17
	testb	$7, %bl
	jne	.L17
.L18:
	movq	%rbx, %rax
	shrq	$3, %rax
	cmpb	$0, 2147450880(%rax)
	jne	.L40
	movq	(%rbx), %rsi
	.loc 1 27 16 view .LVU13
	movq	%r12, %rdx
	leaq	__func__.3(%rip), %rdi
	call	__chk_realloc_impl@PLT
.LVL2:
	movq	%rax, %r12
	.loc 1 27 14 discriminator 1 view .LVU14
	testq	%rbx, %rbx
	je	.L20
	testb	$7, %bl
	jne	.L20
.L21:
	movq	%rbx, %rax
	shrq	$3, %rax
	cmpb	$0, 2147450880(%rax)
	jne	.L41
	movq	%r12, (%rbx)
	.loc 1 28 3 is_stmt 1 view .LVU15
	.loc 1 28 232 is_stmt 0 view .LVU16
	testq	%rbx, %rbx
	je	.L23
	testb	$7, %bl
	jne	.L23
.L24:
	leaq	16(%rbx), %rdi
	movq	%rdi, %rax
	shrq	$3, %rax
	cmpb	$0, 2147450880(%rax)
	jne	.L42
	movq	16(%rbx), %r13
	.loc 1 28 3 view .LVU17
	movq	%r13, %r14
	salq	$4, %r14
	.loc 1 28 193 view .LVU18
	testq	%rbx, %rbx
	je	.L26
	testb	$7, %bl
	jne	.L26
.L27:
	.loc 1 28 3 view .LVU19
	salq	$3, %r13
	.loc 1 28 154 view .LVU20
	movl	%ebx, %r15d
	.loc 1 28 3 view .LVU21
	leaq	stdout(%rip), %rdi
	movq	%rdi, %rax
	shrq	$3, %rax
	cmpb	$0, 2147450880(%rax)
	jne	.L43
	movq	stdout(%rip), %r12
	testq	%r12, %r12
	je	.L44
.L29:
.LVL3:
.LBB46:
.LBI46:
	.file 2 "/usr/include/bits/stdio2.h"
	.loc 2 77 1 is_stmt 1 view .LVU22
.LBB47:
	.loc 2 79 3 view .LVU23
	.loc 2 79 10 is_stmt 0 view .LVU24
	pushq	%r14
	pushq	%r13
	movq	%r15, %r9
	movl	$28, %r8d
	leaq	.LC1(%rip), %rcx
	leaq	.LC4(%rip), %rdx
	movl	$2, %esi
	movq	%r12, %rdi
	movl	$0, %eax
	call	__fprintf_chk@PLT
.LVL4:
	.loc 2 79 10 view .LVU25
.LBE47:
.LBE46:
	.loc 1 30 3 is_stmt 1 view .LVU26
	.loc 1 30 7 is_stmt 0 view .LVU27
	addq	$16, %rsp
	testq	%rbx, %rbx
	je	.L30
	testb	$7, %bl
	jne	.L30
.L31:
	leaq	16(%rbx), %rdi
	movq	%rdi, %rax
	shrq	$3, %rax
	cmpb	$0, 2147450880(%rax)
	jne	.L45
	.loc 1 30 18 view .LVU28
	movq	16(%rbx), %rax
	leaq	(%rax,%rax), %r12
	testq	%rbx, %rbx
	je	.L33
	testb	$7, %bl
	jne	.L33
.L34:
	movq	%r12, 16(%rbx)
	.loc 1 31 1 view .LVU29
	leaq	-40(%rbp), %rsp
	popq	%rbx
.LVL5:
	.loc 1 31 1 view .LVU30
	popq	%r12
	popq	%r13
	popq	%r14
	popq	%r15
	popq	%rbp
	.cfi_remember_state
	.cfi_def_cfa 7, 8
	ret
.LVL6:
.L2:
	.cfi_restore_state
	.loc 1 26 13 view .LVU31
	movq	%rbx, %rsi
	leaq	.Lubsan_data60(%rip), %rdi
	call	__ubsan_handle_type_mismatch_v1@PLT
.LVL7:
	jmp	.L3
.L35:
	.loc 1 26 13 view .LVU32
	movq	%rbx, %rsi
	leaq	.Lubsan_data61(%rip), %rdi
	call	__ubsan_handle_pointer_overflow@PLT
.LVL8:
	jmp	.L4
.L36:
	.loc 1 26 13 view .LVU33
	call	__asan_report_load8@PLT
.LVL9:
.L6:
	.loc 1 26 29 view .LVU34
	movq	%rbx, %rsi
	leaq	.Lubsan_data62(%rip), %rdi
	call	__ubsan_handle_type_mismatch_v1@PLT
.LVL10:
	jmp	.L7
.L37:
	.loc 1 26 29 view .LVU35
	movq	%rbx, %rsi
	leaq	.Lubsan_data63(%rip), %rdi
	call	__ubsan_handle_pointer_overflow@PLT
.LVL11:
	jmp	.L8
.L38:
	.loc 1 26 29 view .LVU36
	call	__asan_report_load8@PLT
.LVL12:
.L39:
	.loc 1 26 44 is_stmt 1 discriminator 1 view .LVU37
	leaq	stderr(%rip), %rdi
	movq	%rdi, %rax
	shrq	$3, %rax
	cmpb	$0, 2147450880(%rax)
	jne	.L46
	movq	stderr(%rip), %rbx
.LVL13:
	.loc 1 26 44 is_stmt 0 discriminator 1 view .LVU38
	testq	%rbx, %rbx
	je	.L47
.L12:
.LVL14:
.LBB48:
.LBI48:
	.loc 2 77 1 is_stmt 1 view .LVU39
.LBB49:
	.loc 2 79 3 view .LVU40
	.loc 2 79 10 is_stmt 0 view .LVU41
	leaq	.LC0(%rip), %r9
	movl	$26, %r8d
	leaq	.LC1(%rip), %rcx
	leaq	.LC2(%rip), %rdx
	movl	$2, %esi
	movq	%rbx, %rdi
	movl	$0, %eax
	call	__fprintf_chk@PLT
.LVL15:
	.loc 2 79 10 view .LVU42
.LBE49:
.LBE48:
	.loc 1 26 167 is_stmt 1 discriminator 1 view .LVU43
	leaq	stderr(%rip), %rdi
	movq	%rdi, %rax
	shrq	$3, %rax
	cmpb	$0, 2147450880(%rax)
	jne	.L48
	movq	stderr(%rip), %rbx
	testq	%rbx, %rbx
	je	.L49
.L14:
.LVL16:
.LBB50:
.LBI50:
	.loc 2 77 1 view .LVU44
.LBB51:
	.loc 2 79 3 view .LVU45
	.loc 2 79 10 is_stmt 0 view .LVU46
	movl	$26, %r8d
	leaq	.LC1(%rip), %rcx
	leaq	.LC3(%rip), %rdx
	movl	$2, %esi
	movq	%rbx, %rdi
	movl	$0, %eax
	call	__fprintf_chk@PLT
.LVL17:
	.loc 2 79 10 view .LVU47
.LBE51:
.LBE50:
	.loc 1 26 121 is_stmt 1 discriminator 2 view .LVU48
	call	__asan_handle_no_return@PLT
.LVL18:
	movl	$1, %edi
	call	exit@PLT
.LVL19:
.L46:
	.loc 1 26 44 is_stmt 0 discriminator 1 view .LVU49
	call	__asan_report_load8@PLT
.LVL20:
.L47:
	.loc 1 26 44 discriminator 1 view .LVU50
	leaq	.Lubsan_data13(%rip), %rdi
	call	__ubsan_handle_nonnull_arg@PLT
.LVL21:
	jmp	.L12
.L48:
	.loc 1 26 167 discriminator 1 view .LVU51
	call	__asan_report_load8@PLT
.LVL22:
.L49:
	leaq	.Lubsan_data15(%rip), %rdi
	call	__ubsan_handle_nonnull_arg@PLT
.LVL23:
	jmp	.L14
.LVL24:
.L15:
	.loc 1 27 69 view .LVU52
	movq	%rbx, %rsi
	leaq	.Lubsan_data64(%rip), %rdi
	call	__ubsan_handle_type_mismatch_v1@PLT
.LVL25:
	jmp	.L16
.L17:
	.loc 1 27 51 view .LVU53
	movq	%rbx, %rsi
	leaq	.Lubsan_data65(%rip), %rdi
	call	__ubsan_handle_type_mismatch_v1@PLT
.LVL26:
	jmp	.L18
.L40:
	.loc 1 27 51 view .LVU54
	movq	%rbx, %rdi
	call	__asan_report_load8@PLT
.LVL27:
.L20:
	.loc 1 27 14 discriminator 1 view .LVU55
	movq	%rbx, %rsi
	leaq	.Lubsan_data66(%rip), %rdi
	call	__ubsan_handle_type_mismatch_v1@PLT
.LVL28:
	jmp	.L21
.L41:
	.loc 1 27 14 discriminator 1 view .LVU56
	movq	%rbx, %rdi
	call	__asan_report_store8@PLT
.LVL29:
.L23:
	.loc 1 28 232 view .LVU57
	movq	%rbx, %rsi
	leaq	.Lubsan_data67(%rip), %rdi
	call	__ubsan_handle_type_mismatch_v1@PLT
.LVL30:
	jmp	.L24
.L42:
	.loc 1 28 232 view .LVU58
	call	__asan_report_load8@PLT
.LVL31:
.L26:
	.loc 1 28 193 view .LVU59
	movq	%rbx, %rsi
	leaq	.Lubsan_data68(%rip), %rdi
	call	__ubsan_handle_type_mismatch_v1@PLT
.LVL32:
	jmp	.L27
.L43:
	.loc 1 28 3 view .LVU60
	call	__asan_report_load8@PLT
.LVL33:
.L44:
	leaq	.Lubsan_data17(%rip), %rdi
	call	__ubsan_handle_nonnull_arg@PLT
.LVL34:
	jmp	.L29
.L30:
	.loc 1 30 7 view .LVU61
	movq	%rbx, %rsi
	leaq	.Lubsan_data69(%rip), %rdi
	call	__ubsan_handle_type_mismatch_v1@PLT
.LVL35:
	jmp	.L31
.L45:
	.loc 1 30 7 view .LVU62
	call	__asan_report_load8@PLT
.LVL36:
.L33:
	.loc 1 30 18 view .LVU63
	movq	%rbx, %rsi
	leaq	.Lubsan_data70(%rip), %rdi
	call	__ubsan_handle_type_mismatch_v1@PLT
.LVL37:
	jmp	.L34
	.cfi_endproc
.LFE53:
	.size	array_impl_resize, .-array_impl_resize
	.section	.rodata
	.align 32
.LC5:
	.string	"self->length <= self->capacity / 2"
	.zero	61
	.align 32
.LC6:
	.string	"\033[1;37m%s:%u\033[0m: \033[1;31merror: \033[0mExpected array length to be less than half its capacity\n"
	.zero	35
	.align 32
.LC7:
	.string	"\033[1;37m%s:%u\033[0m: \033[1;36mminutiae: \033[0mdownsized array %p from %zu bytes to %zu bytes\n"
	.zero	41
	.text
	.globl	array_impl_downsize
	.type	array_impl_downsize, @function
array_impl_downsize:
.LASANPC54:
.LVL38:
.LFB54:
	.loc 1 36 3 is_stmt 1 view -0
	.cfi_startproc
	.loc 1 36 3 is_stmt 0 view .LVU65
	endbr64
	pushq	%rbp
	.cfi_def_cfa_offset 16
	.cfi_offset 6, -16
	movq	%rsp, %rbp
	.cfi_def_cfa_register 6
	pushq	%r15
	pushq	%r14
	pushq	%r13
	pushq	%r12
	pushq	%rbx
	subq	$8, %rsp
	.cfi_offset 15, -24
	.cfi_offset 14, -32
	.cfi_offset 13, -40
	.cfi_offset 12, -48
	.cfi_offset 3, -56
1:	call	*mcount@GOTPCREL(%rip)
	movq	%rdi, %rbx
	.loc 1 37 5 is_stmt 1 view .LVU66
	.loc 1 37 15 is_stmt 0 view .LVU67
	testq	%rdi, %rdi
	je	.L51
	testb	$7, %dil
	jne	.L51
.LVL39:
.L52:
	.loc 1 37 15 view .LVU68
	leaq	8(%rbx), %rdx
	cmpq	$-8, %rbx
	jnb	.L84
.L53:
	leaq	8(%rbx), %rdi
	movq	%rdi, %rax
	shrq	$3, %rax
	cmpb	$0, 2147450880(%rax)
	jne	.L85
	movq	8(%rbx), %r13
	.loc 1 37 31 view .LVU69
	testq	%rbx, %rbx
	je	.L55
	testb	$7, %bl
	jne	.L55
.L56:
	leaq	16(%rbx), %rdx
	cmpq	$-16, %rbx
	jnb	.L86
.L57:
	leaq	16(%rbx), %rdi
	movq	%rdi, %rax
	shrq	$3, %rax
	cmpb	$0, 2147450880(%rax)
	jne	.L87
	movq	16(%rbx), %r12
	.loc 1 37 42 view .LVU70
	movq	%r12, %rax
	shrq	%rax
	.loc 1 37 8 view .LVU71
	cmpq	%r13, %rax
	jb	.L88
	.loc 1 37 8 is_stmt 1 discriminator 2 view .LVU72
	.loc 1 38 75 view .LVU73
	.loc 1 39 5 view .LVU74
	.loc 1 39 67 is_stmt 0 view .LVU75
	testq	%rbx, %rbx
	je	.L64
	testb	$7, %bl
	jne	.L64
.L65:
	.loc 1 39 78 view .LVU76
	salq	$3, %r12
	.loc 1 39 18 view .LVU77
	shrq	%r12
	.loc 1 39 53 view .LVU78
	testq	%rbx, %rbx
	je	.L66
	testb	$7, %bl
	jne	.L66
.L67:
	movq	%rbx, %rax
	shrq	$3, %rax
	cmpb	$0, 2147450880(%rax)
	jne	.L89
	movq	(%rbx), %rsi
	.loc 1 39 18 view .LVU79
	movq	%r12, %rdx
	leaq	__func__.2(%rip), %rdi
	call	__chk_realloc_impl@PLT
.LVL40:
	movq	%rax, %r12
	.loc 1 39 16 discriminator 1 view .LVU80
	testq	%rbx, %rbx
	je	.L69
	testb	$7, %bl
	jne	.L69
.L70:
	movq	%rbx, %rax
	shrq	$3, %rax
	cmpb	$0, 2147450880(%rax)
	jne	.L90
	movq	%r12, (%rbx)
	.loc 1 40 5 is_stmt 1 view .LVU81
	.loc 1 40 232 is_stmt 0 view .LVU82
	testq	%rbx, %rbx
	je	.L72
	testb	$7, %bl
	jne	.L72
.L73:
	leaq	16(%rbx), %rdi
	movq	%rdi, %rax
	shrq	$3, %rax
	cmpb	$0, 2147450880(%rax)
	jne	.L91
	.loc 1 40 226 view .LVU83
	movq	16(%rbx), %rax
	leaq	0(,%rax,8), %r12
	.loc 1 40 5 view .LVU84
	movq	%r12, %r15
	shrq	%r15
	.loc 1 40 197 view .LVU85
	testq	%rbx, %rbx
	je	.L75
	testb	$7, %bl
	jne	.L75
.L76:
	.loc 1 40 158 view .LVU86
	movl	%ebx, %r14d
	.loc 1 40 5 view .LVU87
	leaq	stdout(%rip), %rdi
	movq	%rdi, %rax
	shrq	$3, %rax
	cmpb	$0, 2147450880(%rax)
	jne	.L92
	movq	stdout(%rip), %r13
	testq	%r13, %r13
	je	.L93
.L78:
.LVL41:
.LBB52:
.LBI52:
	.loc 2 77 1 is_stmt 1 view .LVU88
.LBB53:
	.loc 2 79 3 view .LVU89
	.loc 2 79 10 is_stmt 0 view .LVU90
	pushq	%r15
	pushq	%r12
	movq	%r14, %r9
	movl	$40, %r8d
	leaq	.LC1(%rip), %rcx
	leaq	.LC7(%rip), %rdx
	movl	$2, %esi
	movq	%r13, %rdi
	movl	$0, %eax
	call	__fprintf_chk@PLT
.LVL42:
	.loc 2 79 10 view .LVU91
.LBE53:
.LBE52:
	.loc 1 43 5 is_stmt 1 view .LVU92
	.loc 1 43 9 is_stmt 0 view .LVU93
	addq	$16, %rsp
	testq	%rbx, %rbx
	je	.L79
	testb	$7, %bl
	jne	.L79
.L80:
	leaq	16(%rbx), %rdi
	movq	%rdi, %rax
	shrq	$3, %rax
	cmpb	$0, 2147450880(%rax)
	jne	.L94
	.loc 1 43 20 view .LVU94
	movq	16(%rbx), %r12
	shrq	%r12
	testq	%rbx, %rbx
	je	.L82
	testb	$7, %bl
	jne	.L82
.L83:
	movq	%r12, 16(%rbx)
	.loc 1 44 3 view .LVU95
	leaq	-40(%rbp), %rsp
	popq	%rbx
.LVL43:
	.loc 1 44 3 view .LVU96
	popq	%r12
	popq	%r13
	popq	%r14
	popq	%r15
	popq	%rbp
	.cfi_remember_state
	.cfi_def_cfa 7, 8
	ret
.LVL44:
.L51:
	.cfi_restore_state
	.loc 1 37 15 view .LVU97
	movq	%rbx, %rsi
	leaq	.Lubsan_data71(%rip), %rdi
	call	__ubsan_handle_type_mismatch_v1@PLT
.LVL45:
	jmp	.L52
.L84:
	.loc 1 37 15 view .LVU98
	movq	%rbx, %rsi
	leaq	.Lubsan_data72(%rip), %rdi
	call	__ubsan_handle_pointer_overflow@PLT
.LVL46:
	jmp	.L53
.L85:
	.loc 1 37 15 view .LVU99
	call	__asan_report_load8@PLT
.LVL47:
.L55:
	.loc 1 37 31 view .LVU100
	movq	%rbx, %rsi
	leaq	.Lubsan_data73(%rip), %rdi
	call	__ubsan_handle_type_mismatch_v1@PLT
.LVL48:
	jmp	.L56
.L86:
	.loc 1 37 31 view .LVU101
	movq	%rbx, %rsi
	leaq	.Lubsan_data74(%rip), %rdi
	call	__ubsan_handle_pointer_overflow@PLT
.LVL49:
	jmp	.L57
.L87:
	.loc 1 37 31 view .LVU102
	call	__asan_report_load8@PLT
.LVL50:
.L88:
	.loc 1 37 50 is_stmt 1 discriminator 1 view .LVU103
	leaq	stderr(%rip), %rdi
	movq	%rdi, %rax
	shrq	$3, %rax
	cmpb	$0, 2147450880(%rax)
	jne	.L95
	movq	stderr(%rip), %rbx
.LVL51:
	.loc 1 37 50 is_stmt 0 discriminator 1 view .LVU104
	testq	%rbx, %rbx
	je	.L96
.L61:
.LVL52:
.LBB54:
.LBI54:
	.loc 2 77 1 is_stmt 1 view .LVU105
.LBB55:
	.loc 2 79 3 view .LVU106
	.loc 2 79 10 is_stmt 0 view .LVU107
	leaq	.LC5(%rip), %r9
	movl	$37, %r8d
	leaq	.LC1(%rip), %rcx
	leaq	.LC2(%rip), %rdx
	movl	$2, %esi
	movq	%rbx, %rdi
	movl	$0, %eax
	call	__fprintf_chk@PLT
.LVL53:
	.loc 2 79 10 view .LVU108
.LBE55:
.LBE54:
	.loc 1 37 173 is_stmt 1 discriminator 1 view .LVU109
	leaq	stderr(%rip), %rdi
	movq	%rdi, %rax
	shrq	$3, %rax
	cmpb	$0, 2147450880(%rax)
	jne	.L97
	movq	stderr(%rip), %rbx
	testq	%rbx, %rbx
	je	.L98
.L63:
.LVL54:
.LBB56:
.LBI56:
	.loc 2 77 1 view .LVU110
.LBB57:
	.loc 2 79 3 view .LVU111
	.loc 2 79 10 is_stmt 0 view .LVU112
	movl	$37, %r8d
	leaq	.LC1(%rip), %rcx
	leaq	.LC6(%rip), %rdx
	movl	$2, %esi
	movq	%rbx, %rdi
	movl	$0, %eax
	call	__fprintf_chk@PLT
.LVL55:
	.loc 2 79 10 view .LVU113
.LBE57:
.LBE56:
	.loc 1 37 139 is_stmt 1 discriminator 2 view .LVU114
	call	__asan_handle_no_return@PLT
.LVL56:
	movl	$1, %edi
	call	exit@PLT
.LVL57:
.L95:
	.loc 1 37 50 is_stmt 0 discriminator 1 view .LVU115
	call	__asan_report_load8@PLT
.LVL58:
.L96:
	.loc 1 37 50 discriminator 1 view .LVU116
	leaq	.Lubsan_data19(%rip), %rdi
	call	__ubsan_handle_nonnull_arg@PLT
.LVL59:
	jmp	.L61
.L97:
	.loc 1 37 173 discriminator 1 view .LVU117
	call	__asan_report_load8@PLT
.LVL60:
.L98:
	leaq	.Lubsan_data21(%rip), %rdi
	call	__ubsan_handle_nonnull_arg@PLT
.LVL61:
	jmp	.L63
.LVL62:
.L64:
	.loc 1 39 67 view .LVU118
	movq	%rbx, %rsi
	leaq	.Lubsan_data75(%rip), %rdi
	call	__ubsan_handle_type_mismatch_v1@PLT
.LVL63:
	jmp	.L65
.L66:
	.loc 1 39 53 view .LVU119
	movq	%rbx, %rsi
	leaq	.Lubsan_data76(%rip), %rdi
	call	__ubsan_handle_type_mismatch_v1@PLT
.LVL64:
	jmp	.L67
.L89:
	.loc 1 39 53 view .LVU120
	movq	%rbx, %rdi
	call	__asan_report_load8@PLT
.LVL65:
.L69:
	.loc 1 39 16 discriminator 1 view .LVU121
	movq	%rbx, %rsi
	leaq	.Lubsan_data77(%rip), %rdi
	call	__ubsan_handle_type_mismatch_v1@PLT
.LVL66:
	jmp	.L70
.L90:
	.loc 1 39 16 discriminator 1 view .LVU122
	movq	%rbx, %rdi
	call	__asan_report_store8@PLT
.LVL67:
.L72:
	.loc 1 40 232 view .LVU123
	movq	%rbx, %rsi
	leaq	.Lubsan_data78(%rip), %rdi
	call	__ubsan_handle_type_mismatch_v1@PLT
.LVL68:
	jmp	.L73
.L91:
	.loc 1 40 232 view .LVU124
	call	__asan_report_load8@PLT
.LVL69:
.L75:
	.loc 1 40 197 view .LVU125
	movq	%rbx, %rsi
	leaq	.Lubsan_data79(%rip), %rdi
	call	__ubsan_handle_type_mismatch_v1@PLT
.LVL70:
	jmp	.L76
.L92:
	.loc 1 40 5 view .LVU126
	call	__asan_report_load8@PLT
.LVL71:
.L93:
	leaq	.Lubsan_data23(%rip), %rdi
	call	__ubsan_handle_nonnull_arg@PLT
.LVL72:
	jmp	.L78
.L79:
	.loc 1 43 9 view .LVU127
	movq	%rbx, %rsi
	leaq	.Lubsan_data80(%rip), %rdi
	call	__ubsan_handle_type_mismatch_v1@PLT
.LVL73:
	jmp	.L80
.L94:
	.loc 1 43 9 view .LVU128
	call	__asan_report_load8@PLT
.LVL74:
.L82:
	.loc 1 43 20 view .LVU129
	movq	%rbx, %rsi
	leaq	.Lubsan_data81(%rip), %rdi
	call	__ubsan_handle_type_mismatch_v1@PLT
.LVL75:
	jmp	.L83
	.cfi_endproc
.LFE54:
	.size	array_impl_downsize, .-array_impl_downsize
	.section	.rodata
	.align 32
.LC8:
	.string	"\033[1;37m%s:%u\033[0m: \033[1;36mminutiae: \033[0mnew array %p, member capacity: %zu bytes\n"
	.zero	47
	.text
	.globl	array_new_sized
	.type	array_new_sized, @function
array_new_sized:
.LASANPC56:
.LVL76:
.LFB56:
	.loc 1 58 1 is_stmt 1 view -0
	.cfi_startproc
	.loc 1 58 1 is_stmt 0 view .LVU131
	endbr64
	pushq	%rbp
	.cfi_def_cfa_offset 16
	.cfi_offset 6, -16
	movq	%rsp, %rbp
	.cfi_def_cfa_register 6
	pushq	%r15
	pushq	%r14
	pushq	%r13
	pushq	%r12
	pushq	%rbx
	subq	$8, %rsp
	.cfi_offset 15, -24
	.cfi_offset 14, -32
	.cfi_offset 13, -40
	.cfi_offset 12, -48
	.cfi_offset 3, -56
1:	call	*mcount@GOTPCREL(%rip)
	movq	%rdi, %r12
	.loc 1 59 3 is_stmt 1 view .LVU132
	.loc 1 59 19 is_stmt 0 view .LVU133
	movl	$24, %edx
	movl	$1, %esi
	leaq	__func__.1(%rip), %r13
	movq	%r13, %rdi
.LVL77:
	.loc 1 59 19 view .LVU134
	call	__chk_calloc_impl@PLT
.LVL78:
	movq	%rax, %rbx
.LVL79:
	.loc 1 60 3 is_stmt 1 view .LVU135
	.loc 1 60 17 is_stmt 0 view .LVU136
	movl	$8, %edx
	movq	%r12, %rsi
	movq	%r13, %rdi
	call	__chk_calloc_impl@PLT
.LVL80:
	.loc 1 60 17 view .LVU137
	movq	%rax, %r13
	.loc 1 60 15 discriminator 1 view .LVU138
	testq	%rbx, %rbx
	je	.L100
	testb	$7, %bl
	jne	.L100
.L101:
	movq	%rbx, %rax
	shrq	$3, %rax
	cmpb	$0, 2147450880(%rax)
	jne	.L109
	movq	%r13, (%rbx)
	.loc 1 61 3 is_stmt 1 view .LVU139
	leaq	0(,%r12,8), %r15
	.loc 1 61 151 is_stmt 0 view .LVU140
	movl	%ebx, %r14d
	.loc 1 61 3 view .LVU141
	leaq	stdout(%rip), %rdi
	movq	%rdi, %rax
	shrq	$3, %rax
	cmpb	$0, 2147450880(%rax)
	jne	.L110
	movq	stdout(%rip), %r13
	testq	%r13, %r13
	je	.L111
.L104:
.LVL81:
.LBB58:
.LBI58:
	.loc 2 77 1 is_stmt 1 view .LVU142
.LBB59:
	.loc 2 79 3 view .LVU143
	.loc 2 79 10 is_stmt 0 view .LVU144
	subq	$8, %rsp
	pushq	%r15
	movq	%r14, %r9
	movl	$61, %r8d
	leaq	.LC1(%rip), %rcx
	leaq	.LC8(%rip), %rdx
	movl	$2, %esi
	movq	%r13, %rdi
	movl	$0, %eax
	call	__fprintf_chk@PLT
.LVL82:
	.loc 2 79 10 view .LVU145
.LBE59:
.LBE58:
	.loc 1 63 3 is_stmt 1 view .LVU146
	.loc 1 63 19 is_stmt 0 view .LVU147
	addq	$16, %rsp
	testq	%rbx, %rbx
	je	.L105
	testb	$7, %bl
	jne	.L105
.L106:
	leaq	16(%rbx), %rdx
	cmpq	$-16, %rbx
	jnb	.L112
.L107:
	leaq	16(%rbx), %rdi
	movq	%rdi, %rax
	shrq	$3, %rax
	cmpb	$0, 2147450880(%rax)
	jne	.L113
	movq	%r12, 16(%rbx)
	.loc 1 64 3 is_stmt 1 view .LVU148
	.loc 1 65 1 is_stmt 0 view .LVU149
	movq	%rbx, %rax
	leaq	-40(%rbp), %rsp
	popq	%rbx
.LVL83:
	.loc 1 65 1 view .LVU150
	popq	%r12
.LVL84:
	.loc 1 65 1 view .LVU151
	popq	%r13
	popq	%r14
	popq	%r15
	popq	%rbp
	.cfi_remember_state
	.cfi_def_cfa 7, 8
	ret
.LVL85:
.L100:
	.cfi_restore_state
	.loc 1 60 15 discriminator 1 view .LVU152
	movq	%rbx, %rsi
	leaq	.Lubsan_data82(%rip), %rdi
	call	__ubsan_handle_type_mismatch_v1@PLT
.LVL86:
	jmp	.L101
.L109:
	.loc 1 60 15 discriminator 1 view .LVU153
	movq	%rbx, %rdi
	call	__asan_report_store8@PLT
.LVL87:
.L110:
	.loc 1 61 3 view .LVU154
	call	__asan_report_load8@PLT
.LVL88:
.L111:
	leaq	.Lubsan_data25(%rip), %rdi
	call	__ubsan_handle_nonnull_arg@PLT
.LVL89:
	jmp	.L104
.L105:
	.loc 1 63 19 view .LVU155
	movq	%rbx, %rsi
	leaq	.Lubsan_data83(%rip), %rdi
	call	__ubsan_handle_type_mismatch_v1@PLT
.LVL90:
	jmp	.L106
.L112:
	.loc 1 63 19 view .LVU156
	movq	%rbx, %rsi
	leaq	.Lubsan_data84(%rip), %rdi
	call	__ubsan_handle_pointer_overflow@PLT
.LVL91:
	jmp	.L107
.L113:
	.loc 1 63 19 view .LVU157
	call	__asan_report_store8@PLT
.LVL92:
	.cfi_endproc
.LFE56:
	.size	array_new_sized, .-array_new_sized
	.section	.rodata
	.align 32
.LC9:
	.string	"\033[1;37m%s:%u\033[0m: \033[1;36mminutiae: \033[0mcreating unsized array\n"
	.zero	33
	.text
	.globl	array_new
	.type	array_new, @function
array_new:
.LASANPC55:
.LFB55:
	.loc 1 51 1 is_stmt 1 view -0
	.cfi_startproc
	endbr64
	pushq	%rbp
	.cfi_def_cfa_offset 16
	.cfi_offset 6, -16
	movq	%rsp, %rbp
	.cfi_def_cfa_register 6
	pushq	%rbx
	subq	$8, %rsp
	.cfi_offset 3, -24
1:	call	*mcount@GOTPCREL(%rip)
	.loc 1 52 3 view .LVU159
	leaq	stdout(%rip), %rdi
	movq	%rdi, %rax
	shrq	$3, %rax
	cmpb	$0, 2147450880(%rax)
	jne	.L117
	movq	stdout(%rip), %rbx
	testq	%rbx, %rbx
	je	.L118
.L116:
.LVL93:
.LBB60:
.LBI60:
	.loc 2 77 1 view .LVU160
.LBB61:
	.loc 2 79 3 view .LVU161
	.loc 2 79 10 is_stmt 0 view .LVU162
	movl	$52, %r8d
	leaq	.LC1(%rip), %rcx
	leaq	.LC9(%rip), %rdx
	movl	$2, %esi
	movq	%rbx, %rdi
	movl	$0, %eax
	call	__fprintf_chk@PLT
.LVL94:
	.loc 2 79 10 view .LVU163
.LBE61:
.LBE60:
	.loc 1 53 3 is_stmt 1 view .LVU164
	.loc 1 53 10 is_stmt 0 view .LVU165
	movl	$32, %edi
	call	array_new_sized
.LVL95:
	.loc 1 54 1 view .LVU166
	movq	-8(%rbp), %rbx
	leave
	.cfi_remember_state
	.cfi_def_cfa 7, 8
	ret
.L117:
	.cfi_restore_state
	.loc 1 52 3 view .LVU167
	call	__asan_report_load8@PLT
.LVL96:
.L118:
	leaq	.Lubsan_data27(%rip), %rdi
	call	__ubsan_handle_nonnull_arg@PLT
.LVL97:
	jmp	.L116
	.cfi_endproc
.LFE55:
	.size	array_new, .-array_new
	.section	.rodata
	.align 32
.LC10:
	.string	"\033[1;37m%s:%u\033[0m: \033[1;36mminutiae: \033[0minserted to array %p at index %zu: element %p\n"
	.zero	42
	.text
	.globl	array_insert
	.type	array_insert, @function
array_insert:
.LASANPC57:
.LVL98:
.LFB57:
	.loc 1 69 1 is_stmt 1 view -0
	.cfi_startproc
	.loc 1 69 1 is_stmt 0 view .LVU169
	endbr64
	pushq	%rbp
	.cfi_def_cfa_offset 16
	.cfi_offset 6, -16
	movq	%rsp, %rbp
	.cfi_def_cfa_register 6
	pushq	%r15
	pushq	%r14
	pushq	%r13
	pushq	%r12
	pushq	%rbx
	subq	$40, %rsp
	.cfi_offset 15, -24
	.cfi_offset 14, -32
	.cfi_offset 13, -40
	.cfi_offset 12, -48
	.cfi_offset 3, -56
1:	call	*mcount@GOTPCREL(%rip)
	movq	%rdi, %rbx
	movq	%rsi, %r12
	movq	%rdx, -56(%rbp)
	.loc 1 70 3 is_stmt 1 view .LVU170
	.loc 1 70 11 is_stmt 0 view .LVU171
	testq	%rdi, %rdi
	je	.L120
	testb	$7, %dil
	jne	.L120
.LVL99:
.L121:
	.loc 1 70 11 view .LVU172
	leaq	8(%rbx), %rdx
	cmpq	$-8, %rbx
	jnb	.L176
.L122:
	leaq	8(%rbx), %rdi
	movq	%rdi, %rax
	shrq	$3, %rax
	cmpb	$0, 2147450880(%rax)
	jne	.L177
	movq	8(%rbx), %r13
	.loc 1 70 27 view .LVU173
	testq	%rbx, %rbx
	je	.L124
	testb	$7, %bl
	jne	.L124
.L125:
	leaq	16(%rbx), %rdx
	cmpq	$-16, %rbx
	jnb	.L178
.L126:
	leaq	16(%rbx), %rdi
	movq	%rdi, %rax
	shrq	$3, %rax
	cmpb	$0, 2147450880(%rax)
	jne	.L179
	.loc 1 70 6 view .LVU174
	cmpq	16(%rbx), %r13
	je	.L180
.L128:
	.loc 1 72 3 is_stmt 1 view .LVU175
	.loc 1 72 18 is_stmt 0 view .LVU176
	testq	%rbx, %rbx
	je	.L129
	testb	$7, %bl
	jne	.L129
.L130:
	leaq	8(%rbx), %rdi
	movq	%rdi, %rax
	shrq	$3, %rax
	cmpb	$0, 2147450880(%rax)
	jne	.L181
	movq	8(%rbx), %r13
	.loc 1 72 6 view .LVU177
	cmpq	%r13, %r12
	jnb	.L182
	.loc 1 77 3 is_stmt 1 view .LVU178
	.loc 1 77 76 is_stmt 0 view .LVU179
	testq	%rbx, %rbx
	je	.L147
	testb	$7, %bl
	jne	.L147
.L148:
	.loc 1 77 85 view .LVU180
	subq	%r12, %r13
	.loc 1 77 3 view .LVU181
	leaq	0(,%r13,8), %rax
	movq	%rax, -72(%rbp)
	.loc 1 77 39 view .LVU182
	testq	%rbx, %rbx
	je	.L149
	testb	$7, %bl
	jne	.L149
.L150:
	movq	%rbx, %rax
	shrq	$3, %rax
	cmpb	$0, 2147450880(%rax)
	jne	.L183
	movq	(%rbx), %r13
	.loc 1 77 45 view .LVU183
	leaq	0(,%r12,8), %r14
	.loc 1 77 34 view .LVU184
	leaq	0(%r13,%r14), %rdx
	testq	%r14, %r14
	js	.L152
	cmpq	%r13, %rdx
	jnb	.L153
.L154:
	movq	%r13, %rsi
	leaq	.Lubsan_data97(%rip), %rdi
	call	__ubsan_handle_pointer_overflow@PLT
.LVL100:
	jmp	.L153
.LVL101:
.L120:
	.loc 1 70 11 view .LVU185
	movq	%rbx, %rsi
.LVL102:
	.loc 1 70 11 view .LVU186
	leaq	.Lubsan_data85(%rip), %rdi
	call	__ubsan_handle_type_mismatch_v1@PLT
.LVL103:
	.loc 1 70 11 view .LVU187
	jmp	.L121
.L176:
	.loc 1 70 11 view .LVU188
	movq	%rbx, %rsi
	leaq	.Lubsan_data86(%rip), %rdi
	call	__ubsan_handle_pointer_overflow@PLT
.LVL104:
	jmp	.L122
.L177:
	.loc 1 70 11 view .LVU189
	call	__asan_report_load8@PLT
.LVL105:
.L124:
	.loc 1 70 27 view .LVU190
	movq	%rbx, %rsi
	leaq	.Lubsan_data87(%rip), %rdi
	call	__ubsan_handle_type_mismatch_v1@PLT
.LVL106:
	jmp	.L125
.L178:
	.loc 1 70 27 view .LVU191
	movq	%rbx, %rsi
	leaq	.Lubsan_data88(%rip), %rdi
	call	__ubsan_handle_pointer_overflow@PLT
.LVL107:
	jmp	.L126
.L179:
	.loc 1 70 27 view .LVU192
	call	__asan_report_load8@PLT
.LVL108:
.L180:
	.loc 1 71 5 is_stmt 1 view .LVU193
	movq	%rbx, %rdi
	call	array_impl_resize
.LVL109:
	jmp	.L128
.L129:
	.loc 1 72 18 is_stmt 0 view .LVU194
	movq	%rbx, %rsi
	leaq	.Lubsan_data89(%rip), %rdi
	call	__ubsan_handle_type_mismatch_v1@PLT
.LVL110:
	jmp	.L130
.L181:
	.loc 1 72 18 view .LVU195
	call	__asan_report_load8@PLT
.LVL111:
.L182:
	.loc 1 74 7 is_stmt 1 view .LVU196
	.loc 1 74 11 is_stmt 0 view .LVU197
	testq	%rbx, %rbx
	je	.L133
	testb	$7, %bl
	jne	.L133
.L134:
	movq	%rbx, %rax
	shrq	$3, %rax
	cmpb	$0, 2147450880(%rax)
	jne	.L184
	movq	(%rbx), %r12
.LVL112:
	.loc 1 74 22 view .LVU198
	testq	%rbx, %rbx
	je	.L136
	testb	$7, %bl
	jne	.L136
.L137:
	.loc 1 74 30 view .LVU199
	leaq	1(%r13), %r14
	testq	%rbx, %rbx
	je	.L138
	testb	$7, %bl
	jne	.L138
.L139:
	movq	%r14, 8(%rbx)
	.loc 1 74 17 view .LVU200
	salq	$3, %r13
	leaq	(%r12,%r13), %rdx
	js	.L140
	cmpq	%r12, %rdx
	jnb	.L141
.L142:
	movq	%r12, %rsi
	leaq	.Lubsan_data93(%rip), %rdi
	call	__ubsan_handle_pointer_overflow@PLT
.LVL113:
	jmp	.L141
.LVL114:
.L133:
	.loc 1 74 11 view .LVU201
	movq	%rbx, %rsi
	leaq	.Lubsan_data90(%rip), %rdi
	call	__ubsan_handle_type_mismatch_v1@PLT
.LVL115:
	jmp	.L134
.L184:
	.loc 1 74 11 view .LVU202
	movq	%rbx, %rdi
	call	__asan_report_load8@PLT
.LVL116:
.L136:
	.loc 1 74 22 view .LVU203
	movq	%rbx, %rsi
	leaq	.Lubsan_data91(%rip), %rdi
	call	__ubsan_handle_type_mismatch_v1@PLT
.LVL117:
	jmp	.L137
.L138:
	.loc 1 74 30 view .LVU204
	movq	%rbx, %rsi
	leaq	.Lubsan_data92(%rip), %rdi
	call	__ubsan_handle_type_mismatch_v1@PLT
.LVL118:
	jmp	.L139
.L140:
	.loc 1 74 17 view .LVU205
	cmpq	%rdx, %r12
	jb	.L142
.L141:
	.loc 1 74 34 view .LVU206
	addq	%r13, %r12
	je	.L143
	testb	$7, %r12b
	jne	.L143
.L144:
	movq	%r12, %rax
	shrq	$3, %rax
	cmpb	$0, 2147450880(%rax)
	jne	.L185
	movq	-56(%rbp), %rax
	movq	%rax, (%r12)
	.loc 1 75 7 is_stmt 1 view .LVU207
	.loc 1 75 14 is_stmt 0 view .LVU208
	jmp	.L146
.L143:
	.loc 1 74 34 view .LVU209
	movq	%r12, %rsi
	leaq	.Lubsan_data94(%rip), %rdi
	call	__ubsan_handle_type_mismatch_v1@PLT
.LVL119:
	jmp	.L144
.L185:
	movq	%r12, %rdi
	call	__asan_report_store8@PLT
.LVL120:
.L147:
	.loc 1 77 76 view .LVU210
	movq	%rbx, %rsi
	leaq	.Lubsan_data95(%rip), %rdi
	call	__ubsan_handle_type_mismatch_v1@PLT
.LVL121:
	jmp	.L148
.L149:
	.loc 1 77 39 view .LVU211
	movq	%rbx, %rsi
	leaq	.Lubsan_data96(%rip), %rdi
	call	__ubsan_handle_type_mismatch_v1@PLT
.LVL122:
	jmp	.L150
.L183:
	.loc 1 77 39 view .LVU212
	movq	%rbx, %rdi
	call	__asan_report_load8@PLT
.LVL123:
.L152:
	.loc 1 77 34 view .LVU213
	cmpq	%rdx, %r13
	jb	.L154
.L153:
	leaq	0(%r13,%r14), %rax
	movq	%rax, -64(%rbp)
	.loc 1 77 17 view .LVU214
	testq	%rbx, %rbx
	je	.L155
	testb	$7, %bl
	jne	.L155
.L156:
	.loc 1 77 23 view .LVU215
	leaq	8(,%r12,8), %r15
	.loc 1 77 12 view .LVU216
	leaq	0(%r13,%r15), %rdx
	testq	%r15, %r15
	js	.L157
	cmpq	%r13, %rdx
	jnb	.L158
.L159:
	movq	%r13, %rsi
	leaq	.Lubsan_data99(%rip), %rdi
	call	__ubsan_handle_pointer_overflow@PLT
.LVL124:
	jmp	.L158
.L155:
	.loc 1 77 17 view .LVU217
	movq	%rbx, %rsi
	leaq	.Lubsan_data98(%rip), %rdi
	call	__ubsan_handle_type_mismatch_v1@PLT
.LVL125:
	jmp	.L156
.L157:
	.loc 1 77 12 view .LVU218
	cmpq	%rdx, %r13
	jb	.L159
.L158:
	.loc 1 77 3 view .LVU219
	addq	%r15, %r13
	je	.L186
.L160:
	cmpq	$0, -64(%rbp)
	je	.L187
.L161:
.LVL126:
.LBB62:
.LBI62:
	.file 3 "/usr/include/bits/string_fortified.h"
	.loc 3 34 42 is_stmt 1 view .LVU220
.LBB63:
	.loc 3 36 3 view .LVU221
	.loc 3 36 10 is_stmt 0 discriminator 1 view .LVU222
	movq	-72(%rbp), %rdx
	movq	-64(%rbp), %rsi
	movq	%r13, %rdi
	call	memmove@PLT
.LVL127:
	.loc 3 36 10 discriminator 1 view .LVU223
.LBE63:
.LBE62:
	.loc 1 78 3 is_stmt 1 view .LVU224
	.loc 1 78 7 is_stmt 0 view .LVU225
	testq	%rbx, %rbx
	je	.L162
	testb	$7, %bl
	jne	.L162
.L163:
	movq	(%rbx), %r13
	.loc 1 78 13 view .LVU226
	leaq	0(%r13,%r14), %rdx
	testq	%r14, %r14
	js	.L164
	cmpq	%r13, %rdx
	jnb	.L165
.L166:
	movq	%r13, %rsi
	leaq	.Lubsan_data101(%rip), %rdi
	call	__ubsan_handle_pointer_overflow@PLT
.LVL128:
	jmp	.L165
.L186:
	.loc 1 77 3 view .LVU227
	leaq	.Lubsan_data29(%rip), %rdi
	call	__ubsan_handle_nonnull_arg@PLT
.LVL129:
	jmp	.L160
.L187:
	leaq	.Lubsan_data30(%rip), %rdi
	call	__ubsan_handle_nonnull_arg@PLT
.LVL130:
	jmp	.L161
.L162:
	.loc 1 78 7 view .LVU228
	movq	%rbx, %rsi
	leaq	.Lubsan_data100(%rip), %rdi
	call	__ubsan_handle_type_mismatch_v1@PLT
.LVL131:
	jmp	.L163
.L164:
	.loc 1 78 13 view .LVU229
	cmpq	%rdx, %r13
	jb	.L166
.L165:
	.loc 1 78 19 view .LVU230
	addq	%r14, %r13
	je	.L167
	testb	$7, %r13b
	jne	.L167
.L168:
	movq	%r13, %rax
	shrq	$3, %rax
	cmpb	$0, 2147450880(%rax)
	jne	.L188
	movq	-56(%rbp), %rax
	movq	%rax, 0(%r13)
	.loc 1 79 3 is_stmt 1 view .LVU231
	.loc 1 79 7 is_stmt 0 view .LVU232
	testq	%rbx, %rbx
	je	.L170
	testb	$7, %bl
	jne	.L170
.L171:
	.loc 1 79 15 view .LVU233
	movq	8(%rbx), %rax
	leaq	1(%rax), %r13
	testq	%rbx, %rbx
	je	.L172
	testb	$7, %bl
	jne	.L172
.L173:
	movq	%r13, 8(%rbx)
	.loc 1 80 3 is_stmt 1 view .LVU234
	.loc 1 80 155 is_stmt 0 view .LVU235
	movl	%ebx, %ebx
.LVL132:
	.loc 1 80 3 view .LVU236
	leaq	stdout(%rip), %rdi
	movq	%rdi, %rax
	shrq	$3, %rax
	cmpb	$0, 2147450880(%rax)
	jne	.L189
	movq	stdout(%rip), %r13
	testq	%r13, %r13
	je	.L190
.L175:
.LVL133:
.LBB64:
.LBI64:
	.loc 2 77 1 is_stmt 1 view .LVU237
.LBB65:
	.loc 2 79 3 view .LVU238
	.loc 2 79 10 is_stmt 0 view .LVU239
	pushq	-56(%rbp)
	pushq	%r12
	movq	%rbx, %r9
	movl	$80, %r8d
	leaq	.LC1(%rip), %rcx
	leaq	.LC10(%rip), %rdx
	movl	$2, %esi
	movq	%r13, %rdi
	movl	$0, %eax
	call	__fprintf_chk@PLT
.LVL134:
	.loc 2 79 10 view .LVU240
.LBE65:
.LBE64:
	.loc 1 82 3 is_stmt 1 view .LVU241
	.loc 1 82 10 is_stmt 0 view .LVU242
	addq	$16, %rsp
.LVL135:
.L146:
	.loc 1 83 1 view .LVU243
	movq	-56(%rbp), %rax
	leaq	-40(%rbp), %rsp
	popq	%rbx
	popq	%r12
	popq	%r13
	popq	%r14
	popq	%r15
	popq	%rbp
	.cfi_remember_state
	.cfi_def_cfa 7, 8
.LVL136:
	.loc 1 83 1 view .LVU244
	ret
.LVL137:
.L167:
	.cfi_restore_state
	.loc 1 78 19 view .LVU245
	movq	%r13, %rsi
	leaq	.Lubsan_data102(%rip), %rdi
	call	__ubsan_handle_type_mismatch_v1@PLT
.LVL138:
	jmp	.L168
.L188:
	movq	%r13, %rdi
	call	__asan_report_store8@PLT
.LVL139:
.L170:
	.loc 1 79 7 view .LVU246
	movq	%rbx, %rsi
	leaq	.Lubsan_data103(%rip), %rdi
	call	__ubsan_handle_type_mismatch_v1@PLT
.LVL140:
	jmp	.L171
.L172:
	.loc 1 79 15 view .LVU247
	movq	%rbx, %rsi
	leaq	.Lubsan_data104(%rip), %rdi
	call	__ubsan_handle_type_mismatch_v1@PLT
.LVL141:
	jmp	.L173
.LVL142:
.L189:
	.loc 1 80 3 view .LVU248
	call	__asan_report_load8@PLT
.LVL143:
.L190:
	leaq	.Lubsan_data31(%rip), %rdi
	call	__ubsan_handle_nonnull_arg@PLT
.LVL144:
	jmp	.L175
	.cfi_endproc
.LFE57:
	.size	array_insert, .-array_insert
	.section	.rodata
	.align 32
.LC11:
	.string	"self->length > 0"
	.zero	47
	.align 32
.LC12:
	.string	"\033[1;37m%s:%u\033[0m: \033[1;31merror: \033[0mArray must be non-empty\n"
	.zero	35
	.align 32
.LC13:
	.string	"\033[1;37m%s:%u\033[0m: \033[1;36mminutiae: \033[0mremoved from array %p at index %zu: element %p\n"
	.zero	41
	.text
	.globl	array_remove
	.type	array_remove, @function
array_remove:
.LASANPC58:
.LVL145:
.LFB58:
	.loc 1 87 1 is_stmt 1 view -0
	.cfi_startproc
	.loc 1 87 1 is_stmt 0 view .LVU250
	endbr64
	pushq	%rbp
	.cfi_def_cfa_offset 16
	.cfi_offset 6, -16
	movq	%rsp, %rbp
	.cfi_def_cfa_register 6
	pushq	%r15
	pushq	%r14
	pushq	%r13
	pushq	%r12
	pushq	%rbx
	subq	$40, %rsp
	.cfi_offset 15, -24
	.cfi_offset 14, -32
	.cfi_offset 13, -40
	.cfi_offset 12, -48
	.cfi_offset 3, -56
1:	call	*mcount@GOTPCREL(%rip)
	movq	%rdi, %rbx
	movq	%rsi, %r13
	.loc 1 88 3 is_stmt 1 view .LVU251
	.loc 1 88 13 is_stmt 0 view .LVU252
	testq	%rdi, %rdi
	je	.L192
	testb	$7, %dil
	jne	.L192
.LVL146:
.L193:
	.loc 1 88 13 view .LVU253
	leaq	8(%rbx), %rdx
	cmpq	$-8, %rbx
	jnb	.L250
.L194:
	leaq	8(%rbx), %rdi
	movq	%rdi, %rax
	shrq	$3, %rax
	cmpb	$0, 2147450880(%rax)
	jne	.L251
	movq	8(%rbx), %rax
	movq	%rax, -56(%rbp)
	.loc 1 88 6 view .LVU254
	testq	%rax, %rax
	je	.L252
	.loc 1 88 6 is_stmt 1 discriminator 2 view .LVU255
	.loc 1 88 9 discriminator 2 view .LVU256
	.loc 1 89 3 view .LVU257
	.loc 1 89 18 is_stmt 0 view .LVU258
	testq	%rbx, %rbx
	je	.L201
	testb	$7, %bl
	jne	.L201
.L202:
	.loc 1 89 27 view .LVU259
	movq	-56(%rbp), %rax
	leaq	-1(%rax), %r12
	.loc 1 89 6 view .LVU260
	cmpq	%r12, %r13
	jnb	.L253
	.loc 1 95 17 is_stmt 1 view .LVU261
	.loc 1 95 39 is_stmt 0 view .LVU262
	testq	%rbx, %rbx
	je	.L220
	testb	$7, %bl
	jne	.L220
.L221:
	movq	%rbx, %rax
	shrq	$3, %rax
	cmpb	$0, 2147450880(%rax)
	jne	.L254
	movq	(%rbx), %r12
	.loc 1 95 45 view .LVU263
	leaq	0(,%r13,8), %r14
	leaq	(%r12,%r14), %rdx
	testq	%r14, %r14
	js	.L223
	cmpq	%r12, %rdx
	jnb	.L224
.L225:
	movq	%r12, %rsi
	leaq	.Lubsan_data115(%rip), %rdi
	call	__ubsan_handle_pointer_overflow@PLT
.LVL147:
	jmp	.L224
.LVL148:
.L192:
	.loc 1 88 13 view .LVU264
	movq	%rbx, %rsi
.LVL149:
	.loc 1 88 13 view .LVU265
	leaq	.Lubsan_data105(%rip), %rdi
	call	__ubsan_handle_type_mismatch_v1@PLT
.LVL150:
	jmp	.L193
.L250:
	.loc 1 88 13 view .LVU266
	movq	%rbx, %rsi
	leaq	.Lubsan_data106(%rip), %rdi
	call	__ubsan_handle_pointer_overflow@PLT
.LVL151:
	jmp	.L194
.L251:
	.loc 1 88 13 view .LVU267
	call	__asan_report_load8@PLT
.LVL152:
.L252:
	.loc 1 88 30 is_stmt 1 discriminator 1 view .LVU268
	leaq	stderr(%rip), %rdi
	movq	%rdi, %rax
	shrq	$3, %rax
	cmpb	$0, 2147450880(%rax)
	jne	.L255
	movq	stderr(%rip), %rbx
.LVL153:
	.loc 1 88 30 is_stmt 0 discriminator 1 view .LVU269
	testq	%rbx, %rbx
	je	.L256
.L198:
.LVL154:
.LBB66:
.LBI66:
	.loc 2 77 1 is_stmt 1 view .LVU270
.LBB67:
	.loc 2 79 3 view .LVU271
	.loc 2 79 10 is_stmt 0 view .LVU272
	leaq	.LC11(%rip), %r9
	movl	$88, %r8d
	leaq	.LC1(%rip), %rcx
	leaq	.LC2(%rip), %rdx
	movl	$2, %esi
	movq	%rbx, %rdi
	movl	$0, %eax
	call	__fprintf_chk@PLT
.LVL155:
	.loc 2 79 10 view .LVU273
.LBE67:
.LBE66:
	.loc 1 88 153 is_stmt 1 discriminator 1 view .LVU274
	leaq	stderr(%rip), %rdi
	movq	%rdi, %rax
	shrq	$3, %rax
	cmpb	$0, 2147450880(%rax)
	jne	.L257
	movq	stderr(%rip), %rbx
	testq	%rbx, %rbx
	je	.L258
.L200:
.LVL156:
.LBB68:
.LBI68:
	.loc 2 77 1 view .LVU275
.LBB69:
	.loc 2 79 3 view .LVU276
	.loc 2 79 10 is_stmt 0 view .LVU277
	movl	$88, %r8d
	leaq	.LC1(%rip), %rcx
	leaq	.LC12(%rip), %rdx
	movl	$2, %esi
	movq	%rbx, %rdi
	movl	$0, %eax
	call	__fprintf_chk@PLT
.LVL157:
	.loc 2 79 10 view .LVU278
.LBE69:
.LBE68:
	.loc 1 88 105 is_stmt 1 discriminator 2 view .LVU279
	call	__asan_handle_no_return@PLT
.LVL158:
	movl	$1, %edi
	call	exit@PLT
.LVL159:
.L255:
	.loc 1 88 30 is_stmt 0 discriminator 1 view .LVU280
	call	__asan_report_load8@PLT
.LVL160:
.L256:
	.loc 1 88 30 discriminator 1 view .LVU281
	leaq	.Lubsan_data33(%rip), %rdi
	call	__ubsan_handle_nonnull_arg@PLT
.LVL161:
	jmp	.L198
.L257:
	.loc 1 88 153 discriminator 1 view .LVU282
	call	__asan_report_load8@PLT
.LVL162:
.L258:
	leaq	.Lubsan_data35(%rip), %rdi
	call	__ubsan_handle_nonnull_arg@PLT
.LVL163:
	jmp	.L200
.LVL164:
.L201:
	.loc 1 89 18 view .LVU283
	movq	%rbx, %rsi
	leaq	.Lubsan_data107(%rip), %rdi
	call	__ubsan_handle_type_mismatch_v1@PLT
.LVL165:
	jmp	.L202
.L253:
.LBB70:
	.loc 1 91 21 is_stmt 1 view .LVU284
	.loc 1 91 43 is_stmt 0 view .LVU285
	testq	%rbx, %rbx
	je	.L204
	testb	$7, %bl
	jne	.L204
.L205:
	movq	%rbx, %rax
	shrq	$3, %rax
	cmpb	$0, 2147450880(%rax)
	jne	.L259
	movq	(%rbx), %r13
.LVL166:
	.loc 1 91 56 view .LVU286
	testq	%rbx, %rbx
	je	.L207
	testb	$7, %bl
	jne	.L207
.L208:
	.loc 1 91 33 view .LVU287
	testq	%rbx, %rbx
	je	.L209
	testb	$7, %bl
	jne	.L209
.L210:
	movq	%r12, 8(%rbx)
	.loc 1 91 56 view .LVU288
	testq	%rbx, %rbx
	je	.L211
	testb	$7, %bl
	jne	.L211
.L212:
	.loc 1 91 49 view .LVU289
	salq	$3, %r12
	leaq	0(%r13,%r12), %rdx
	js	.L213
	cmpq	%r13, %rdx
	jnb	.L214
.L215:
	movq	%r13, %rsi
	leaq	.Lubsan_data112(%rip), %rdi
	call	__ubsan_handle_pointer_overflow@PLT
.LVL167:
	jmp	.L214
.LVL168:
.L204:
	.loc 1 91 43 view .LVU290
	movq	%rbx, %rsi
	leaq	.Lubsan_data108(%rip), %rdi
	call	__ubsan_handle_type_mismatch_v1@PLT
.LVL169:
	jmp	.L205
.L259:
	.loc 1 91 43 view .LVU291
	movq	%rbx, %rdi
	call	__asan_report_load8@PLT
.LVL170:
.L207:
	.loc 1 91 56 view .LVU292
	movq	%rbx, %rsi
	leaq	.Lubsan_data109(%rip), %rdi
	call	__ubsan_handle_type_mismatch_v1@PLT
.LVL171:
	jmp	.L208
.L209:
	.loc 1 91 33 view .LVU293
	movq	%rbx, %rsi
	leaq	.Lubsan_data110(%rip), %rdi
	call	__ubsan_handle_type_mismatch_v1@PLT
.LVL172:
	jmp	.L210
.L211:
	.loc 1 91 56 view .LVU294
	movq	%rbx, %rsi
	leaq	.Lubsan_data111(%rip), %rdi
	call	__ubsan_handle_type_mismatch_v1@PLT
.LVL173:
	jmp	.L212
.L213:
	.loc 1 91 49 view .LVU295
	cmpq	%rdx, %r13
	jb	.L215
.L214:
	.loc 1 91 33 view .LVU296
	addq	%r12, %r13
	je	.L216
	testb	$7, %r13b
	jne	.L216
.L217:
	movq	%r13, %rax
	shrq	$3, %rax
	cmpb	$0, 2147450880(%rax)
	jne	.L260
	movq	0(%r13), %rax
	movq	%rax, -64(%rbp)
.LVL174:
	.loc 1 92 7 is_stmt 1 view .LVU297
	movq	%rbx, %rdi
	call	array_impl_downsize
.LVL175:
	.loc 1 93 7 view .LVU298
	.loc 1 93 14 is_stmt 0 view .LVU299
	jmp	.L191
.LVL176:
.L216:
	.loc 1 91 33 view .LVU300
	movq	%r13, %rsi
	leaq	.Lubsan_data113(%rip), %rdi
	call	__ubsan_handle_type_mismatch_v1@PLT
.LVL177:
	jmp	.L217
.L260:
	movq	%r13, %rdi
	call	__asan_report_load8@PLT
.LVL178:
.L220:
	.loc 1 91 33 view .LVU301
.LBE70:
	.loc 1 95 39 view .LVU302
	movq	%rbx, %rsi
	leaq	.Lubsan_data114(%rip), %rdi
	call	__ubsan_handle_type_mismatch_v1@PLT
.LVL179:
	jmp	.L221
.L254:
	.loc 1 95 39 view .LVU303
	movq	%rbx, %rdi
	call	__asan_report_load8@PLT
.LVL180:
.L223:
	.loc 1 95 45 view .LVU304
	cmpq	%rdx, %r12
	jb	.L225
.L224:
	.loc 1 95 29 view .LVU305
	movq	%r12, %r15
	addq	%r14, %r15
	je	.L226
	testb	$7, %r15b
	jne	.L226
.L227:
	movq	%r15, %rax
	shrq	$3, %rax
	cmpb	$0, 2147450880(%rax)
	jne	.L261
	movq	(%r15), %rax
	movq	%rax, -64(%rbp)
.LVL181:
	.loc 1 96 3 is_stmt 1 view .LVU306
	.loc 1 96 76 is_stmt 0 view .LVU307
	testq	%rbx, %rbx
	je	.L229
	testb	$7, %bl
	jne	.L229
.LVL182:
.L230:
	.loc 1 96 85 view .LVU308
	movq	-56(%rbp), %rax
	subq	%r13, %rax
	.loc 1 96 3 view .LVU309
	leaq	-8(,%rax,8), %rax
	movq	%rax, -72(%rbp)
	.loc 1 96 35 view .LVU310
	testq	%rbx, %rbx
	je	.L231
	testb	$7, %bl
	jne	.L231
.L232:
	.loc 1 96 41 view .LVU311
	leaq	8(,%r13,8), %rax
	movq	%rax, -56(%rbp)
	.loc 1 96 30 view .LVU312
	leaq	(%r12,%rax), %rdx
	testq	%rax, %rax
	js	.L233
	cmpq	%r12, %rdx
	jnb	.L234
.L235:
	movq	%r12, %rsi
	leaq	.Lubsan_data119(%rip), %rdi
	call	__ubsan_handle_pointer_overflow@PLT
.LVL183:
	jmp	.L234
.LVL184:
.L226:
	.loc 1 95 29 view .LVU313
	movq	%r15, %rsi
	leaq	.Lubsan_data116(%rip), %rdi
	call	__ubsan_handle_type_mismatch_v1@PLT
.LVL185:
	jmp	.L227
.L261:
	movq	%r15, %rdi
	call	__asan_report_load8@PLT
.LVL186:
.L229:
	.loc 1 96 76 view .LVU314
	movq	%rbx, %rsi
	leaq	.Lubsan_data117(%rip), %rdi
	call	__ubsan_handle_type_mismatch_v1@PLT
.LVL187:
	.loc 1 96 76 view .LVU315
	jmp	.L230
.L231:
	.loc 1 96 35 view .LVU316
	movq	%rbx, %rsi
	leaq	.Lubsan_data118(%rip), %rdi
	call	__ubsan_handle_type_mismatch_v1@PLT
.LVL188:
	jmp	.L232
.L233:
	.loc 1 96 30 view .LVU317
	cmpq	%rdx, %r12
	jb	.L235
.L234:
	movq	-56(%rbp), %rax
	addq	%r12, %rax
	movq	%rax, -56(%rbp)
	.loc 1 96 17 view .LVU318
	testq	%rbx, %rbx
	je	.L236
	testb	$7, %bl
	jne	.L236
.L237:
	.loc 1 96 12 view .LVU319
	leaq	(%r12,%r14), %rdx
	testq	%r14, %r14
	js	.L238
	cmpq	%r12, %rdx
	jnb	.L239
.L240:
	movq	%r12, %rsi
	leaq	.Lubsan_data121(%rip), %rdi
	call	__ubsan_handle_pointer_overflow@PLT
.LVL189:
	jmp	.L239
.L236:
	.loc 1 96 17 view .LVU320
	movq	%rbx, %rsi
	leaq	.Lubsan_data120(%rip), %rdi
	call	__ubsan_handle_type_mismatch_v1@PLT
.LVL190:
	jmp	.L237
.L238:
	.loc 1 96 12 view .LVU321
	cmpq	%rdx, %r12
	jb	.L240
.L239:
	.loc 1 96 3 view .LVU322
	testq	%r15, %r15
	je	.L262
.L241:
	cmpq	$0, -56(%rbp)
	je	.L263
.L242:
.LVL191:
.LBB71:
.LBI71:
	.loc 3 34 42 is_stmt 1 view .LVU323
.LBB72:
	.loc 3 36 3 view .LVU324
	.loc 3 36 10 is_stmt 0 discriminator 1 view .LVU325
	movq	-72(%rbp), %rdx
	movq	-56(%rbp), %rsi
	movq	%r15, %rdi
	call	memmove@PLT
.LVL192:
	.loc 3 36 10 discriminator 1 view .LVU326
.LBE72:
.LBE71:
	.loc 1 97 3 is_stmt 1 view .LVU327
	.loc 1 97 156 is_stmt 0 view .LVU328
	movl	%ebx, %r14d
	.loc 1 97 3 view .LVU329
	leaq	stdout(%rip), %rdi
	movq	%rdi, %rax
	shrq	$3, %rax
	cmpb	$0, 2147450880(%rax)
	jne	.L264
	movq	stdout(%rip), %r12
	testq	%r12, %r12
	je	.L265
.L244:
.LVL193:
.LBB73:
.LBI73:
	.loc 2 77 1 is_stmt 1 view .LVU330
.LBB74:
	.loc 2 79 3 view .LVU331
	.loc 2 79 10 is_stmt 0 view .LVU332
	pushq	-64(%rbp)
	pushq	%r13
	movq	%r14, %r9
	movl	$97, %r8d
	leaq	.LC1(%rip), %rcx
	leaq	.LC13(%rip), %rdx
	movl	$2, %esi
	movq	%r12, %rdi
	movl	$0, %eax
	call	__fprintf_chk@PLT
.LVL194:
	.loc 2 79 10 view .LVU333
.LBE74:
.LBE73:
	.loc 1 99 3 is_stmt 1 view .LVU334
	.loc 1 99 7 is_stmt 0 view .LVU335
	addq	$16, %rsp
	testq	%rbx, %rbx
	je	.L245
	testb	$7, %bl
	jne	.L245
.L246:
	leaq	8(%rbx), %rdi
	movq	%rdi, %rax
	shrq	$3, %rax
	cmpb	$0, 2147450880(%rax)
	jne	.L266
	.loc 1 99 15 view .LVU336
	movq	8(%rbx), %rax
	leaq	-1(%rax), %r12
	testq	%rbx, %rbx
	je	.L248
	testb	$7, %bl
	jne	.L248
.L249:
	movq	%r12, 8(%rbx)
	.loc 1 100 3 is_stmt 1 view .LVU337
	movq	%rbx, %rdi
	call	array_impl_downsize
.LVL195:
	.loc 1 101 3 view .LVU338
.L191:
	.loc 1 102 1 is_stmt 0 view .LVU339
	movq	-64(%rbp), %rax
	leaq	-40(%rbp), %rsp
	popq	%rbx
.LVL196:
	.loc 1 102 1 view .LVU340
	popq	%r12
	popq	%r13
	popq	%r14
	popq	%r15
	popq	%rbp
	.cfi_remember_state
	.cfi_def_cfa 7, 8
	ret
.LVL197:
.L262:
	.cfi_restore_state
	.loc 1 96 3 view .LVU341
	leaq	.Lubsan_data37(%rip), %rdi
	call	__ubsan_handle_nonnull_arg@PLT
.LVL198:
	jmp	.L241
.L263:
	leaq	.Lubsan_data38(%rip), %rdi
	call	__ubsan_handle_nonnull_arg@PLT
.LVL199:
	jmp	.L242
.L264:
	.loc 1 97 3 view .LVU342
	call	__asan_report_load8@PLT
.LVL200:
.L265:
	leaq	.Lubsan_data39(%rip), %rdi
	call	__ubsan_handle_nonnull_arg@PLT
.LVL201:
	jmp	.L244
.L245:
	.loc 1 99 7 view .LVU343
	movq	%rbx, %rsi
	leaq	.Lubsan_data122(%rip), %rdi
	call	__ubsan_handle_type_mismatch_v1@PLT
.LVL202:
	jmp	.L246
.L266:
	.loc 1 99 7 view .LVU344
	call	__asan_report_load8@PLT
.LVL203:
.L248:
	.loc 1 99 15 view .LVU345
	movq	%rbx, %rsi
	leaq	.Lubsan_data123(%rip), %rdi
	call	__ubsan_handle_type_mismatch_v1@PLT
.LVL204:
	jmp	.L249
	.cfi_endproc
.LFE58:
	.size	array_remove, .-array_remove
	.section	.rodata
	.align 32
.LC14:
	.string	"\033[1;37m%s:%u\033[0m: \033[1;36mminutiae: \033[0mpopping from array %p\n"
	.zero	34
	.text
	.globl	array_pop
	.type	array_pop, @function
array_pop:
.LASANPC59:
.LVL205:
.LFB59:
	.loc 1 106 1 is_stmt 1 view -0
	.cfi_startproc
	.loc 1 106 1 is_stmt 0 view .LVU347
	endbr64
	pushq	%rbp
	.cfi_def_cfa_offset 16
	.cfi_offset 6, -16
	movq	%rsp, %rbp
	.cfi_def_cfa_register 6
	pushq	%r13
	pushq	%r12
	pushq	%rbx
	subq	$8, %rsp
	.cfi_offset 13, -24
	.cfi_offset 12, -32
	.cfi_offset 3, -40
1:	call	*mcount@GOTPCREL(%rip)
	movq	%rdi, %rbx
	.loc 1 107 3 is_stmt 1 view .LVU348
	.loc 1 107 132 is_stmt 0 view .LVU349
	movl	%edi, %r13d
	.loc 1 107 3 view .LVU350
	leaq	stdout(%rip), %rdi
.LVL206:
	.loc 1 107 3 view .LVU351
	movq	%rdi, %rax
	shrq	$3, %rax
	cmpb	$0, 2147450880(%rax)
	jne	.L274
	movq	stdout(%rip), %r12
	testq	%r12, %r12
	je	.L275
.L269:
.LVL207:
.LBB75:
.LBI75:
	.loc 2 77 1 is_stmt 1 view .LVU352
.LBB76:
	.loc 2 79 3 view .LVU353
	.loc 2 79 10 is_stmt 0 view .LVU354
	movq	%r13, %r9
	movl	$107, %r8d
	leaq	.LC1(%rip), %rcx
	leaq	.LC14(%rip), %rdx
	movl	$2, %esi
	movq	%r12, %rdi
	movl	$0, %eax
	call	__fprintf_chk@PLT
.LVL208:
	.loc 2 79 10 view .LVU355
.LBE76:
.LBE75:
	.loc 1 108 3 is_stmt 1 view .LVU356
	.loc 1 108 10 is_stmt 0 view .LVU357
	testq	%rbx, %rbx
	je	.L270
	testb	$7, %bl
	jne	.L270
.L271:
	leaq	8(%rbx), %rdx
	cmpq	$-8, %rbx
	jnb	.L276
.L272:
	leaq	8(%rbx), %rdi
	movq	%rdi, %rax
	shrq	$3, %rax
	cmpb	$0, 2147450880(%rax)
	jne	.L277
	movq	8(%rbx), %rsi
	movq	%rbx, %rdi
	call	array_remove
.LVL209:
	.loc 1 109 1 view .LVU358
	addq	$8, %rsp
	popq	%rbx
.LVL210:
	.loc 1 109 1 view .LVU359
	popq	%r12
	popq	%r13
	popq	%rbp
	.cfi_remember_state
	.cfi_def_cfa 7, 8
	ret
.LVL211:
.L274:
	.cfi_restore_state
	.loc 1 107 3 view .LVU360
	call	__asan_report_load8@PLT
.LVL212:
.L275:
	leaq	.Lubsan_data41(%rip), %rdi
	call	__ubsan_handle_nonnull_arg@PLT
.LVL213:
	jmp	.L269
.L270:
	.loc 1 108 10 view .LVU361
	movq	%rbx, %rsi
	leaq	.Lubsan_data124(%rip), %rdi
	call	__ubsan_handle_type_mismatch_v1@PLT
.LVL214:
	jmp	.L271
.L276:
	.loc 1 108 10 view .LVU362
	movq	%rbx, %rsi
	leaq	.Lubsan_data125(%rip), %rdi
	call	__ubsan_handle_pointer_overflow@PLT
.LVL215:
	jmp	.L272
.L277:
	.loc 1 108 10 view .LVU363
	call	__asan_report_load8@PLT
.LVL216:
	.cfi_endproc
.LFE59:
	.size	array_pop, .-array_pop
	.section	.rodata
	.align 32
.LC15:
	.string	"\033[1;37m%s:%u\033[0m: \033[1;36mminutiae: \033[0mappended to array %p: element at %p\n"
	.zero	52
	.text
	.globl	array_append
	.type	array_append, @function
array_append:
.LASANPC60:
.LVL217:
.LFB60:
	.loc 1 113 1 is_stmt 1 view -0
	.cfi_startproc
	.loc 1 113 1 is_stmt 0 view .LVU365
	endbr64
	pushq	%rbp
	.cfi_def_cfa_offset 16
	.cfi_offset 6, -16
	movq	%rsp, %rbp
	.cfi_def_cfa_register 6
	pushq	%r13
	pushq	%r12
	pushq	%rbx
	subq	$8, %rsp
	.cfi_offset 13, -24
	.cfi_offset 12, -32
	.cfi_offset 3, -40
1:	call	*mcount@GOTPCREL(%rip)
	movq	%rdi, %rbx
	movq	%rsi, %r12
	.loc 1 114 3 is_stmt 1 view .LVU366
	testq	%rdi, %rdi
	je	.L279
	testb	$7, %dil
	jne	.L279
.LVL218:
.L280:
	.loc 1 114 3 is_stmt 0 view .LVU367
	leaq	8(%rbx), %rdx
	cmpq	$-8, %rbx
	jnb	.L285
.L281:
	leaq	8(%rbx), %rdi
	movq	%rdi, %rax
	shrq	$3, %rax
	cmpb	$0, 2147450880(%rax)
	jne	.L286
	movq	8(%rbx), %rsi
	movq	%r12, %rdx
	movq	%rbx, %rdi
	call	array_insert
.LVL219:
	.loc 1 115 3 is_stmt 1 view .LVU368
	.loc 1 115 146 is_stmt 0 view .LVU369
	movl	%ebx, %ebx
.LVL220:
	.loc 1 115 3 view .LVU370
	leaq	stdout(%rip), %rdi
	movq	%rdi, %rax
	shrq	$3, %rax
	cmpb	$0, 2147450880(%rax)
	jne	.L287
	movq	stdout(%rip), %r13
	testq	%r13, %r13
	je	.L288
.L284:
.LVL221:
.LBB77:
.LBI77:
	.loc 2 77 1 is_stmt 1 view .LVU371
.LBB78:
	.loc 2 79 3 view .LVU372
	.loc 2 79 10 is_stmt 0 view .LVU373
	subq	$8, %rsp
	pushq	%r12
	movq	%rbx, %r9
	movl	$115, %r8d
	leaq	.LC1(%rip), %rcx
	leaq	.LC15(%rip), %rdx
	movl	$2, %esi
	movq	%r13, %rdi
	movl	$0, %eax
	call	__fprintf_chk@PLT
.LVL222:
	.loc 2 79 10 view .LVU374
.LBE78:
.LBE77:
	.loc 1 116 3 is_stmt 1 view .LVU375
	.loc 1 117 1 is_stmt 0 view .LVU376
	movq	%r12, %rax
	leaq	-24(%rbp), %rsp
	popq	%rbx
	popq	%r12
.LVL223:
	.loc 1 117 1 view .LVU377
	popq	%r13
	popq	%rbp
	.cfi_remember_state
	.cfi_def_cfa 7, 8
	ret
.LVL224:
.L279:
	.cfi_restore_state
	.loc 1 114 3 view .LVU378
	movq	%rbx, %rsi
.LVL225:
	.loc 1 114 3 view .LVU379
	leaq	.Lubsan_data126(%rip), %rdi
	call	__ubsan_handle_type_mismatch_v1@PLT
.LVL226:
	jmp	.L280
.L285:
	.loc 1 114 3 view .LVU380
	movq	%rbx, %rsi
	leaq	.Lubsan_data127(%rip), %rdi
	call	__ubsan_handle_pointer_overflow@PLT
.LVL227:
	jmp	.L281
.L286:
	.loc 1 114 3 view .LVU381
	call	__asan_report_load8@PLT
.LVL228:
.L287:
	.loc 1 115 3 view .LVU382
	call	__asan_report_load8@PLT
.LVL229:
.L288:
	leaq	.Lubsan_data45(%rip), %rdi
	call	__ubsan_handle_nonnull_arg@PLT
.LVL230:
	jmp	.L284
	.cfi_endproc
.LFE60:
	.size	array_append, .-array_append
	.section	.rodata
	.align 32
.LC16:
	.string	"idx < self->length"
	.zero	45
	.align 32
.LC17:
	.string	"\033[1;37m%s:%u\033[0m: \033[1;31merror: \033[0mTried to read index %zu of array with length %zu\n"
	.zero	42
	.align 32
.LC18:
	.string	"\033[1;37m%s:%u\033[0m: \033[1;36mminutiae: \033[0mgetting element of array %p at index %zu\n"
	.zero	47
	.text
	.globl	array_get
	.type	array_get, @function
array_get:
.LASANPC61:
.LVL231:
.LFB61:
	.loc 1 121 1 is_stmt 1 view -0
	.cfi_startproc
	.loc 1 121 1 is_stmt 0 view .LVU384
	endbr64
	pushq	%rbp
	.cfi_def_cfa_offset 16
	.cfi_offset 6, -16
	movq	%rsp, %rbp
	.cfi_def_cfa_register 6
	pushq	%r14
	pushq	%r13
	pushq	%r12
	pushq	%rbx
	.cfi_offset 14, -24
	.cfi_offset 13, -32
	.cfi_offset 12, -40
	.cfi_offset 3, -48
1:	call	*mcount@GOTPCREL(%rip)
	movq	%rdi, %rbx
	movq	%rsi, %r12
	.loc 1 122 3 is_stmt 1 view .LVU385
	.loc 1 122 19 is_stmt 0 view .LVU386
	testq	%rdi, %rdi
	je	.L290
	testb	$7, %dil
	jne	.L290
.LVL232:
.L291:
	.loc 1 122 19 view .LVU387
	leaq	8(%rbx), %rdx
	cmpq	$-8, %rbx
	jnb	.L313
.L292:
	leaq	8(%rbx), %rdi
	movq	%rdi, %rax
	shrq	$3, %rax
	cmpb	$0, 2147450880(%rax)
	jne	.L314
	.loc 1 122 6 view .LVU388
	cmpq	8(%rbx), %r12
	jnb	.L315
	.loc 1 122 6 is_stmt 1 discriminator 2 view .LVU389
	.loc 1 123 85 view .LVU390
	.loc 1 124 3 view .LVU391
	.loc 1 124 151 is_stmt 0 view .LVU392
	movl	%ebx, %r14d
	.loc 1 124 3 view .LVU393
	leaq	stdout(%rip), %rdi
	movq	%rdi, %rax
	shrq	$3, %rax
	cmpb	$0, 2147450880(%rax)
	jne	.L316
	movq	stdout(%rip), %r13
	testq	%r13, %r13
	je	.L317
.L303:
.LVL233:
.LBB79:
.LBI79:
	.loc 2 77 1 is_stmt 1 view .LVU394
.LBB80:
	.loc 2 79 3 view .LVU395
	.loc 2 79 10 is_stmt 0 view .LVU396
	subq	$8, %rsp
	pushq	%r12
	movq	%r14, %r9
	movl	$124, %r8d
	leaq	.LC1(%rip), %rcx
	leaq	.LC18(%rip), %rdx
	movl	$2, %esi
	movq	%r13, %rdi
	movl	$0, %eax
	call	__fprintf_chk@PLT
.LVL234:
	.loc 2 79 10 view .LVU397
.LBE80:
.LBE79:
	.loc 1 125 3 is_stmt 1 view .LVU398
	.loc 1 125 14 is_stmt 0 view .LVU399
	addq	$16, %rsp
	testq	%rbx, %rbx
	je	.L304
	testb	$7, %bl
	jne	.L304
.L305:
	movq	%rbx, %rax
	shrq	$3, %rax
	cmpb	$0, 2147450880(%rax)
	jne	.L318
	movq	(%rbx), %rbx
.LVL235:
	.loc 1 125 20 view .LVU400
	salq	$3, %r12
.LVL236:
	.loc 1 125 20 view .LVU401
	leaq	(%rbx,%r12), %rdx
	js	.L307
	cmpq	%rbx, %rdx
	jnb	.L308
.L309:
	movq	%rbx, %rsi
	leaq	.Lubsan_data132(%rip), %rdi
	call	__ubsan_handle_pointer_overflow@PLT
.LVL237:
	jmp	.L308
.LVL238:
.L290:
	.loc 1 122 19 view .LVU402
	movq	%rbx, %rsi
.LVL239:
	.loc 1 122 19 view .LVU403
	leaq	.Lubsan_data128(%rip), %rdi
	call	__ubsan_handle_type_mismatch_v1@PLT
.LVL240:
	jmp	.L291
.L313:
	.loc 1 122 19 view .LVU404
	movq	%rbx, %rsi
	leaq	.Lubsan_data129(%rip), %rdi
	call	__ubsan_handle_pointer_overflow@PLT
.LVL241:
	jmp	.L292
.L314:
	.loc 1 122 19 view .LVU405
	call	__asan_report_load8@PLT
.LVL242:
.L315:
	.loc 1 122 32 is_stmt 1 discriminator 1 view .LVU406
	leaq	stderr(%rip), %rdi
	movq	%rdi, %rax
	shrq	$3, %rax
	cmpb	$0, 2147450880(%rax)
	jne	.L319
	movq	stderr(%rip), %r13
	testq	%r13, %r13
	je	.L320
.L296:
.LVL243:
.LBB81:
.LBI81:
	.loc 2 77 1 view .LVU407
.LBB82:
	.loc 2 79 3 view .LVU408
	.loc 2 79 10 is_stmt 0 view .LVU409
	leaq	.LC16(%rip), %r9
	movl	$122, %r8d
	leaq	.LC1(%rip), %rcx
	leaq	.LC2(%rip), %rdx
	movl	$2, %esi
	movq	%r13, %rdi
	movl	$0, %eax
	call	__fprintf_chk@PLT
.LVL244:
	.loc 2 79 10 view .LVU410
.LBE82:
.LBE81:
	.loc 1 122 156 is_stmt 1 discriminator 1 view .LVU411
	testq	%rbx, %rbx
	je	.L297
	testb	$7, %bl
	jne	.L297
.L298:
	leaq	8(%rbx), %rdi
	movq	%rdi, %rax
	shrq	$3, %rax
	cmpb	$0, 2147450880(%rax)
	jne	.L321
	movq	8(%rbx), %r13
	leaq	stderr(%rip), %rdi
	movq	%rdi, %rax
	shrq	$3, %rax
	cmpb	$0, 2147450880(%rax)
	jne	.L322
	movq	stderr(%rip), %rbx
.LVL245:
	.loc 1 122 156 is_stmt 0 discriminator 1 view .LVU412
	testq	%rbx, %rbx
	je	.L323
.L301:
.LVL246:
.LBB83:
.LBI83:
	.loc 2 77 1 is_stmt 1 view .LVU413
.LBB84:
	.loc 2 79 3 view .LVU414
	.loc 2 79 10 is_stmt 0 view .LVU415
	subq	$8, %rsp
	pushq	%r13
	movq	%r12, %r9
	movl	$122, %r8d
	leaq	.LC1(%rip), %rcx
	leaq	.LC17(%rip), %rdx
	movl	$2, %esi
	movq	%rbx, %rdi
	movl	$0, %eax
	call	__fprintf_chk@PLT
.LVL247:
	.loc 2 79 10 view .LVU416
.LBE84:
.LBE83:
	.loc 1 122 150 is_stmt 1 discriminator 2 view .LVU417
	call	__asan_handle_no_return@PLT
.LVL248:
	movl	$1, %edi
	call	exit@PLT
.LVL249:
.L319:
	.loc 1 122 32 is_stmt 0 discriminator 1 view .LVU418
	call	__asan_report_load8@PLT
.LVL250:
.L320:
	leaq	.Lubsan_data47(%rip), %rdi
	call	__ubsan_handle_nonnull_arg@PLT
.LVL251:
	jmp	.L296
.L297:
	.loc 1 122 156 discriminator 1 view .LVU419
	movq	%rbx, %rsi
	leaq	.Lubsan_data130(%rip), %rdi
	call	__ubsan_handle_type_mismatch_v1@PLT
.LVL252:
	jmp	.L298
.L321:
	.loc 1 122 156 discriminator 1 view .LVU420
	call	__asan_report_load8@PLT
.LVL253:
.L322:
	call	__asan_report_load8@PLT
.LVL254:
.L323:
	.loc 1 122 156 discriminator 1 view .LVU421
	leaq	.Lubsan_data49(%rip), %rdi
	call	__ubsan_handle_nonnull_arg@PLT
.LVL255:
	jmp	.L301
.LVL256:
.L316:
	.loc 1 124 3 view .LVU422
	call	__asan_report_load8@PLT
.LVL257:
.L317:
	leaq	.Lubsan_data51(%rip), %rdi
	call	__ubsan_handle_nonnull_arg@PLT
.LVL258:
	jmp	.L303
.L304:
	.loc 1 125 14 view .LVU423
	movq	%rbx, %rsi
	leaq	.Lubsan_data131(%rip), %rdi
	call	__ubsan_handle_type_mismatch_v1@PLT
.LVL259:
	jmp	.L305
.L318:
	.loc 1 125 14 view .LVU424
	movq	%rbx, %rdi
	call	__asan_report_load8@PLT
.LVL260:
.L307:
	.loc 1 125 20 view .LVU425
	cmpq	%rdx, %rbx
	jb	.L309
.L308:
	addq	%r12, %rbx
	je	.L310
	testb	$7, %bl
	jne	.L310
.L311:
	movq	%rbx, %rax
	shrq	$3, %rax
	cmpb	$0, 2147450880(%rax)
	jne	.L324
	.loc 1 125 20 discriminator 1 view .LVU426
	movq	(%rbx), %rax
	.loc 1 126 1 view .LVU427
	leaq	-32(%rbp), %rsp
	popq	%rbx
	popq	%r12
	popq	%r13
	popq	%r14
	popq	%rbp
	.cfi_remember_state
	.cfi_def_cfa 7, 8
	ret
.L310:
	.cfi_restore_state
	.loc 1 125 20 view .LVU428
	movq	%rbx, %rsi
	leaq	.Lubsan_data133(%rip), %rdi
	call	__ubsan_handle_type_mismatch_v1@PLT
.LVL261:
	jmp	.L311
.L324:
	movq	%rbx, %rdi
	call	__asan_report_load8@PLT
.LVL262:
	.cfi_endproc
.LFE61:
	.size	array_get, .-array_get
	.globl	array_length
	.type	array_length, @function
array_length:
.LASANPC62:
.LVL263:
.LFB62:
	.loc 1 130 1 is_stmt 1 view -0
	.cfi_startproc
	.loc 1 130 1 is_stmt 0 view .LVU430
	endbr64
	pushq	%rbp
	.cfi_def_cfa_offset 16
	.cfi_offset 6, -16
	movq	%rsp, %rbp
	.cfi_def_cfa_register 6
	pushq	%rbx
	subq	$8, %rsp
	.cfi_offset 3, -24
1:	call	*mcount@GOTPCREL(%rip)
	movq	%rdi, %rbx
	.loc 1 131 3 is_stmt 1 view .LVU431
	.loc 1 131 14 is_stmt 0 view .LVU432
	testq	%rdi, %rdi
	je	.L326
	testb	$7, %dil
	jne	.L326
.LVL264:
.L327:
	.loc 1 131 14 view .LVU433
	leaq	8(%rbx), %rdx
	cmpq	$-8, %rbx
	jnb	.L330
.L328:
	leaq	8(%rbx), %rdi
	movq	%rdi, %rax
	shrq	$3, %rax
	cmpb	$0, 2147450880(%rax)
	jne	.L331
	.loc 1 131 14 discriminator 1 view .LVU434
	movq	8(%rbx), %rax
	.loc 1 132 1 view .LVU435
	movq	-8(%rbp), %rbx
.LVL265:
	.loc 1 132 1 view .LVU436
	leave
	.cfi_remember_state
	.cfi_def_cfa 7, 8
	ret
.LVL266:
.L326:
	.cfi_restore_state
	.loc 1 131 14 view .LVU437
	movq	%rbx, %rsi
	leaq	.Lubsan_data134(%rip), %rdi
	call	__ubsan_handle_type_mismatch_v1@PLT
.LVL267:
	jmp	.L327
.L330:
	.loc 1 131 14 view .LVU438
	movq	%rbx, %rsi
	leaq	.Lubsan_data135(%rip), %rdi
	call	__ubsan_handle_pointer_overflow@PLT
.LVL268:
	jmp	.L328
.L331:
	.loc 1 131 14 view .LVU439
	call	__asan_report_load8@PLT
.LVL269:
	.cfi_endproc
.LFE62:
	.size	array_length, .-array_length
	.section	.rodata
	.align 32
.LC19:
	.string	"\033[1;37m%s:%u\033[0m: \033[1;36mminutiae: \033[0mfreeing array %p\n"
	.zero	39
	.text
	.globl	array_free
	.type	array_free, @function
array_free:
.LASANPC64:
.LVL270:
.LFB64:
	.loc 1 149 1 is_stmt 1 view -0
	.cfi_startproc
	.loc 1 149 1 is_stmt 0 view .LVU441
	endbr64
	pushq	%rbp
	.cfi_def_cfa_offset 16
	.cfi_offset 6, -16
	movq	%rsp, %rbp
	.cfi_def_cfa_register 6
	pushq	%r13
	pushq	%r12
	pushq	%rbx
	subq	$8, %rsp
	.cfi_offset 13, -24
	.cfi_offset 12, -32
	.cfi_offset 3, -40
1:	call	*mcount@GOTPCREL(%rip)
	movq	%rdi, %rbx
	.loc 1 150 3 is_stmt 1 view .LVU442
	.loc 1 150 127 is_stmt 0 view .LVU443
	movl	%edi, %r13d
	.loc 1 150 3 view .LVU444
	leaq	stdout(%rip), %rdi
.LVL271:
	.loc 1 150 3 view .LVU445
	movq	%rdi, %rax
	shrq	$3, %rax
	cmpb	$0, 2147450880(%rax)
	jne	.L338
	movq	stdout(%rip), %r12
	testq	%r12, %r12
	je	.L339
.L334:
.LVL272:
.LBB85:
.LBI85:
	.loc 2 77 1 is_stmt 1 view .LVU446
.LBB86:
	.loc 2 79 3 view .LVU447
	.loc 2 79 10 is_stmt 0 view .LVU448
	movq	%r13, %r9
	movl	$150, %r8d
	leaq	.LC1(%rip), %rcx
	leaq	.LC19(%rip), %rdx
	movl	$2, %esi
	movq	%r12, %rdi
	movl	$0, %eax
	call	__fprintf_chk@PLT
.LVL273:
	.loc 2 79 10 view .LVU449
.LBE86:
.LBE85:
	.loc 1 151 3 is_stmt 1 view .LVU450
	.loc 1 151 34 is_stmt 0 view .LVU451
	testq	%rbx, %rbx
	je	.L335
	testb	$7, %bl
	jne	.L335
.L336:
	movq	%rbx, %rax
	shrq	$3, %rax
	cmpb	$0, 2147450880(%rax)
	jne	.L340
	movq	(%rbx), %rsi
	.loc 1 151 3 view .LVU452
	leaq	__func__.0(%rip), %r12
	movq	%r12, %rdi
	call	__chk_free_impl@PLT
.LVL274:
	.loc 1 152 3 is_stmt 1 view .LVU453
	movq	%rbx, %rsi
	movq	%r12, %rdi
	call	__chk_free_impl@PLT
.LVL275:
	.loc 1 153 1 is_stmt 0 view .LVU454
	addq	$8, %rsp
	popq	%rbx
.LVL276:
	.loc 1 153 1 view .LVU455
	popq	%r12
	popq	%r13
	popq	%rbp
	.cfi_remember_state
	.cfi_def_cfa 7, 8
	ret
.LVL277:
.L338:
	.cfi_restore_state
	.loc 1 150 3 view .LVU456
	call	__asan_report_load8@PLT
.LVL278:
.L339:
	leaq	.Lubsan_data53(%rip), %rdi
	call	__ubsan_handle_nonnull_arg@PLT
.LVL279:
	jmp	.L334
.L335:
	.loc 1 151 34 view .LVU457
	movq	%rbx, %rsi
	leaq	.Lubsan_data136(%rip), %rdi
	call	__ubsan_handle_type_mismatch_v1@PLT
.LVL280:
	jmp	.L336
.L340:
	.loc 1 151 34 view .LVU458
	movq	%rbx, %rdi
	call	__asan_report_load8@PLT
.LVL281:
	.cfi_endproc
.LFE64:
	.size	array_free, .-array_free
	.globl	__asan_stack_malloc_0
	.section	.rodata.str1.1,"aMS",@progbits,1
.LC20:
	.string	"1 32 8 11 cb_free:135"
	.section	.rodata
	.align 32
.LC21:
	.string	"\033[1;37m%s:%u\033[0m: \033[1;36mminutiae: \033[0mfreeing array %p, user provided callback: %p\n"
	.zero	43
	.text
	.globl	array_free_cb
	.type	array_free_cb, @function
array_free_cb:
.LASANPC63:
.LVL282:
.LFB63:
	.loc 1 136 1 is_stmt 1 view -0
	.cfi_startproc
	.loc 1 136 1 is_stmt 0 view .LVU460
	endbr64
	pushq	%rbp
	.cfi_def_cfa_offset 16
	.cfi_offset 6, -16
	movq	%rsp, %rbp
	.cfi_def_cfa_register 6
	pushq	%r15
	pushq	%r14
	pushq	%r13
	pushq	%r12
	pushq	%rbx
	subq	$120, %rsp
	.cfi_offset 15, -24
	.cfi_offset 14, -32
	.cfi_offset 13, -40
	.cfi_offset 12, -48
	.cfi_offset 3, -56
1:	call	*mcount@GOTPCREL(%rip)
	movq	%rdi, %rbx
	movq	%rsi, %r15
	leaq	-144(%rbp), %r13
	movq	%r13, -160(%rbp)
	cmpl	$0, __asan_option_detect_stack_use_after_return(%rip)
	jne	.L351
.LVL283:
.L341:
	.loc 1 136 1 view .LVU461
	leaq	96(%r13), %r12
	movq	$1102416563, 0(%r13)
	leaq	.LC20(%rip), %rax
	movq	%rax, 8(%r13)
	leaq	.LASANPC63(%rip), %rax
	movq	%rax, 16(%r13)
	movq	%r13, %r14
	shrq	$3, %r14
	movl	$-235802127, 2147450880(%r14)
	movl	$-202116352, 2147450884(%r14)
	.loc 1 136 1 view .LVU462
	movq	%fs:40, %rax
	movq	%rax, -56(%rbp)
	xorl	%eax, %eax
	.loc 1 135 52 view .LVU463
	movq	%r15, -64(%r12)
.LVL284:
	.loc 1 137 3 is_stmt 1 view .LVU464
	.loc 1 137 155 is_stmt 0 view .LVU465
	movl	%ebx, %eax
	movq	%rax, -152(%rbp)
	.loc 1 137 3 view .LVU466
	leaq	stdout(%rip), %rdi
	movq	%rdi, %rax
	shrq	$3, %rax
	cmpb	$0, 2147450880(%rax)
	jne	.L352
.LVL285:
	.loc 1 137 3 view .LVU467
	movq	stdout(%rip), %r15
.LVL286:
	.loc 1 137 3 view .LVU468
	testq	%r15, %r15
	je	.L353
.LVL287:
.L346:
.LBB87:
.LBI87:
	.loc 2 77 1 is_stmt 1 view .LVU469
.LBB88:
	.loc 2 79 3 view .LVU470
	.loc 2 79 10 is_stmt 0 view .LVU471
	subq	$8, %rsp
	leaq	-64(%r12), %rax
	pushq	%rax
	movq	-152(%rbp), %r9
	movl	$137, %r8d
	leaq	.LC1(%rip), %rcx
	leaq	.LC21(%rip), %rdx
	movl	$2, %esi
	movq	%r15, %rdi
	movl	$0, %eax
	call	__fprintf_chk@PLT
.LVL288:
	.loc 2 79 10 view .LVU472
.LBE88:
.LBE87:
	.loc 1 139 3 is_stmt 1 view .LVU473
	.loc 1 139 6 is_stmt 0 view .LVU474
	addq	$16, %rsp
	cmpq	$0, -64(%r12)
	je	.L347
.LBB89:
	.loc 1 141 27 discriminator 1 view .LVU475
	movl	$0, %r15d
	jmp	.L348
.LVL289:
.L351:
	.loc 1 141 27 discriminator 1 view .LVU476
.LBE89:
	.loc 1 136 1 view .LVU477
	movl	$64, %edi
	call	__asan_stack_malloc_0@PLT
.LVL290:
	.loc 1 136 1 view .LVU478
	testq	%rax, %rax
	je	.L341
	movq	%rax, %r13
	jmp	.L341
.L352:
	.loc 1 137 3 view .LVU479
	call	__asan_report_load8@PLT
.LVL291:
.L353:
	.loc 1 137 3 view .LVU480
	leaq	.Lubsan_data55(%rip), %rdi
	call	__ubsan_handle_nonnull_arg@PLT
.LVL292:
	.loc 1 137 3 view .LVU481
	jmp	.L346
.LVL293:
.L349:
.LBB90:
	.loc 1 142 5 is_stmt 1 view .LVU482
	call	*-64(%r12)
.LVL294:
	.loc 1 141 91 discriminator 4 view .LVU483
	addq	$1, %r15
.LVL295:
.L348:
	.loc 1 141 58 discriminator 1 view .LVU484
	.loc 1 141 38 is_stmt 0 discriminator 1 view .LVU485
	movq	%rbx, %rdi
	call	array_length
.LVL296:
	.loc 1 141 58 discriminator 1 view .LVU486
	cmpq	%rax, %r15
	jnb	.L347
	.loc 1 141 69 discriminator 3 view .LVU487
	movq	%r15, %rsi
	movq	%rbx, %rdi
	call	array_get
.LVL297:
	movq	%rax, %rdi
.LVL298:
	.loc 1 141 58 discriminator 1 view .LVU488
	testq	%rax, %rax
	jne	.L349
.LVL299:
.L347:
	.loc 1 141 58 discriminator 1 view .LVU489
.LBE90:
	.loc 1 144 3 view .LVU490
	movq	%rbx, %rdi
	call	array_free
.LVL300:
	.loc 1 136 1 view .LVU491
	cmpq	%r13, -160(%rbp)
	jne	.L354
	movq	$0, 2147450880(%r14)
.L343:
	.loc 1 145 1 view .LVU492
	movq	-56(%rbp), %rax
	subq	%fs:40, %rax
	jne	.L355
	leaq	-40(%rbp), %rsp
	popq	%rbx
.LVL301:
	.loc 1 145 1 view .LVU493
	popq	%r12
	popq	%r13
	popq	%r14
	popq	%r15
	popq	%rbp
	.cfi_remember_state
	.cfi_def_cfa 7, 8
	ret
.LVL302:
.L354:
	.cfi_restore_state
	.loc 1 136 1 view .LVU494
	movq	$1172321806, 0(%r13)
	movabsq	$-723401728380766731, %rax
	movq	%rax, 2147450880(%r14)
	movq	56(%r13), %rax
	movb	$0, (%rax)
	jmp	.L343
.L355:
	.loc 1 145 1 view .LVU495
	call	__stack_chk_fail@PLT
.LVL303:
	.cfi_endproc
.LFE63:
	.size	array_free_cb, .-array_free_cb
	.section	.data.rel.local,"aw"
	.align 32
	.type	.Lubsan_data136, @object
	.size	.Lubsan_data136, 32
.Lubsan_data136:
	.quad	.LC1
	.long	151
	.long	34
	.quad	.Lubsan_type1
	.byte	3
	.byte	3
	.zero	6
	.zero	32
	.align 32
	.type	.Lubsan_data135, @object
	.size	.Lubsan_data135, 16
.Lubsan_data135:
	.quad	.LC1
	.long	131
	.long	14
	.zero	48
	.align 32
	.type	.Lubsan_data134, @object
	.size	.Lubsan_data134, 32
.Lubsan_data134:
	.quad	.LC1
	.long	131
	.long	14
	.quad	.Lubsan_type1
	.byte	3
	.byte	3
	.zero	6
	.zero	32
	.align 32
	.type	.Lubsan_data133, @object
	.size	.Lubsan_data133, 32
.Lubsan_data133:
	.quad	.LC1
	.long	125
	.long	20
	.quad	.Lubsan_type2
	.byte	3
	.byte	0
	.zero	6
	.zero	32
	.align 32
	.type	.Lubsan_data132, @object
	.size	.Lubsan_data132, 16
.Lubsan_data132:
	.quad	.LC1
	.long	125
	.long	20
	.zero	48
	.align 32
	.type	.Lubsan_data131, @object
	.size	.Lubsan_data131, 32
.Lubsan_data131:
	.quad	.LC1
	.long	125
	.long	14
	.quad	.Lubsan_type1
	.byte	3
	.byte	3
	.zero	6
	.zero	32
	.align 32
	.type	.Lubsan_data130, @object
	.size	.Lubsan_data130, 32
.Lubsan_data130:
	.quad	.LC1
	.long	122
	.long	156
	.quad	.Lubsan_type1
	.byte	3
	.byte	3
	.zero	6
	.zero	32
	.align 32
	.type	.Lubsan_data129, @object
	.size	.Lubsan_data129, 16
.Lubsan_data129:
	.quad	.LC1
	.long	122
	.long	19
	.zero	48
	.align 32
	.type	.Lubsan_data128, @object
	.size	.Lubsan_data128, 32
.Lubsan_data128:
	.quad	.LC1
	.long	122
	.long	19
	.quad	.Lubsan_type1
	.byte	3
	.byte	3
	.zero	6
	.zero	32
	.align 32
	.type	.Lubsan_data127, @object
	.size	.Lubsan_data127, 16
.Lubsan_data127:
	.quad	.LC1
	.long	114
	.long	3
	.zero	48
	.align 32
	.type	.Lubsan_data126, @object
	.size	.Lubsan_data126, 32
.Lubsan_data126:
	.quad	.LC1
	.long	114
	.long	3
	.quad	.Lubsan_type1
	.byte	3
	.byte	3
	.zero	6
	.zero	32
	.align 32
	.type	.Lubsan_data125, @object
	.size	.Lubsan_data125, 16
.Lubsan_data125:
	.quad	.LC1
	.long	108
	.long	10
	.zero	48
	.align 32
	.type	.Lubsan_data124, @object
	.size	.Lubsan_data124, 32
.Lubsan_data124:
	.quad	.LC1
	.long	108
	.long	10
	.quad	.Lubsan_type1
	.byte	3
	.byte	3
	.zero	6
	.zero	32
	.align 32
	.type	.Lubsan_data123, @object
	.size	.Lubsan_data123, 32
.Lubsan_data123:
	.quad	.LC1
	.long	99
	.long	15
	.quad	.Lubsan_type1
	.byte	3
	.byte	3
	.zero	6
	.zero	32
	.align 32
	.type	.Lubsan_data122, @object
	.size	.Lubsan_data122, 32
.Lubsan_data122:
	.quad	.LC1
	.long	99
	.long	7
	.quad	.Lubsan_type1
	.byte	3
	.byte	3
	.zero	6
	.zero	32
	.align 32
	.type	.Lubsan_data121, @object
	.size	.Lubsan_data121, 16
.Lubsan_data121:
	.quad	.LC1
	.long	96
	.long	12
	.zero	48
	.align 32
	.type	.Lubsan_data120, @object
	.size	.Lubsan_data120, 32
.Lubsan_data120:
	.quad	.LC1
	.long	96
	.long	17
	.quad	.Lubsan_type1
	.byte	3
	.byte	3
	.zero	6
	.zero	32
	.align 32
	.type	.Lubsan_data119, @object
	.size	.Lubsan_data119, 16
.Lubsan_data119:
	.quad	.LC1
	.long	96
	.long	30
	.zero	48
	.align 32
	.type	.Lubsan_data118, @object
	.size	.Lubsan_data118, 32
.Lubsan_data118:
	.quad	.LC1
	.long	96
	.long	35
	.quad	.Lubsan_type1
	.byte	3
	.byte	3
	.zero	6
	.zero	32
	.align 32
	.type	.Lubsan_data117, @object
	.size	.Lubsan_data117, 32
.Lubsan_data117:
	.quad	.LC1
	.long	96
	.long	76
	.quad	.Lubsan_type1
	.byte	3
	.byte	3
	.zero	6
	.zero	32
	.align 32
	.type	.Lubsan_data116, @object
	.size	.Lubsan_data116, 32
.Lubsan_data116:
	.quad	.LC1
	.long	95
	.long	29
	.quad	.Lubsan_type2
	.byte	3
	.byte	0
	.zero	6
	.zero	32
	.align 32
	.type	.Lubsan_data115, @object
	.size	.Lubsan_data115, 16
.Lubsan_data115:
	.quad	.LC1
	.long	95
	.long	45
	.zero	48
	.align 32
	.type	.Lubsan_data114, @object
	.size	.Lubsan_data114, 32
.Lubsan_data114:
	.quad	.LC1
	.long	95
	.long	39
	.quad	.Lubsan_type1
	.byte	3
	.byte	3
	.zero	6
	.zero	32
	.align 32
	.type	.Lubsan_data113, @object
	.size	.Lubsan_data113, 32
.Lubsan_data113:
	.quad	.LC1
	.long	91
	.long	33
	.quad	.Lubsan_type2
	.byte	3
	.byte	0
	.zero	6
	.zero	32
	.align 32
	.type	.Lubsan_data112, @object
	.size	.Lubsan_data112, 16
.Lubsan_data112:
	.quad	.LC1
	.long	91
	.long	49
	.zero	48
	.align 32
	.type	.Lubsan_data111, @object
	.size	.Lubsan_data111, 32
.Lubsan_data111:
	.quad	.LC1
	.long	91
	.long	56
	.quad	.Lubsan_type1
	.byte	3
	.byte	3
	.zero	6
	.zero	32
	.align 32
	.type	.Lubsan_data110, @object
	.size	.Lubsan_data110, 32
.Lubsan_data110:
	.quad	.LC1
	.long	91
	.long	33
	.quad	.Lubsan_type1
	.byte	3
	.byte	3
	.zero	6
	.zero	32
	.align 32
	.type	.Lubsan_data109, @object
	.size	.Lubsan_data109, 32
.Lubsan_data109:
	.quad	.LC1
	.long	91
	.long	56
	.quad	.Lubsan_type1
	.byte	3
	.byte	3
	.zero	6
	.zero	32
	.align 32
	.type	.Lubsan_data108, @object
	.size	.Lubsan_data108, 32
.Lubsan_data108:
	.quad	.LC1
	.long	91
	.long	43
	.quad	.Lubsan_type1
	.byte	3
	.byte	3
	.zero	6
	.zero	32
	.align 32
	.type	.Lubsan_data107, @object
	.size	.Lubsan_data107, 32
.Lubsan_data107:
	.quad	.LC1
	.long	89
	.long	18
	.quad	.Lubsan_type1
	.byte	3
	.byte	3
	.zero	6
	.zero	32
	.align 32
	.type	.Lubsan_data106, @object
	.size	.Lubsan_data106, 16
.Lubsan_data106:
	.quad	.LC1
	.long	88
	.long	13
	.zero	48
	.align 32
	.type	.Lubsan_data105, @object
	.size	.Lubsan_data105, 32
.Lubsan_data105:
	.quad	.LC1
	.long	88
	.long	13
	.quad	.Lubsan_type1
	.byte	3
	.byte	3
	.zero	6
	.zero	32
	.align 32
	.type	.Lubsan_data104, @object
	.size	.Lubsan_data104, 32
.Lubsan_data104:
	.quad	.LC1
	.long	79
	.long	15
	.quad	.Lubsan_type1
	.byte	3
	.byte	3
	.zero	6
	.zero	32
	.align 32
	.type	.Lubsan_data103, @object
	.size	.Lubsan_data103, 32
.Lubsan_data103:
	.quad	.LC1
	.long	79
	.long	7
	.quad	.Lubsan_type1
	.byte	3
	.byte	3
	.zero	6
	.zero	32
	.align 32
	.type	.Lubsan_data102, @object
	.size	.Lubsan_data102, 32
.Lubsan_data102:
	.quad	.LC1
	.long	78
	.long	19
	.quad	.Lubsan_type2
	.byte	3
	.byte	1
	.zero	6
	.zero	32
	.align 32
	.type	.Lubsan_data101, @object
	.size	.Lubsan_data101, 16
.Lubsan_data101:
	.quad	.LC1
	.long	78
	.long	13
	.zero	48
	.align 32
	.type	.Lubsan_data100, @object
	.size	.Lubsan_data100, 32
.Lubsan_data100:
	.quad	.LC1
	.long	78
	.long	7
	.quad	.Lubsan_type1
	.byte	3
	.byte	3
	.zero	6
	.zero	32
	.align 32
	.type	.Lubsan_data99, @object
	.size	.Lubsan_data99, 16
.Lubsan_data99:
	.quad	.LC1
	.long	77
	.long	12
	.zero	48
	.align 32
	.type	.Lubsan_data98, @object
	.size	.Lubsan_data98, 32
.Lubsan_data98:
	.quad	.LC1
	.long	77
	.long	17
	.quad	.Lubsan_type1
	.byte	3
	.byte	3
	.zero	6
	.zero	32
	.align 32
	.type	.Lubsan_data97, @object
	.size	.Lubsan_data97, 16
.Lubsan_data97:
	.quad	.LC1
	.long	77
	.long	34
	.zero	48
	.align 32
	.type	.Lubsan_data96, @object
	.size	.Lubsan_data96, 32
.Lubsan_data96:
	.quad	.LC1
	.long	77
	.long	39
	.quad	.Lubsan_type1
	.byte	3
	.byte	3
	.zero	6
	.zero	32
	.align 32
	.type	.Lubsan_data95, @object
	.size	.Lubsan_data95, 32
.Lubsan_data95:
	.quad	.LC1
	.long	77
	.long	76
	.quad	.Lubsan_type1
	.byte	3
	.byte	3
	.zero	6
	.zero	32
	.align 32
	.type	.Lubsan_data94, @object
	.size	.Lubsan_data94, 32
.Lubsan_data94:
	.quad	.LC1
	.long	74
	.long	34
	.quad	.Lubsan_type2
	.byte	3
	.byte	1
	.zero	6
	.zero	32
	.data
	.align 32
	.type	.Lubsan_type2, @object
	.size	.Lubsan_type2, 13
.Lubsan_type2:
	.value	-1
	.value	0
	.string	"'void *'"
	.zero	51
	.section	.data.rel.local
	.align 32
	.type	.Lubsan_data93, @object
	.size	.Lubsan_data93, 16
.Lubsan_data93:
	.quad	.LC1
	.long	74
	.long	17
	.zero	48
	.align 32
	.type	.Lubsan_data92, @object
	.size	.Lubsan_data92, 32
.Lubsan_data92:
	.quad	.LC1
	.long	74
	.long	30
	.quad	.Lubsan_type1
	.byte	3
	.byte	3
	.zero	6
	.zero	32
	.align 32
	.type	.Lubsan_data91, @object
	.size	.Lubsan_data91, 32
.Lubsan_data91:
	.quad	.LC1
	.long	74
	.long	22
	.quad	.Lubsan_type1
	.byte	3
	.byte	3
	.zero	6
	.zero	32
	.align 32
	.type	.Lubsan_data90, @object
	.size	.Lubsan_data90, 32
.Lubsan_data90:
	.quad	.LC1
	.long	74
	.long	11
	.quad	.Lubsan_type1
	.byte	3
	.byte	3
	.zero	6
	.zero	32
	.align 32
	.type	.Lubsan_data89, @object
	.size	.Lubsan_data89, 32
.Lubsan_data89:
	.quad	.LC1
	.long	72
	.long	18
	.quad	.Lubsan_type1
	.byte	3
	.byte	3
	.zero	6
	.zero	32
	.align 32
	.type	.Lubsan_data88, @object
	.size	.Lubsan_data88, 16
.Lubsan_data88:
	.quad	.LC1
	.long	70
	.long	27
	.zero	48
	.align 32
	.type	.Lubsan_data87, @object
	.size	.Lubsan_data87, 32
.Lubsan_data87:
	.quad	.LC1
	.long	70
	.long	27
	.quad	.Lubsan_type1
	.byte	3
	.byte	3
	.zero	6
	.zero	32
	.align 32
	.type	.Lubsan_data86, @object
	.size	.Lubsan_data86, 16
.Lubsan_data86:
	.quad	.LC1
	.long	70
	.long	11
	.zero	48
	.align 32
	.type	.Lubsan_data85, @object
	.size	.Lubsan_data85, 32
.Lubsan_data85:
	.quad	.LC1
	.long	70
	.long	11
	.quad	.Lubsan_type1
	.byte	3
	.byte	3
	.zero	6
	.zero	32
	.align 32
	.type	.Lubsan_data84, @object
	.size	.Lubsan_data84, 16
.Lubsan_data84:
	.quad	.LC1
	.long	63
	.long	19
	.zero	48
	.align 32
	.type	.Lubsan_data83, @object
	.size	.Lubsan_data83, 32
.Lubsan_data83:
	.quad	.LC1
	.long	63
	.long	19
	.quad	.Lubsan_type1
	.byte	3
	.byte	3
	.zero	6
	.zero	32
	.align 32
	.type	.Lubsan_data82, @object
	.size	.Lubsan_data82, 32
.Lubsan_data82:
	.quad	.LC1
	.long	60
	.long	15
	.quad	.Lubsan_type1
	.byte	3
	.byte	3
	.zero	6
	.zero	32
	.align 32
	.type	.Lubsan_data81, @object
	.size	.Lubsan_data81, 32
.Lubsan_data81:
	.quad	.LC1
	.long	43
	.long	20
	.quad	.Lubsan_type1
	.byte	3
	.byte	3
	.zero	6
	.zero	32
	.align 32
	.type	.Lubsan_data80, @object
	.size	.Lubsan_data80, 32
.Lubsan_data80:
	.quad	.LC1
	.long	43
	.long	9
	.quad	.Lubsan_type1
	.byte	3
	.byte	3
	.zero	6
	.zero	32
	.align 32
	.type	.Lubsan_data79, @object
	.size	.Lubsan_data79, 32
.Lubsan_data79:
	.quad	.LC1
	.long	40
	.long	197
	.quad	.Lubsan_type1
	.byte	3
	.byte	3
	.zero	6
	.zero	32
	.align 32
	.type	.Lubsan_data78, @object
	.size	.Lubsan_data78, 32
.Lubsan_data78:
	.quad	.LC1
	.long	40
	.long	232
	.quad	.Lubsan_type1
	.byte	3
	.byte	3
	.zero	6
	.zero	32
	.align 32
	.type	.Lubsan_data77, @object
	.size	.Lubsan_data77, 32
.Lubsan_data77:
	.quad	.LC1
	.long	39
	.long	16
	.quad	.Lubsan_type1
	.byte	3
	.byte	3
	.zero	6
	.zero	32
	.align 32
	.type	.Lubsan_data76, @object
	.size	.Lubsan_data76, 32
.Lubsan_data76:
	.quad	.LC1
	.long	39
	.long	53
	.quad	.Lubsan_type1
	.byte	3
	.byte	3
	.zero	6
	.zero	32
	.align 32
	.type	.Lubsan_data75, @object
	.size	.Lubsan_data75, 32
.Lubsan_data75:
	.quad	.LC1
	.long	39
	.long	67
	.quad	.Lubsan_type1
	.byte	3
	.byte	3
	.zero	6
	.zero	32
	.align 32
	.type	.Lubsan_data74, @object
	.size	.Lubsan_data74, 16
.Lubsan_data74:
	.quad	.LC1
	.long	37
	.long	31
	.zero	48
	.align 32
	.type	.Lubsan_data73, @object
	.size	.Lubsan_data73, 32
.Lubsan_data73:
	.quad	.LC1
	.long	37
	.long	31
	.quad	.Lubsan_type1
	.byte	3
	.byte	3
	.zero	6
	.zero	32
	.align 32
	.type	.Lubsan_data72, @object
	.size	.Lubsan_data72, 16
.Lubsan_data72:
	.quad	.LC1
	.long	37
	.long	15
	.zero	48
	.align 32
	.type	.Lubsan_data71, @object
	.size	.Lubsan_data71, 32
.Lubsan_data71:
	.quad	.LC1
	.long	37
	.long	15
	.quad	.Lubsan_type1
	.byte	3
	.byte	3
	.zero	6
	.zero	32
	.align 32
	.type	.Lubsan_data70, @object
	.size	.Lubsan_data70, 32
.Lubsan_data70:
	.quad	.LC1
	.long	30
	.long	18
	.quad	.Lubsan_type1
	.byte	3
	.byte	3
	.zero	6
	.zero	32
	.align 32
	.type	.Lubsan_data69, @object
	.size	.Lubsan_data69, 32
.Lubsan_data69:
	.quad	.LC1
	.long	30
	.long	7
	.quad	.Lubsan_type1
	.byte	3
	.byte	3
	.zero	6
	.zero	32
	.align 32
	.type	.Lubsan_data68, @object
	.size	.Lubsan_data68, 32
.Lubsan_data68:
	.quad	.LC1
	.long	28
	.long	193
	.quad	.Lubsan_type1
	.byte	3
	.byte	3
	.zero	6
	.zero	32
	.align 32
	.type	.Lubsan_data67, @object
	.size	.Lubsan_data67, 32
.Lubsan_data67:
	.quad	.LC1
	.long	28
	.long	232
	.quad	.Lubsan_type1
	.byte	3
	.byte	3
	.zero	6
	.zero	32
	.align 32
	.type	.Lubsan_data66, @object
	.size	.Lubsan_data66, 32
.Lubsan_data66:
	.quad	.LC1
	.long	27
	.long	14
	.quad	.Lubsan_type1
	.byte	3
	.byte	3
	.zero	6
	.zero	32
	.align 32
	.type	.Lubsan_data65, @object
	.size	.Lubsan_data65, 32
.Lubsan_data65:
	.quad	.LC1
	.long	27
	.long	51
	.quad	.Lubsan_type1
	.byte	3
	.byte	3
	.zero	6
	.zero	32
	.align 32
	.type	.Lubsan_data64, @object
	.size	.Lubsan_data64, 32
.Lubsan_data64:
	.quad	.LC1
	.long	27
	.long	69
	.quad	.Lubsan_type1
	.byte	3
	.byte	3
	.zero	6
	.zero	32
	.align 32
	.type	.Lubsan_data63, @object
	.size	.Lubsan_data63, 16
.Lubsan_data63:
	.quad	.LC1
	.long	26
	.long	29
	.zero	48
	.align 32
	.type	.Lubsan_data62, @object
	.size	.Lubsan_data62, 32
.Lubsan_data62:
	.quad	.LC1
	.long	26
	.long	29
	.quad	.Lubsan_type1
	.byte	3
	.byte	3
	.zero	6
	.zero	32
	.align 32
	.type	.Lubsan_data61, @object
	.size	.Lubsan_data61, 16
.Lubsan_data61:
	.quad	.LC1
	.long	26
	.long	13
	.zero	48
	.align 32
	.type	.Lubsan_data60, @object
	.size	.Lubsan_data60, 32
.Lubsan_data60:
	.quad	.LC1
	.long	26
	.long	13
	.quad	.Lubsan_type1
	.byte	3
	.byte	3
	.zero	6
	.zero	32
	.data
	.align 32
	.type	.Lubsan_type1, @object
	.size	.Lubsan_type1, 24
.Lubsan_type1:
	.value	-1
	.value	0
	.string	"'struct array_impl'"
	.zero	40
	.section	.data.rel.local
	.align 32
	.type	.Lubsan_data55, @object
	.size	.Lubsan_data55, 40
.Lubsan_data55:
	.quad	.LC1
	.long	137
	.long	3
	.quad	0
	.long	0
	.long	0
	.long	1
	.zero	4
	.zero	56
	.align 32
	.type	.Lubsan_data53, @object
	.size	.Lubsan_data53, 40
.Lubsan_data53:
	.quad	.LC1
	.long	150
	.long	3
	.quad	0
	.long	0
	.long	0
	.long	1
	.zero	4
	.zero	56
	.align 32
	.type	.Lubsan_data51, @object
	.size	.Lubsan_data51, 40
.Lubsan_data51:
	.quad	.LC1
	.long	124
	.long	3
	.quad	0
	.long	0
	.long	0
	.long	1
	.zero	4
	.zero	56
	.align 32
	.type	.Lubsan_data49, @object
	.size	.Lubsan_data49, 40
.Lubsan_data49:
	.quad	.LC1
	.long	122
	.long	156
	.quad	0
	.long	0
	.long	0
	.long	1
	.zero	4
	.zero	56
	.align 32
	.type	.Lubsan_data47, @object
	.size	.Lubsan_data47, 40
.Lubsan_data47:
	.quad	.LC1
	.long	122
	.long	32
	.quad	0
	.long	0
	.long	0
	.long	1
	.zero	4
	.zero	56
	.align 32
	.type	.Lubsan_data45, @object
	.size	.Lubsan_data45, 40
.Lubsan_data45:
	.quad	.LC1
	.long	115
	.long	3
	.quad	0
	.long	0
	.long	0
	.long	1
	.zero	4
	.zero	56
	.align 32
	.type	.Lubsan_data41, @object
	.size	.Lubsan_data41, 40
.Lubsan_data41:
	.quad	.LC1
	.long	107
	.long	3
	.quad	0
	.long	0
	.long	0
	.long	1
	.zero	4
	.zero	56
	.align 32
	.type	.Lubsan_data39, @object
	.size	.Lubsan_data39, 40
.Lubsan_data39:
	.quad	.LC1
	.long	97
	.long	3
	.quad	0
	.long	0
	.long	0
	.long	1
	.zero	4
	.zero	56
	.align 32
	.type	.Lubsan_data38, @object
	.size	.Lubsan_data38, 40
.Lubsan_data38:
	.quad	.LC1
	.long	96
	.long	3
	.quad	0
	.long	0
	.long	0
	.long	2
	.zero	4
	.zero	56
	.align 32
	.type	.Lubsan_data37, @object
	.size	.Lubsan_data37, 40
.Lubsan_data37:
	.quad	.LC1
	.long	96
	.long	3
	.quad	0
	.long	0
	.long	0
	.long	1
	.zero	4
	.zero	56
	.align 32
	.type	.Lubsan_data35, @object
	.size	.Lubsan_data35, 40
.Lubsan_data35:
	.quad	.LC1
	.long	88
	.long	153
	.quad	0
	.long	0
	.long	0
	.long	1
	.zero	4
	.zero	56
	.align 32
	.type	.Lubsan_data33, @object
	.size	.Lubsan_data33, 40
.Lubsan_data33:
	.quad	.LC1
	.long	88
	.long	30
	.quad	0
	.long	0
	.long	0
	.long	1
	.zero	4
	.zero	56
	.align 32
	.type	.Lubsan_data31, @object
	.size	.Lubsan_data31, 40
.Lubsan_data31:
	.quad	.LC1
	.long	80
	.long	3
	.quad	0
	.long	0
	.long	0
	.long	1
	.zero	4
	.zero	56
	.align 32
	.type	.Lubsan_data30, @object
	.size	.Lubsan_data30, 40
.Lubsan_data30:
	.quad	.LC1
	.long	77
	.long	3
	.quad	0
	.long	0
	.long	0
	.long	2
	.zero	4
	.zero	56
	.align 32
	.type	.Lubsan_data29, @object
	.size	.Lubsan_data29, 40
.Lubsan_data29:
	.quad	.LC1
	.long	77
	.long	3
	.quad	0
	.long	0
	.long	0
	.long	1
	.zero	4
	.zero	56
	.align 32
	.type	.Lubsan_data27, @object
	.size	.Lubsan_data27, 40
.Lubsan_data27:
	.quad	.LC1
	.long	52
	.long	3
	.quad	0
	.long	0
	.long	0
	.long	1
	.zero	4
	.zero	56
	.align 32
	.type	.Lubsan_data25, @object
	.size	.Lubsan_data25, 40
.Lubsan_data25:
	.quad	.LC1
	.long	61
	.long	3
	.quad	0
	.long	0
	.long	0
	.long	1
	.zero	4
	.zero	56
	.align 32
	.type	.Lubsan_data23, @object
	.size	.Lubsan_data23, 40
.Lubsan_data23:
	.quad	.LC1
	.long	40
	.long	5
	.quad	0
	.long	0
	.long	0
	.long	1
	.zero	4
	.zero	56
	.align 32
	.type	.Lubsan_data21, @object
	.size	.Lubsan_data21, 40
.Lubsan_data21:
	.quad	.LC1
	.long	37
	.long	173
	.quad	0
	.long	0
	.long	0
	.long	1
	.zero	4
	.zero	56
	.align 32
	.type	.Lubsan_data19, @object
	.size	.Lubsan_data19, 40
.Lubsan_data19:
	.quad	.LC1
	.long	37
	.long	50
	.quad	0
	.long	0
	.long	0
	.long	1
	.zero	4
	.zero	56
	.align 32
	.type	.Lubsan_data17, @object
	.size	.Lubsan_data17, 40
.Lubsan_data17:
	.quad	.LC1
	.long	28
	.long	3
	.quad	0
	.long	0
	.long	0
	.long	1
	.zero	4
	.zero	56
	.align 32
	.type	.Lubsan_data15, @object
	.size	.Lubsan_data15, 40
.Lubsan_data15:
	.quad	.LC1
	.long	26
	.long	167
	.quad	0
	.long	0
	.long	0
	.long	1
	.zero	4
	.zero	56
	.align 32
	.type	.Lubsan_data13, @object
	.size	.Lubsan_data13, 40
.Lubsan_data13:
	.quad	.LC1
	.long	26
	.long	44
	.quad	0
	.long	0
	.long	0
	.long	1
	.zero	4
	.zero	56
	.section	.rodata
	.align 32
	.type	__func__.0, @object
	.size	__func__.0, 11
__func__.0:
	.string	"array_free"
	.zero	53
	.align 32
	.type	__func__.1, @object
	.size	__func__.1, 16
__func__.1:
	.string	"array_new_sized"
	.zero	48
	.align 32
	.type	__func__.2, @object
	.size	__func__.2, 20
__func__.2:
	.string	"array_impl_downsize"
	.zero	44
	.align 32
	.type	__func__.3, @object
	.size	__func__.3, 18
__func__.3:
	.string	"array_impl_resize"
	.zero	46
	.section	.data.rel.local
	.align 16
	.type	.LASANLOC1, @object
	.size	.LASANLOC1, 16
.LASANLOC1:
	.quad	.LC1
	.long	151
	.long	20
	.align 16
	.type	.LASANLOC2, @object
	.size	.LASANLOC2, 16
.LASANLOC2:
	.quad	.LC1
	.long	59
	.long	38
	.align 16
	.type	.LASANLOC3, @object
	.size	.LASANLOC3, 16
.LASANLOC3:
	.quad	.LC1
	.long	39
	.long	38
	.align 16
	.type	.LASANLOC4, @object
	.size	.LASANLOC4, 16
.LASANLOC4:
	.quad	.LC1
	.long	27
	.long	36
	.section	.rodata.str1.1
.LC22:
	.string	"*.Lubsan_data136"
.LC23:
	.string	"*.Lubsan_data135"
.LC24:
	.string	"*.Lubsan_data134"
.LC25:
	.string	"*.Lubsan_data133"
.LC26:
	.string	"*.Lubsan_data132"
.LC27:
	.string	"*.Lubsan_data131"
.LC28:
	.string	"*.Lubsan_data130"
.LC29:
	.string	"*.Lubsan_data129"
.LC30:
	.string	"*.Lubsan_data128"
.LC31:
	.string	"*.Lubsan_data127"
.LC32:
	.string	"*.Lubsan_data126"
.LC33:
	.string	"*.Lubsan_data125"
.LC34:
	.string	"*.Lubsan_data124"
.LC35:
	.string	"*.Lubsan_data123"
.LC36:
	.string	"*.Lubsan_data122"
.LC37:
	.string	"*.Lubsan_data121"
.LC38:
	.string	"*.Lubsan_data120"
.LC39:
	.string	"*.Lubsan_data119"
.LC40:
	.string	"*.Lubsan_data118"
.LC41:
	.string	"*.Lubsan_data117"
.LC42:
	.string	"*.Lubsan_data116"
.LC43:
	.string	"*.Lubsan_data115"
.LC44:
	.string	"*.Lubsan_data114"
.LC45:
	.string	"*.Lubsan_data113"
.LC46:
	.string	"*.Lubsan_data112"
.LC47:
	.string	"*.Lubsan_data111"
.LC48:
	.string	"*.Lubsan_data110"
.LC49:
	.string	"*.Lubsan_data109"
.LC50:
	.string	"*.Lubsan_data108"
.LC51:
	.string	"*.Lubsan_data107"
.LC52:
	.string	"*.Lubsan_data106"
.LC53:
	.string	"*.Lubsan_data105"
.LC54:
	.string	"*.Lubsan_data104"
.LC55:
	.string	"*.Lubsan_data103"
.LC56:
	.string	"*.Lubsan_data102"
.LC57:
	.string	"*.Lubsan_data101"
.LC58:
	.string	"*.Lubsan_data100"
.LC59:
	.string	"*.Lubsan_data99"
.LC60:
	.string	"*.Lubsan_data98"
.LC61:
	.string	"*.Lubsan_data97"
.LC62:
	.string	"*.Lubsan_data96"
.LC63:
	.string	"*.Lubsan_data95"
.LC64:
	.string	"*.Lubsan_data94"
.LC65:
	.string	"*.Lubsan_type2"
.LC66:
	.string	"*.Lubsan_data93"
.LC67:
	.string	"*.Lubsan_data92"
.LC68:
	.string	"*.Lubsan_data91"
.LC69:
	.string	"*.Lubsan_data90"
.LC70:
	.string	"*.Lubsan_data89"
.LC71:
	.string	"*.Lubsan_data88"
.LC72:
	.string	"*.Lubsan_data87"
.LC73:
	.string	"*.Lubsan_data86"
.LC74:
	.string	"*.Lubsan_data85"
.LC75:
	.string	"*.Lubsan_data84"
.LC76:
	.string	"*.Lubsan_data83"
.LC77:
	.string	"*.Lubsan_data82"
.LC78:
	.string	"*.Lubsan_data81"
.LC79:
	.string	"*.Lubsan_data80"
.LC80:
	.string	"*.Lubsan_data79"
.LC81:
	.string	"*.Lubsan_data78"
.LC82:
	.string	"*.Lubsan_data77"
.LC83:
	.string	"*.Lubsan_data76"
.LC84:
	.string	"*.Lubsan_data75"
.LC85:
	.string	"*.Lubsan_data74"
.LC86:
	.string	"*.Lubsan_data73"
.LC87:
	.string	"*.Lubsan_data72"
.LC88:
	.string	"*.Lubsan_data71"
.LC89:
	.string	"*.Lubsan_data70"
.LC90:
	.string	"*.Lubsan_data69"
.LC91:
	.string	"*.Lubsan_data68"
.LC92:
	.string	"*.Lubsan_data67"
.LC93:
	.string	"*.Lubsan_data66"
.LC94:
	.string	"*.Lubsan_data65"
.LC95:
	.string	"*.Lubsan_data64"
.LC96:
	.string	"*.Lubsan_data63"
.LC97:
	.string	"*.Lubsan_data62"
.LC98:
	.string	"*.Lubsan_data61"
.LC99:
	.string	"*.Lubsan_data60"
.LC100:
	.string	"*.Lubsan_type1"
.LC101:
	.string	"*.Lubsan_data55"
.LC102:
	.string	"*.Lubsan_data53"
.LC103:
	.string	"*.Lubsan_data51"
.LC104:
	.string	"*.Lubsan_data49"
.LC105:
	.string	"*.Lubsan_data47"
.LC106:
	.string	"*.Lubsan_data45"
.LC107:
	.string	"*.Lubsan_data41"
.LC108:
	.string	"*.Lubsan_data39"
.LC109:
	.string	"*.Lubsan_data38"
.LC110:
	.string	"*.Lubsan_data37"
.LC111:
	.string	"*.Lubsan_data35"
.LC112:
	.string	"*.Lubsan_data33"
.LC113:
	.string	"*.Lubsan_data31"
.LC114:
	.string	"*.Lubsan_data30"
.LC115:
	.string	"*.Lubsan_data29"
.LC116:
	.string	"*.Lubsan_data27"
.LC117:
	.string	"*.Lubsan_data25"
.LC118:
	.string	"*.Lubsan_data23"
.LC119:
	.string	"*.Lubsan_data21"
.LC120:
	.string	"*.Lubsan_data19"
.LC121:
	.string	"*.Lubsan_data17"
.LC122:
	.string	"*.Lubsan_data15"
.LC123:
	.string	"*.Lubsan_data13"
.LC124:
	.string	"__func__"
.LC125:
	.string	"*.LC3"
.LC126:
	.string	"*.LC18"
.LC127:
	.string	"*.LC8"
.LC128:
	.string	"*.LC2"
.LC129:
	.string	"*.LC17"
.LC130:
	.string	"*.LC13"
.LC131:
	.string	"*.LC7"
.LC132:
	.string	"*.LC16"
.LC133:
	.string	"*.LC9"
.LC134:
	.string	"*.LC1"
.LC135:
	.string	"*.LC15"
.LC136:
	.string	"*.LC19"
.LC137:
	.string	"*.LC10"
.LC138:
	.string	"*.LC12"
.LC139:
	.string	"*.LC11"
.LC140:
	.string	"*.LC0"
.LC141:
	.string	"*.LC4"
.LC142:
	.string	"*.LC6"
.LC143:
	.string	"*.LC14"
.LC144:
	.string	"*.LC5"
.LC145:
	.string	"*.LC21"
	.section	.data.rel.local
	.align 32
	.type	.LASAN0, @object
	.size	.LASAN0, 8128
.LASAN0:
	.quad	.Lubsan_data136
	.quad	32
	.quad	64
	.quad	.LC22
	.quad	.LC1
	.quad	0
	.quad	0
	.quad	0
	.quad	.Lubsan_data135
	.quad	16
	.quad	64
	.quad	.LC23
	.quad	.LC1
	.quad	0
	.quad	0
	.quad	0
	.quad	.Lubsan_data134
	.quad	32
	.quad	64
	.quad	.LC24
	.quad	.LC1
	.quad	0
	.quad	0
	.quad	0
	.quad	.Lubsan_data133
	.quad	32
	.quad	64
	.quad	.LC25
	.quad	.LC1
	.quad	0
	.quad	0
	.quad	0
	.quad	.Lubsan_data132
	.quad	16
	.quad	64
	.quad	.LC26
	.quad	.LC1
	.quad	0
	.quad	0
	.quad	0
	.quad	.Lubsan_data131
	.quad	32
	.quad	64
	.quad	.LC27
	.quad	.LC1
	.quad	0
	.quad	0
	.quad	0
	.quad	.Lubsan_data130
	.quad	32
	.quad	64
	.quad	.LC28
	.quad	.LC1
	.quad	0
	.quad	0
	.quad	0
	.quad	.Lubsan_data129
	.quad	16
	.quad	64
	.quad	.LC29
	.quad	.LC1
	.quad	0
	.quad	0
	.quad	0
	.quad	.Lubsan_data128
	.quad	32
	.quad	64
	.quad	.LC30
	.quad	.LC1
	.quad	0
	.quad	0
	.quad	0
	.quad	.Lubsan_data127
	.quad	16
	.quad	64
	.quad	.LC31
	.quad	.LC1
	.quad	0
	.quad	0
	.quad	0
	.quad	.Lubsan_data126
	.quad	32
	.quad	64
	.quad	.LC32
	.quad	.LC1
	.quad	0
	.quad	0
	.quad	0
	.quad	.Lubsan_data125
	.quad	16
	.quad	64
	.quad	.LC33
	.quad	.LC1
	.quad	0
	.quad	0
	.quad	0
	.quad	.Lubsan_data124
	.quad	32
	.quad	64
	.quad	.LC34
	.quad	.LC1
	.quad	0
	.quad	0
	.quad	0
	.quad	.Lubsan_data123
	.quad	32
	.quad	64
	.quad	.LC35
	.quad	.LC1
	.quad	0
	.quad	0
	.quad	0
	.quad	.Lubsan_data122
	.quad	32
	.quad	64
	.quad	.LC36
	.quad	.LC1
	.quad	0
	.quad	0
	.quad	0
	.quad	.Lubsan_data121
	.quad	16
	.quad	64
	.quad	.LC37
	.quad	.LC1
	.quad	0
	.quad	0
	.quad	0
	.quad	.Lubsan_data120
	.quad	32
	.quad	64
	.quad	.LC38
	.quad	.LC1
	.quad	0
	.quad	0
	.quad	0
	.quad	.Lubsan_data119
	.quad	16
	.quad	64
	.quad	.LC39
	.quad	.LC1
	.quad	0
	.quad	0
	.quad	0
	.quad	.Lubsan_data118
	.quad	32
	.quad	64
	.quad	.LC40
	.quad	.LC1
	.quad	0
	.quad	0
	.quad	0
	.quad	.Lubsan_data117
	.quad	32
	.quad	64
	.quad	.LC41
	.quad	.LC1
	.quad	0
	.quad	0
	.quad	0
	.quad	.Lubsan_data116
	.quad	32
	.quad	64
	.quad	.LC42
	.quad	.LC1
	.quad	0
	.quad	0
	.quad	0
	.quad	.Lubsan_data115
	.quad	16
	.quad	64
	.quad	.LC43
	.quad	.LC1
	.quad	0
	.quad	0
	.quad	0
	.quad	.Lubsan_data114
	.quad	32
	.quad	64
	.quad	.LC44
	.quad	.LC1
	.quad	0
	.quad	0
	.quad	0
	.quad	.Lubsan_data113
	.quad	32
	.quad	64
	.quad	.LC45
	.quad	.LC1
	.quad	0
	.quad	0
	.quad	0
	.quad	.Lubsan_data112
	.quad	16
	.quad	64
	.quad	.LC46
	.quad	.LC1
	.quad	0
	.quad	0
	.quad	0
	.quad	.Lubsan_data111
	.quad	32
	.quad	64
	.quad	.LC47
	.quad	.LC1
	.quad	0
	.quad	0
	.quad	0
	.quad	.Lubsan_data110
	.quad	32
	.quad	64
	.quad	.LC48
	.quad	.LC1
	.quad	0
	.quad	0
	.quad	0
	.quad	.Lubsan_data109
	.quad	32
	.quad	64
	.quad	.LC49
	.quad	.LC1
	.quad	0
	.quad	0
	.quad	0
	.quad	.Lubsan_data108
	.quad	32
	.quad	64
	.quad	.LC50
	.quad	.LC1
	.quad	0
	.quad	0
	.quad	0
	.quad	.Lubsan_data107
	.quad	32
	.quad	64
	.quad	.LC51
	.quad	.LC1
	.quad	0
	.quad	0
	.quad	0
	.quad	.Lubsan_data106
	.quad	16
	.quad	64
	.quad	.LC52
	.quad	.LC1
	.quad	0
	.quad	0
	.quad	0
	.quad	.Lubsan_data105
	.quad	32
	.quad	64
	.quad	.LC53
	.quad	.LC1
	.quad	0
	.quad	0
	.quad	0
	.quad	.Lubsan_data104
	.quad	32
	.quad	64
	.quad	.LC54
	.quad	.LC1
	.quad	0
	.quad	0
	.quad	0
	.quad	.Lubsan_data103
	.quad	32
	.quad	64
	.quad	.LC55
	.quad	.LC1
	.quad	0
	.quad	0
	.quad	0
	.quad	.Lubsan_data102
	.quad	32
	.quad	64
	.quad	.LC56
	.quad	.LC1
	.quad	0
	.quad	0
	.quad	0
	.quad	.Lubsan_data101
	.quad	16
	.quad	64
	.quad	.LC57
	.quad	.LC1
	.quad	0
	.quad	0
	.quad	0
	.quad	.Lubsan_data100
	.quad	32
	.quad	64
	.quad	.LC58
	.quad	.LC1
	.quad	0
	.quad	0
	.quad	0
	.quad	.Lubsan_data99
	.quad	16
	.quad	64
	.quad	.LC59
	.quad	.LC1
	.quad	0
	.quad	0
	.quad	0
	.quad	.Lubsan_data98
	.quad	32
	.quad	64
	.quad	.LC60
	.quad	.LC1
	.quad	0
	.quad	0
	.quad	0
	.quad	.Lubsan_data97
	.quad	16
	.quad	64
	.quad	.LC61
	.quad	.LC1
	.quad	0
	.quad	0
	.quad	0
	.quad	.Lubsan_data96
	.quad	32
	.quad	64
	.quad	.LC62
	.quad	.LC1
	.quad	0
	.quad	0
	.quad	0
	.quad	.Lubsan_data95
	.quad	32
	.quad	64
	.quad	.LC63
	.quad	.LC1
	.quad	0
	.quad	0
	.quad	0
	.quad	.Lubsan_data94
	.quad	32
	.quad	64
	.quad	.LC64
	.quad	.LC1
	.quad	0
	.quad	0
	.quad	0
	.quad	.Lubsan_type2
	.quad	13
	.quad	64
	.quad	.LC65
	.quad	.LC1
	.quad	0
	.quad	0
	.quad	0
	.quad	.Lubsan_data93
	.quad	16
	.quad	64
	.quad	.LC66
	.quad	.LC1
	.quad	0
	.quad	0
	.quad	0
	.quad	.Lubsan_data92
	.quad	32
	.quad	64
	.quad	.LC67
	.quad	.LC1
	.quad	0
	.quad	0
	.quad	0
	.quad	.Lubsan_data91
	.quad	32
	.quad	64
	.quad	.LC68
	.quad	.LC1
	.quad	0
	.quad	0
	.quad	0
	.quad	.Lubsan_data90
	.quad	32
	.quad	64
	.quad	.LC69
	.quad	.LC1
	.quad	0
	.quad	0
	.quad	0
	.quad	.Lubsan_data89
	.quad	32
	.quad	64
	.quad	.LC70
	.quad	.LC1
	.quad	0
	.quad	0
	.quad	0
	.quad	.Lubsan_data88
	.quad	16
	.quad	64
	.quad	.LC71
	.quad	.LC1
	.quad	0
	.quad	0
	.quad	0
	.quad	.Lubsan_data87
	.quad	32
	.quad	64
	.quad	.LC72
	.quad	.LC1
	.quad	0
	.quad	0
	.quad	0
	.quad	.Lubsan_data86
	.quad	16
	.quad	64
	.quad	.LC73
	.quad	.LC1
	.quad	0
	.quad	0
	.quad	0
	.quad	.Lubsan_data85
	.quad	32
	.quad	64
	.quad	.LC74
	.quad	.LC1
	.quad	0
	.quad	0
	.quad	0
	.quad	.Lubsan_data84
	.quad	16
	.quad	64
	.quad	.LC75
	.quad	.LC1
	.quad	0
	.quad	0
	.quad	0
	.quad	.Lubsan_data83
	.quad	32
	.quad	64
	.quad	.LC76
	.quad	.LC1
	.quad	0
	.quad	0
	.quad	0
	.quad	.Lubsan_data82
	.quad	32
	.quad	64
	.quad	.LC77
	.quad	.LC1
	.quad	0
	.quad	0
	.quad	0
	.quad	.Lubsan_data81
	.quad	32
	.quad	64
	.quad	.LC78
	.quad	.LC1
	.quad	0
	.quad	0
	.quad	0
	.quad	.Lubsan_data80
	.quad	32
	.quad	64
	.quad	.LC79
	.quad	.LC1
	.quad	0
	.quad	0
	.quad	0
	.quad	.Lubsan_data79
	.quad	32
	.quad	64
	.quad	.LC80
	.quad	.LC1
	.quad	0
	.quad	0
	.quad	0
	.quad	.Lubsan_data78
	.quad	32
	.quad	64
	.quad	.LC81
	.quad	.LC1
	.quad	0
	.quad	0
	.quad	0
	.quad	.Lubsan_data77
	.quad	32
	.quad	64
	.quad	.LC82
	.quad	.LC1
	.quad	0
	.quad	0
	.quad	0
	.quad	.Lubsan_data76
	.quad	32
	.quad	64
	.quad	.LC83
	.quad	.LC1
	.quad	0
	.quad	0
	.quad	0
	.quad	.Lubsan_data75
	.quad	32
	.quad	64
	.quad	.LC84
	.quad	.LC1
	.quad	0
	.quad	0
	.quad	0
	.quad	.Lubsan_data74
	.quad	16
	.quad	64
	.quad	.LC85
	.quad	.LC1
	.quad	0
	.quad	0
	.quad	0
	.quad	.Lubsan_data73
	.quad	32
	.quad	64
	.quad	.LC86
	.quad	.LC1
	.quad	0
	.quad	0
	.quad	0
	.quad	.Lubsan_data72
	.quad	16
	.quad	64
	.quad	.LC87
	.quad	.LC1
	.quad	0
	.quad	0
	.quad	0
	.quad	.Lubsan_data71
	.quad	32
	.quad	64
	.quad	.LC88
	.quad	.LC1
	.quad	0
	.quad	0
	.quad	0
	.quad	.Lubsan_data70
	.quad	32
	.quad	64
	.quad	.LC89
	.quad	.LC1
	.quad	0
	.quad	0
	.quad	0
	.quad	.Lubsan_data69
	.quad	32
	.quad	64
	.quad	.LC90
	.quad	.LC1
	.quad	0
	.quad	0
	.quad	0
	.quad	.Lubsan_data68
	.quad	32
	.quad	64
	.quad	.LC91
	.quad	.LC1
	.quad	0
	.quad	0
	.quad	0
	.quad	.Lubsan_data67
	.quad	32
	.quad	64
	.quad	.LC92
	.quad	.LC1
	.quad	0
	.quad	0
	.quad	0
	.quad	.Lubsan_data66
	.quad	32
	.quad	64
	.quad	.LC93
	.quad	.LC1
	.quad	0
	.quad	0
	.quad	0
	.quad	.Lubsan_data65
	.quad	32
	.quad	64
	.quad	.LC94
	.quad	.LC1
	.quad	0
	.quad	0
	.quad	0
	.quad	.Lubsan_data64
	.quad	32
	.quad	64
	.quad	.LC95
	.quad	.LC1
	.quad	0
	.quad	0
	.quad	0
	.quad	.Lubsan_data63
	.quad	16
	.quad	64
	.quad	.LC96
	.quad	.LC1
	.quad	0
	.quad	0
	.quad	0
	.quad	.Lubsan_data62
	.quad	32
	.quad	64
	.quad	.LC97
	.quad	.LC1
	.quad	0
	.quad	0
	.quad	0
	.quad	.Lubsan_data61
	.quad	16
	.quad	64
	.quad	.LC98
	.quad	.LC1
	.quad	0
	.quad	0
	.quad	0
	.quad	.Lubsan_data60
	.quad	32
	.quad	64
	.quad	.LC99
	.quad	.LC1
	.quad	0
	.quad	0
	.quad	0
	.quad	.Lubsan_type1
	.quad	24
	.quad	64
	.quad	.LC100
	.quad	.LC1
	.quad	0
	.quad	0
	.quad	0
	.quad	.Lubsan_data55
	.quad	40
	.quad	96
	.quad	.LC101
	.quad	.LC1
	.quad	0
	.quad	0
	.quad	0
	.quad	.Lubsan_data53
	.quad	40
	.quad	96
	.quad	.LC102
	.quad	.LC1
	.quad	0
	.quad	0
	.quad	0
	.quad	.Lubsan_data51
	.quad	40
	.quad	96
	.quad	.LC103
	.quad	.LC1
	.quad	0
	.quad	0
	.quad	0
	.quad	.Lubsan_data49
	.quad	40
	.quad	96
	.quad	.LC104
	.quad	.LC1
	.quad	0
	.quad	0
	.quad	0
	.quad	.Lubsan_data47
	.quad	40
	.quad	96
	.quad	.LC105
	.quad	.LC1
	.quad	0
	.quad	0
	.quad	0
	.quad	.Lubsan_data45
	.quad	40
	.quad	96
	.quad	.LC106
	.quad	.LC1
	.quad	0
	.quad	0
	.quad	0
	.quad	.Lubsan_data41
	.quad	40
	.quad	96
	.quad	.LC107
	.quad	.LC1
	.quad	0
	.quad	0
	.quad	0
	.quad	.Lubsan_data39
	.quad	40
	.quad	96
	.quad	.LC108
	.quad	.LC1
	.quad	0
	.quad	0
	.quad	0
	.quad	.Lubsan_data38
	.quad	40
	.quad	96
	.quad	.LC109
	.quad	.LC1
	.quad	0
	.quad	0
	.quad	0
	.quad	.Lubsan_data37
	.quad	40
	.quad	96
	.quad	.LC110
	.quad	.LC1
	.quad	0
	.quad	0
	.quad	0
	.quad	.Lubsan_data35
	.quad	40
	.quad	96
	.quad	.LC111
	.quad	.LC1
	.quad	0
	.quad	0
	.quad	0
	.quad	.Lubsan_data33
	.quad	40
	.quad	96
	.quad	.LC112
	.quad	.LC1
	.quad	0
	.quad	0
	.quad	0
	.quad	.Lubsan_data31
	.quad	40
	.quad	96
	.quad	.LC113
	.quad	.LC1
	.quad	0
	.quad	0
	.quad	0
	.quad	.Lubsan_data30
	.quad	40
	.quad	96
	.quad	.LC114
	.quad	.LC1
	.quad	0
	.quad	0
	.quad	0
	.quad	.Lubsan_data29
	.quad	40
	.quad	96
	.quad	.LC115
	.quad	.LC1
	.quad	0
	.quad	0
	.quad	0
	.quad	.Lubsan_data27
	.quad	40
	.quad	96
	.quad	.LC116
	.quad	.LC1
	.quad	0
	.quad	0
	.quad	0
	.quad	.Lubsan_data25
	.quad	40
	.quad	96
	.quad	.LC117
	.quad	.LC1
	.quad	0
	.quad	0
	.quad	0
	.quad	.Lubsan_data23
	.quad	40
	.quad	96
	.quad	.LC118
	.quad	.LC1
	.quad	0
	.quad	0
	.quad	0
	.quad	.Lubsan_data21
	.quad	40
	.quad	96
	.quad	.LC119
	.quad	.LC1
	.quad	0
	.quad	0
	.quad	0
	.quad	.Lubsan_data19
	.quad	40
	.quad	96
	.quad	.LC120
	.quad	.LC1
	.quad	0
	.quad	0
	.quad	0
	.quad	.Lubsan_data17
	.quad	40
	.quad	96
	.quad	.LC121
	.quad	.LC1
	.quad	0
	.quad	0
	.quad	0
	.quad	.Lubsan_data15
	.quad	40
	.quad	96
	.quad	.LC122
	.quad	.LC1
	.quad	0
	.quad	0
	.quad	0
	.quad	.Lubsan_data13
	.quad	40
	.quad	96
	.quad	.LC123
	.quad	.LC1
	.quad	0
	.quad	0
	.quad	0
	.quad	__func__.0
	.quad	11
	.quad	64
	.quad	.LC124
	.quad	.LC1
	.quad	0
	.quad	.LASANLOC1
	.quad	0
	.quad	__func__.1
	.quad	16
	.quad	64
	.quad	.LC124
	.quad	.LC1
	.quad	0
	.quad	.LASANLOC2
	.quad	0
	.quad	__func__.2
	.quad	20
	.quad	64
	.quad	.LC124
	.quad	.LC1
	.quad	0
	.quad	.LASANLOC3
	.quad	0
	.quad	__func__.3
	.quad	18
	.quad	64
	.quad	.LC124
	.quad	.LC1
	.quad	0
	.quad	.LASANLOC4
	.quad	0
	.quad	.LC3
	.quad	77
	.quad	128
	.quad	.LC125
	.quad	.LC1
	.quad	0
	.quad	0
	.quad	0
	.quad	.LC18
	.quad	81
	.quad	128
	.quad	.LC126
	.quad	.LC1
	.quad	0
	.quad	0
	.quad	0
	.quad	.LC8
	.quad	81
	.quad	128
	.quad	.LC127
	.quad	.LC1
	.quad	0
	.quad	0
	.quad	0
	.quad	.LC2
	.quad	69
	.quad	128
	.quad	.LC128
	.quad	.LC1
	.quad	0
	.quad	0
	.quad	0
	.quad	.LC17
	.quad	86
	.quad	128
	.quad	.LC129
	.quad	.LC1
	.quad	0
	.quad	0
	.quad	0
	.quad	.LC13
	.quad	87
	.quad	128
	.quad	.LC130
	.quad	.LC1
	.quad	0
	.quad	0
	.quad	0
	.quad	.LC7
	.quad	87
	.quad	128
	.quad	.LC131
	.quad	.LC1
	.quad	0
	.quad	0
	.quad	0
	.quad	.LC16
	.quad	19
	.quad	64
	.quad	.LC132
	.quad	.LC1
	.quad	0
	.quad	0
	.quad	0
	.quad	.LC9
	.quad	63
	.quad	96
	.quad	.LC133
	.quad	.LC1
	.quad	0
	.quad	0
	.quad	0
	.quad	.LC1
	.quad	12
	.quad	64
	.quad	.LC134
	.quad	.LC1
	.quad	0
	.quad	0
	.quad	0
	.quad	.LC15
	.quad	76
	.quad	128
	.quad	.LC135
	.quad	.LC1
	.quad	0
	.quad	0
	.quad	0
	.quad	.LC19
	.quad	57
	.quad	96
	.quad	.LC136
	.quad	.LC1
	.quad	0
	.quad	0
	.quad	0
	.quad	.LC10
	.quad	86
	.quad	128
	.quad	.LC137
	.quad	.LC1
	.quad	0
	.quad	0
	.quad	0
	.quad	.LC12
	.quad	61
	.quad	96
	.quad	.LC138
	.quad	.LC1
	.quad	0
	.quad	0
	.quad	0
	.quad	.LC11
	.quad	17
	.quad	64
	.quad	.LC139
	.quad	.LC1
	.quad	0
	.quad	0
	.quad	0
	.quad	.LC0
	.quad	31
	.quad	64
	.quad	.LC140
	.quad	.LC1
	.quad	0
	.quad	0
	.quad	0
	.quad	.LC4
	.quad	85
	.quad	128
	.quad	.LC141
	.quad	.LC1
	.quad	0
	.quad	0
	.quad	0
	.quad	.LC6
	.quad	93
	.quad	128
	.quad	.LC142
	.quad	.LC1
	.quad	0
	.quad	0
	.quad	0
	.quad	.LC14
	.quad	62
	.quad	96
	.quad	.LC143
	.quad	.LC1
	.quad	0
	.quad	0
	.quad	0
	.quad	.LC5
	.quad	35
	.quad	96
	.quad	.LC144
	.quad	.LC1
	.quad	0
	.quad	0
	.quad	0
	.quad	.LC21
	.quad	85
	.quad	128
	.quad	.LC145
	.quad	.LC1
	.quad	0
	.quad	0
	.quad	0
	.text
	.type	_sub_D_00099_0, @function
_sub_D_00099_0:
.LFB65:
	.cfi_startproc
	.loc 1 153 1 is_stmt 1 view .LVU496
	endbr64
	pushq	%rbp
	.cfi_def_cfa_offset 16
	.cfi_offset 6, -16
	movq	%rsp, %rbp
	.cfi_def_cfa_register 6
	movl	$127, %esi
	leaq	.LASAN0(%rip), %rdi
	call	__asan_unregister_globals@PLT
	popq	%rbp
	.cfi_def_cfa 7, 8
	ret
	.cfi_endproc
.LFE65:
	.size	_sub_D_00099_0, .-_sub_D_00099_0
	.section	.fini_array.00099,"aw"
	.align 8
	.quad	_sub_D_00099_0
	.text
	.type	_sub_I_00099_1, @function
_sub_I_00099_1:
.LFB66:
	.cfi_startproc
	.loc 1 153 1 view .LVU497
	endbr64
	pushq	%rbp
	.cfi_def_cfa_offset 16
	.cfi_offset 6, -16
	movq	%rsp, %rbp
	.cfi_def_cfa_register 6
	call	__asan_init@PLT
	call	__asan_version_mismatch_check_v8@PLT
	movl	$127, %esi
	leaq	.LASAN0(%rip), %rdi
	call	__asan_register_globals@PLT
	popq	%rbp
	.cfi_def_cfa 7, 8
	ret
	.cfi_endproc
.LFE66:
	.size	_sub_I_00099_1, .-_sub_I_00099_1
	.section	.init_array.00099,"aw"
	.align 8
	.quad	_sub_I_00099_1
	.text
.Letext0:
	.file 4 "/usr/lib/gcc/x86_64-pc-linux-gnu/13/include/stddef.h"
	.file 5 "/usr/include/bits/types.h"
	.file 6 "include/array.h"
	.file 7 "/usr/include/stdint.h"
	.file 8 "/usr/include/bits/types/struct_FILE.h"
	.file 9 "/usr/include/bits/types/FILE.h"
	.file 10 "/usr/include/stdio.h"
	.file 11 "include/generic.h"
	.file 12 "/usr/include/bits/stdio2-decl.h"
	.file 13 "/usr/include/stdlib.h"
	.file 14 "<built-in>"
	.section	.note.GNU-stack,"",@progbits
	.section	.note.gnu.property,"a"
	.align 8
	.long	1f - 0f
	.long	4f - 1f
	.long	5
0:
	.string	"GNU"
1:
	.align 8
	.long	0xc0000002
	.long	3f - 2f
2:
	.long	0x3
3:
	.align 8
4:
