	.file	"generic.c"
	.text
.Ltext0:
	.file 0 "/home/unazed/Programming/c/ucc-0.2.0" "src/generic.c"
	.section	.rodata
	.align 32
.LC0:
	.string	"src/generic.c"
	.zero	50
	.align 32
.LC1:
	.string	"\033[1;37m%s:%u\033[0m: \033[1;36mminutiae: \033[0m%s: freeing pointer (size: %zu): %p\n"
	.zero	52
	.text
	.globl	__chk_free_impl
	.type	__chk_free_impl, @function
__chk_free_impl:
.LASANPC53:
.LVL0:
.LFB53:
	.file 1 "src/generic.c"
	.loc 1 18 1 view -0
	.cfi_startproc
	.loc 1 18 1 is_stmt 0 view .LVU1
	endbr64
	pushq	%rbp
	.cfi_def_cfa_offset 16
	.cfi_offset 6, -16
	movq	%rsp, %rbp
	.cfi_def_cfa_register 6
	pushq	%r15
	pushq	%r14
	pushq	%r13
	pushq	%r12
	pushq	%rbx
	subq	$8, %rsp
	.cfi_offset 15, -24
	.cfi_offset 14, -32
	.cfi_offset 13, -40
	.cfi_offset 12, -48
	.cfi_offset 3, -56
1:	call	*mcount@GOTPCREL(%rip)
	movq	%rdi, %r13
	movq	%rsi, %r12
	.loc 1 20 17 is_stmt 1 view .LVU2
	.loc 1 20 40 is_stmt 0 view .LVU3
	movq	%rsi, %rdi
.LVL1:
	.loc 1 20 40 view .LVU4
	call	malloc_usable_size@PLT
.LVL2:
	.loc 1 20 40 view .LVU5
	movq	%rax, %rbx
.LVL3:
	.loc 1 21 3 is_stmt 1 view .LVU6
	.loc 1 21 160 is_stmt 0 view .LVU7
	movl	%r12d, %r15d
	.loc 1 21 3 view .LVU8
	leaq	stdout(%rip), %rdi
	movq	%rdi, %rax
.LVL4:
	.loc 1 21 3 view .LVU9
	shrq	$3, %rax
	cmpb	$0, 2147450880(%rax)
	jne	.L6
	movq	stdout(%rip), %r14
	testq	%r14, %r14
	je	.L7
.L3:
.LVL5:
.LBB24:
.LBI24:
	.file 2 "/usr/include/bits/stdio2.h"
	.loc 2 77 1 is_stmt 1 view .LVU10
.LBB25:
	.loc 2 79 3 view .LVU11
	.loc 2 79 10 is_stmt 0 view .LVU12
	pushq	%r15
	pushq	%rbx
	movq	%r13, %r9
	movl	$21, %r8d
	leaq	.LC0(%rip), %rcx
	leaq	.LC1(%rip), %rdx
	movl	$2, %esi
	movq	%r14, %rdi
	movl	$0, %eax
	call	__fprintf_chk@PLT
.LVL6:
	.loc 2 79 10 view .LVU13
.LBE25:
.LBE24:
	.loc 1 23 3 is_stmt 1 view .LVU14
	.loc 1 23 19 is_stmt 0 view .LVU15
	movslq	%ebx, %rsi
	.loc 1 23 16 view .LVU16
	addq	$16, %rsp
	movq	%rsi, %rbx
.LVL7:
	.loc 1 23 16 view .LVU17
	addq	nr_mem_freed(%rip), %rbx
	jo	.L8
.L4:
	movq	%rbx, nr_mem_freed(%rip)
	.loc 1 24 3 is_stmt 1 view .LVU18
	.loc 1 24 11 is_stmt 0 view .LVU19
	addq	$1, nr_frees(%rip)
	.loc 1 28 3 is_stmt 1 view .LVU20
	movq	%r12, %rdi
	call	free@PLT
.LVL8:
	.loc 1 29 1 is_stmt 0 view .LVU21
	leaq	-40(%rbp), %rsp
	popq	%rbx
	popq	%r12
.LVL9:
	.loc 1 29 1 view .LVU22
	popq	%r13
.LVL10:
	.loc 1 29 1 view .LVU23
	popq	%r14
	popq	%r15
	popq	%rbp
	.cfi_remember_state
	.cfi_def_cfa 7, 8
	ret
.LVL11:
.L6:
	.cfi_restore_state
	.loc 1 21 3 view .LVU24
	call	__asan_report_load8@PLT
.LVL12:
.L7:
	leaq	.Lubsan_data13(%rip), %rdi
	call	__ubsan_handle_nonnull_arg@PLT
.LVL13:
	jmp	.L3
.LVL14:
.L8:
	.loc 1 23 16 view .LVU25
	movq	nr_mem_freed(%rip), %rdx
	leaq	.Lubsan_data35(%rip), %rdi
	call	__ubsan_handle_add_overflow@PLT
.LVL15:
	jmp	.L4
	.cfi_endproc
.LFE53:
	.size	__chk_free_impl, .-__chk_free_impl
	.section	.rodata
	.align 32
.LC2:
	.string	"<unknown>"
	.zero	54
	.text
	.globl	__chk_free_impl_nofn
	.type	__chk_free_impl_nofn, @function
__chk_free_impl_nofn:
.LASANPC54:
.LVL16:
.LFB54:
	.loc 1 33 1 is_stmt 1 view -0
	.cfi_startproc
	.loc 1 33 1 is_stmt 0 view .LVU27
	endbr64
	pushq	%rbp
	.cfi_def_cfa_offset 16
	.cfi_offset 6, -16
	movq	%rsp, %rbp
	.cfi_def_cfa_register 6
1:	call	*mcount@GOTPCREL(%rip)
	movq	%rdi, %rsi
	.loc 1 34 3 is_stmt 1 view .LVU28
	leaq	.LC2(%rip), %rdi
.LVL17:
	.loc 1 34 3 is_stmt 0 view .LVU29
	call	__chk_free_impl
.LVL18:
	.loc 1 35 1 view .LVU30
	popq	%rbp
	.cfi_def_cfa 7, 8
	ret
	.cfi_endproc
.LFE54:
	.size	__chk_free_impl_nofn, .-__chk_free_impl_nofn
	.section	.rodata
	.align 32
.LC3:
	.string	"\033[1;37m%s:%u\033[0m: \033[1;31merror: \033[0mcritical allocation failure\n"
	.zero	63
	.align 32
.LC4:
	.string	"\033[1;37m%s:%u\033[0m: \033[1;36mminutiae: \033[0m%s: realloc(ptr: %p, size: %zu) returned %p\n"
	.zero	44
	.align 32
.LC5:
	.string	"\033[1;37m%s:%u\033[0m: \033[1;36mminutiae: \033[0m\treallocation size went from %zu to %zu byte(s)\n"
	.zero	40
	.text
	.globl	__chk_realloc_impl
	.type	__chk_realloc_impl, @function
__chk_realloc_impl:
.LASANPC55:
.LVL19:
.LFB55:
	.loc 1 39 1 is_stmt 1 view -0
	.cfi_startproc
	.loc 1 39 1 is_stmt 0 view .LVU32
	endbr64
	pushq	%rbp
	.cfi_def_cfa_offset 16
	.cfi_offset 6, -16
	movq	%rsp, %rbp
	.cfi_def_cfa_register 6
	pushq	%r15
	pushq	%r14
	pushq	%r13
	pushq	%r12
	pushq	%rbx
	subq	$24, %rsp
	.cfi_offset 15, -24
	.cfi_offset 14, -32
	.cfi_offset 13, -40
	.cfi_offset 12, -48
	.cfi_offset 3, -56
1:	call	*mcount@GOTPCREL(%rip)
	movq	%rdi, -64(%rbp)
	movq	%rsi, %r12
	movq	%rdx, %r13
	.loc 1 41 17 is_stmt 1 view .LVU33
	.loc 1 41 45 is_stmt 0 view .LVU34
	movq	%rsi, %rdi
.LVL20:
	.loc 1 41 45 view .LVU35
	call	malloc_usable_size@PLT
.LVL21:
	.loc 1 41 45 view .LVU36
	movq	%rax, -56(%rbp)
.LVL22:
	.loc 1 43 17 is_stmt 1 view .LVU37
	.loc 1 43 35 is_stmt 0 view .LVU38
	movq	%r13, %rsi
	movq	%r12, %rdi
	call	realloc@PLT
.LVL23:
	.loc 1 43 35 view .LVU39
	movq	%rax, %rbx
.LVL24:
	.loc 1 44 3 is_stmt 1 view .LVU40
	.loc 1 44 6 is_stmt 0 view .LVU41
	testq	%rax, %rax
	je	.L23
	.loc 1 45 8 is_stmt 1 view .LVU42
	.loc 1 48 3 view .LVU43
	.loc 1 48 205 is_stmt 0 view .LVU44
	movl	%eax, %r15d
	.loc 1 48 158 view .LVU45
	movl	%r12d, %r12d
.LVL25:
	.loc 1 48 3 view .LVU46
	leaq	stdout(%rip), %rdi
	movq	%rdi, %rax
.LVL26:
	.loc 1 48 3 view .LVU47
	shrq	$3, %rax
	cmpb	$0, 2147450880(%rax)
	jne	.L24
	movq	stdout(%rip), %r14
	testq	%r14, %r14
	je	.L25
.L15:
.LVL27:
.LBB26:
.LBI26:
	.loc 2 77 1 is_stmt 1 view .LVU48
.LBB27:
	.loc 2 79 3 view .LVU49
	.loc 2 79 10 is_stmt 0 view .LVU50
	subq	$8, %rsp
	pushq	%r15
	pushq	%r13
	pushq	%r12
	movq	-64(%rbp), %r9
	movl	$48, %r8d
	leaq	.LC0(%rip), %rcx
	leaq	.LC4(%rip), %rdx
	movl	$2, %esi
	movq	%r14, %rdi
	movl	$0, %eax
	call	__fprintf_chk@PLT
.LVL28:
	.loc 2 79 10 view .LVU51
.LBE27:
.LBE26:
	.loc 1 52 17 is_stmt 1 view .LVU52
	.loc 1 52 44 is_stmt 0 view .LVU53
	addq	$32, %rsp
	movq	%rbx, %rdi
	call	malloc_usable_size@PLT
.LVL29:
	movq	%rax, %r13
.LVL30:
	.loc 1 53 17 is_stmt 1 view .LVU54
	.loc 1 53 29 is_stmt 0 view .LVU55
	movl	%eax, %r14d
	subl	-56(%rbp), %r14d
	jo	.L26
.LVL31:
.L16:
	.loc 1 54 3 is_stmt 1 view .LVU56
	leaq	stdout(%rip), %rdi
	movq	%rdi, %rax
	shrq	$3, %rax
	cmpb	$0, 2147450880(%rax)
	jne	.L27
	movq	stdout(%rip), %r15
	testq	%r15, %r15
	je	.L28
.L19:
.LVL32:
.LBB28:
.LBI28:
	.loc 2 77 1 view .LVU57
.LBB29:
	.loc 2 79 3 view .LVU58
	.loc 2 79 10 is_stmt 0 view .LVU59
	subq	$8, %rsp
	pushq	%r13
	movq	-56(%rbp), %r9
	movl	$54, %r8d
	leaq	.LC0(%rip), %rcx
	leaq	.LC5(%rip), %rdx
	movl	$2, %esi
	movq	%r15, %rdi
	movl	$0, %eax
	call	__fprintf_chk@PLT
.LVL33:
	.loc 2 79 10 view .LVU60
.LBE29:
.LBE28:
	.loc 1 56 3 is_stmt 1 view .LVU61
	.loc 1 56 22 is_stmt 0 view .LVU62
	addq	$16, %rsp
	movslq	%r14d, %rax
	addq	nr_mem_reallocated(%rip), %rax
	movq	%rax, %r12
	jo	.L29
.L20:
	movq	%r12, nr_mem_reallocated(%rip)
	.loc 1 57 3 is_stmt 1 view .LVU63
	.loc 1 57 41 is_stmt 0 view .LVU64
	movq	avg_reallocation(%rip), %r12
	movq	nr_reallocations(%rip), %r13
.LVL34:
	.loc 1 57 41 view .LVU65
	movq	%r12, %rax
	imulq	%r13, %rax
	.loc 1 57 62 view .LVU66
	movl	%r14d, %r14d
	.loc 1 57 60 view .LVU67
	addq	%r14, %rax
	.loc 1 57 20 view .LVU68
	addq	%rax, %r12
	movq	%r12, avg_reallocation(%rip)
	.loc 1 58 3 is_stmt 1 view .LVU69
	.loc 1 58 23 is_stmt 0 view .LVU70
	addq	$1, %r13
	movq	%r13, nr_reallocations(%rip)
	.loc 1 58 20 view .LVU71
	je	.L30
.L22:
	.loc 1 58 20 discriminator 3 view .LVU72
	movq	%r12, %rax
	movl	$0, %edx
	divq	%r13
	movq	%rax, avg_reallocation(%rip)
	.loc 1 60 3 is_stmt 1 view .LVU73
	.loc 1 61 1 is_stmt 0 view .LVU74
	movq	%rbx, %rax
	leaq	-40(%rbp), %rsp
	popq	%rbx
.LVL35:
	.loc 1 61 1 view .LVU75
	popq	%r12
	popq	%r13
	popq	%r14
.LVL36:
	.loc 1 61 1 view .LVU76
	popq	%r15
	popq	%rbp
	.cfi_remember_state
	.cfi_def_cfa 7, 8
.LVL37:
	.loc 1 61 1 view .LVU77
	ret
.LVL38:
.L23:
	.cfi_restore_state
	.loc 1 45 7 is_stmt 1 view .LVU78
	leaq	stderr(%rip), %rdi
	movq	%rdi, %rax
.LVL39:
	.loc 1 45 7 is_stmt 0 view .LVU79
	shrq	$3, %rax
	cmpb	$0, 2147450880(%rax)
	jne	.L31
	movq	stderr(%rip), %rbx
.LVL40:
	.loc 1 45 7 view .LVU80
	testq	%rbx, %rbx
	je	.L32
.L13:
.LVL41:
.LBB30:
.LBI30:
	.loc 2 77 1 is_stmt 1 view .LVU81
.LBB31:
	.loc 2 79 3 view .LVU82
	.loc 2 79 10 is_stmt 0 view .LVU83
	movl	$45, %r8d
	leaq	.LC0(%rip), %rcx
	leaq	.LC3(%rip), %rdx
	movl	$2, %esi
	movq	%rbx, %rdi
	movl	$0, %eax
	call	__fprintf_chk@PLT
.LVL42:
	.loc 2 79 10 view .LVU84
.LBE31:
.LBE30:
	.loc 1 45 113 is_stmt 1 discriminator 1 view .LVU85
	call	__asan_handle_no_return@PLT
.LVL43:
	movl	$1, %edi
	call	exit@PLT
.LVL44:
.L31:
	.loc 1 45 7 is_stmt 0 view .LVU86
	call	__asan_report_load8@PLT
.LVL45:
.L32:
	.loc 1 45 7 view .LVU87
	leaq	.Lubsan_data15(%rip), %rdi
	call	__ubsan_handle_nonnull_arg@PLT
.LVL46:
	jmp	.L13
.LVL47:
.L24:
	.loc 1 48 3 view .LVU88
	call	__asan_report_load8@PLT
.LVL48:
.L25:
	leaq	.Lubsan_data17(%rip), %rdi
	call	__ubsan_handle_nonnull_arg@PLT
.LVL49:
	jmp	.L15
.LVL50:
.L26:
	.loc 1 53 29 view .LVU89
	movslq	-56(%rbp), %rdx
	cltq
.LVL51:
	.loc 1 53 29 view .LVU90
	movq	%rax, %rsi
	leaq	.Lubsan_data36(%rip), %rdi
	call	__ubsan_handle_sub_overflow@PLT
.LVL52:
	jmp	.L16
.LVL53:
.L27:
	.loc 1 54 3 view .LVU91
	call	__asan_report_load8@PLT
.LVL54:
.L28:
	leaq	.Lubsan_data19(%rip), %rdi
	call	__ubsan_handle_nonnull_arg@PLT
.LVL55:
	jmp	.L19
.L29:
	.loc 1 56 22 view .LVU92
	movslq	%r14d, %rsi
	movq	nr_mem_reallocated(%rip), %rdx
	leaq	.Lubsan_data37(%rip), %rdi
	call	__ubsan_handle_add_overflow@PLT
.LVL56:
	jmp	.L20
.LVL57:
.L30:
	.loc 1 58 20 discriminator 1 view .LVU93
	movq	%r13, %rdx
	movq	%r12, %rsi
	leaq	.Lubsan_data9(%rip), %rdi
	call	__ubsan_handle_divrem_overflow@PLT
.LVL58:
	jmp	.L22
	.cfi_endproc
.LFE55:
	.size	__chk_realloc_impl, .-__chk_realloc_impl
	.section	.rodata
	.align 32
.LC6:
	.string	"\033[1;37m%s:%u\033[0m: \033[1;36mminutiae: \033[0m%s: calloc(nmemb: %zu, size: %zu) returned %p (actual: %zu bytes)\n"
	.zero	54
	.text
	.globl	__chk_calloc_impl
	.type	__chk_calloc_impl, @function
__chk_calloc_impl:
.LASANPC56:
.LVL59:
.LFB56:
	.loc 1 65 1 is_stmt 1 view -0
	.cfi_startproc
	.loc 1 65 1 is_stmt 0 view .LVU95
	endbr64
	pushq	%rbp
	.cfi_def_cfa_offset 16
	.cfi_offset 6, -16
	movq	%rsp, %rbp
	.cfi_def_cfa_register 6
	pushq	%r15
	pushq	%r14
	pushq	%r13
	pushq	%r12
	pushq	%rbx
	subq	$24, %rsp
	.cfi_offset 15, -24
	.cfi_offset 14, -32
	.cfi_offset 13, -40
	.cfi_offset 12, -48
	.cfi_offset 3, -56
1:	call	*mcount@GOTPCREL(%rip)
	movq	%rdi, -56(%rbp)
	movq	%rsi, %rdi
.LVL60:
	.loc 1 65 1 view .LVU96
	movq	%rsi, -64(%rbp)
	movq	%rdx, %r15
	.loc 1 66 17 is_stmt 1 view .LVU97
	.loc 1 66 35 is_stmt 0 view .LVU98
	movq	%rdx, %rsi
.LVL61:
	.loc 1 66 35 view .LVU99
	call	calloc@PLT
.LVL62:
	.loc 1 66 35 view .LVU100
	movq	%rax, %r13
.LVL63:
	.loc 1 67 3 is_stmt 1 view .LVU101
	.loc 1 67 6 is_stmt 0 view .LVU102
	testq	%rax, %rax
	je	.L42
	.loc 1 68 8 is_stmt 1 view .LVU103
	.loc 1 70 3 view .LVU104
	.loc 1 70 21 is_stmt 0 view .LVU105
	movq	%rax, %rdi
	call	malloc_usable_size@PLT
.LVL64:
	.loc 1 70 21 view .LVU106
	movq	%rax, %r14
.LVL65:
	.loc 1 71 3 is_stmt 1 view .LVU107
	.loc 1 71 37 is_stmt 0 view .LVU108
	movq	avg_allocation(%rip), %rbx
	movq	nr_allocations(%rip), %r12
	movq	%rbx, %rdx
	imulq	%r12, %rdx
	.loc 1 71 54 view .LVU109
	addq	%rax, %rdx
	.loc 1 71 18 view .LVU110
	addq	%rdx, %rbx
	movq	%rbx, avg_allocation(%rip)
	.loc 1 72 3 is_stmt 1 view .LVU111
	.loc 1 72 21 is_stmt 0 view .LVU112
	addq	$1, %r12
	movq	%r12, nr_allocations(%rip)
	.loc 1 72 18 view .LVU113
	je	.L43
.LVL66:
.L37:
	.loc 1 72 18 discriminator 3 view .LVU114
	movq	%rbx, %rax
	movl	$0, %edx
	divq	%r12
	movq	%rax, avg_allocation(%rip)
	.loc 1 73 3 is_stmt 1 view .LVU115
	.loc 1 73 23 is_stmt 0 view .LVU116
	movslq	%r14d, %rsi
	.loc 1 73 20 view .LVU117
	movq	%rsi, %rbx
	addq	nr_mem_allocated(%rip), %rbx
	jo	.L44
.L38:
	movq	%rbx, nr_mem_allocated(%rip)
	.loc 1 74 3 is_stmt 1 view .LVU118
	.loc 1 74 193 is_stmt 0 view .LVU119
	movl	%r13d, %r12d
	.loc 1 74 3 view .LVU120
	leaq	stdout(%rip), %rdi
	movq	%rdi, %rax
	shrq	$3, %rax
	cmpb	$0, 2147450880(%rax)
	jne	.L45
	movq	stdout(%rip), %rbx
	testq	%rbx, %rbx
	je	.L46
.L41:
.LVL67:
.LBB32:
.LBI32:
	.loc 2 77 1 is_stmt 1 view .LVU121
.LBB33:
	.loc 2 79 3 view .LVU122
	.loc 2 79 10 is_stmt 0 view .LVU123
	pushq	%r14
	pushq	%r12
	pushq	%r15
	pushq	-64(%rbp)
	movq	-56(%rbp), %r9
	movl	$74, %r8d
	leaq	.LC0(%rip), %rcx
	leaq	.LC6(%rip), %rdx
	movl	$2, %esi
	movq	%rbx, %rdi
	movl	$0, %eax
	call	__fprintf_chk@PLT
.LVL68:
	.loc 2 79 10 view .LVU124
.LBE33:
.LBE32:
	.loc 1 80 3 is_stmt 1 view .LVU125
	.loc 1 81 1 is_stmt 0 view .LVU126
	movq	%r13, %rax
	leaq	-40(%rbp), %rsp
	popq	%rbx
	popq	%r12
	popq	%r13
.LVL69:
	.loc 1 81 1 view .LVU127
	popq	%r14
.LVL70:
	.loc 1 81 1 view .LVU128
	popq	%r15
.LVL71:
	.loc 1 81 1 view .LVU129
	popq	%rbp
	.cfi_remember_state
	.cfi_def_cfa 7, 8
.LVL72:
	.loc 1 81 1 view .LVU130
	ret
.LVL73:
.L42:
	.cfi_restore_state
	.loc 1 68 7 is_stmt 1 view .LVU131
	leaq	stderr(%rip), %rdi
	movq	%rdi, %rax
.LVL74:
	.loc 1 68 7 is_stmt 0 view .LVU132
	shrq	$3, %rax
	cmpb	$0, 2147450880(%rax)
	jne	.L47
	movq	stderr(%rip), %rbx
	testq	%rbx, %rbx
	je	.L48
.L36:
.LVL75:
.LBB34:
.LBI34:
	.loc 2 77 1 is_stmt 1 view .LVU133
.LBB35:
	.loc 2 79 3 view .LVU134
	.loc 2 79 10 is_stmt 0 view .LVU135
	movl	$68, %r8d
	leaq	.LC0(%rip), %rcx
	leaq	.LC3(%rip), %rdx
	movl	$2, %esi
	movq	%rbx, %rdi
	movl	$0, %eax
	call	__fprintf_chk@PLT
.LVL76:
	.loc 2 79 10 view .LVU136
.LBE35:
.LBE34:
	.loc 1 68 113 is_stmt 1 discriminator 1 view .LVU137
	call	__asan_handle_no_return@PLT
.LVL77:
	movl	$1, %edi
	call	exit@PLT
.LVL78:
.L47:
	.loc 1 68 7 is_stmt 0 view .LVU138
	call	__asan_report_load8@PLT
.LVL79:
.L48:
	leaq	.Lubsan_data21(%rip), %rdi
	call	__ubsan_handle_nonnull_arg@PLT
.LVL80:
	jmp	.L36
.LVL81:
.L43:
	.loc 1 72 18 discriminator 1 view .LVU139
	movq	%r12, %rdx
	movq	%rbx, %rsi
	leaq	.Lubsan_data10(%rip), %rdi
	call	__ubsan_handle_divrem_overflow@PLT
.LVL82:
	.loc 1 72 18 discriminator 1 view .LVU140
	jmp	.L37
.L44:
	.loc 1 73 20 view .LVU141
	movq	nr_mem_allocated(%rip), %rdx
	leaq	.Lubsan_data38(%rip), %rdi
	call	__ubsan_handle_add_overflow@PLT
.LVL83:
	jmp	.L38
.L45:
	.loc 1 74 3 view .LVU142
	call	__asan_report_load8@PLT
.LVL84:
.L46:
	leaq	.Lubsan_data23(%rip), %rdi
	call	__ubsan_handle_nonnull_arg@PLT
.LVL85:
	jmp	.L41
	.cfi_endproc
.LFE56:
	.size	__chk_calloc_impl, .-__chk_calloc_impl
	.section	.rodata
	.align 32
.LC7:
	.string	"\033[1;37m%s:%u\033[0m: \033[0;34mlog: \033[0mMemory statistics: \n"
	.zero	41
	.align 32
.LC8:
	.string	"\033[1;37m%s:%u\033[0m: \033[0;34mlog: \033[0m\tMemory allocated: %lu counts, %li bytes (avg: %lu)\n"
	.zero	41
	.align 32
.LC9:
	.string	"\033[1;37m%s:%u\033[0m: \033[0;34mlog: \033[0m\tNet reallocated memory: %lu counts, %li bytes (avg: %lu)\n"
	.zero	35
	.align 32
.LC10:
	.string	"\033[1;37m%s:%u\033[0m: \033[0;34mlog: \033[0m\tMemory freed: %lu counts, %li bytes\n"
	.zero	56
	.align 32
.LC11:
	.string	"\033[1;37m%s:%u\033[0m: \033[0;34mlog: \033[0mNote: the freed size will likely not correspond with the allocated size given, due to `malloc_usable_size`\n"
	.zero	50
	.text
	.globl	dbg_mem_dump_stats
	.type	dbg_mem_dump_stats, @function
dbg_mem_dump_stats:
.LASANPC57:
.LFB57:
	.loc 1 86 1 is_stmt 1 view -0
	.cfi_startproc
	endbr64
	pushq	%rbp
	.cfi_def_cfa_offset 16
	.cfi_offset 6, -16
	movq	%rsp, %rbp
	.cfi_def_cfa_register 6
	pushq	%r14
	pushq	%r13
	pushq	%r12
	pushq	%rbx
	.cfi_offset 14, -24
	.cfi_offset 13, -32
	.cfi_offset 12, -40
	.cfi_offset 3, -48
1:	call	*mcount@GOTPCREL(%rip)
	.loc 1 87 3 view .LVU144
	leaq	stdout(%rip), %rdi
	movq	%rdi, %rax
	shrq	$3, %rax
	cmpb	$0, 2147450880(%rax)
	jne	.L60
	movq	stdout(%rip), %rbx
	testq	%rbx, %rbx
	je	.L61
.L51:
.LVL86:
.LBB36:
.LBI36:
	.loc 2 77 1 view .LVU145
.LBB37:
	.loc 2 79 3 view .LVU146
	.loc 2 79 10 is_stmt 0 view .LVU147
	movl	$87, %r8d
	leaq	.LC0(%rip), %rcx
	leaq	.LC7(%rip), %rdx
	movl	$2, %esi
	movq	%rbx, %rdi
	movl	$0, %eax
	call	__fprintf_chk@PLT
.LVL87:
	.loc 2 79 10 view .LVU148
.LBE37:
.LBE36:
	.loc 1 88 3 is_stmt 1 view .LVU149
	movq	avg_allocation(%rip), %r14
	movq	nr_mem_allocated(%rip), %r13
	movq	nr_allocations(%rip), %r12
	leaq	stdout(%rip), %rdi
	movq	%rdi, %rax
	shrq	$3, %rax
	cmpb	$0, 2147450880(%rax)
	jne	.L62
	movq	stdout(%rip), %rbx
	testq	%rbx, %rbx
	je	.L63
.L53:
.LVL88:
.LBB38:
.LBI38:
	.loc 2 77 1 view .LVU150
.LBB39:
	.loc 2 79 3 view .LVU151
	.loc 2 79 10 is_stmt 0 view .LVU152
	pushq	%r14
	pushq	%r13
	movq	%r12, %r9
	movl	$88, %r8d
	leaq	.LC0(%rip), %rcx
	leaq	.LC8(%rip), %rdx
	movl	$2, %esi
	movq	%rbx, %rdi
	movl	$0, %eax
	call	__fprintf_chk@PLT
.LVL89:
	.loc 2 79 10 view .LVU153
.LBE39:
.LBE38:
	.loc 1 90 3 is_stmt 1 view .LVU154
	movq	avg_reallocation(%rip), %r14
	movq	nr_mem_reallocated(%rip), %r13
	movq	nr_reallocations(%rip), %r12
	leaq	stdout(%rip), %rdi
	movq	%rdi, %rax
	shrq	$3, %rax
	addq	$16, %rsp
	cmpb	$0, 2147450880(%rax)
	jne	.L64
	movq	stdout(%rip), %rbx
	testq	%rbx, %rbx
	je	.L65
.L55:
.LVL90:
.LBB40:
.LBI40:
	.loc 2 77 1 view .LVU155
.LBB41:
	.loc 2 79 3 view .LVU156
	.loc 2 79 10 is_stmt 0 view .LVU157
	pushq	%r14
	pushq	%r13
	movq	%r12, %r9
	movl	$90, %r8d
	leaq	.LC0(%rip), %rcx
	leaq	.LC9(%rip), %rdx
	movl	$2, %esi
	movq	%rbx, %rdi
	movl	$0, %eax
	call	__fprintf_chk@PLT
.LVL91:
	.loc 2 79 10 view .LVU158
.LBE41:
.LBE40:
	.loc 1 92 3 is_stmt 1 view .LVU159
	movq	nr_mem_freed(%rip), %r13
	movq	nr_frees(%rip), %r12
	leaq	stdout(%rip), %rdi
	movq	%rdi, %rax
	shrq	$3, %rax
	addq	$16, %rsp
	cmpb	$0, 2147450880(%rax)
	jne	.L66
	movq	stdout(%rip), %rbx
	testq	%rbx, %rbx
	je	.L67
.L57:
.LVL92:
.LBB42:
.LBI42:
	.loc 2 77 1 view .LVU160
.LBB43:
	.loc 2 79 3 view .LVU161
	.loc 2 79 10 is_stmt 0 view .LVU162
	subq	$8, %rsp
	pushq	%r13
	movq	%r12, %r9
	movl	$92, %r8d
	leaq	.LC0(%rip), %rcx
	leaq	.LC10(%rip), %rdx
	movl	$2, %esi
	movq	%rbx, %rdi
	movl	$0, %eax
	call	__fprintf_chk@PLT
.LVL93:
	.loc 2 79 10 view .LVU163
.LBE43:
.LBE42:
	.loc 1 94 3 is_stmt 1 view .LVU164
	leaq	stdout(%rip), %rdi
	movq	%rdi, %rax
	shrq	$3, %rax
	addq	$16, %rsp
	cmpb	$0, 2147450880(%rax)
	jne	.L68
	movq	stdout(%rip), %rbx
	testq	%rbx, %rbx
	je	.L69
.L59:
.LVL94:
.LBB44:
.LBI44:
	.loc 2 77 1 view .LVU165
.LBB45:
	.loc 2 79 3 view .LVU166
	.loc 2 79 10 is_stmt 0 view .LVU167
	movl	$94, %r8d
	leaq	.LC0(%rip), %rcx
	leaq	.LC11(%rip), %rdx
	movl	$2, %esi
	movq	%rbx, %rdi
	movl	$0, %eax
	call	__fprintf_chk@PLT
.LVL95:
	.loc 2 79 10 view .LVU168
.LBE45:
.LBE44:
	.loc 1 95 1 view .LVU169
	leaq	-32(%rbp), %rsp
	popq	%rbx
	popq	%r12
	popq	%r13
	popq	%r14
	popq	%rbp
	.cfi_remember_state
	.cfi_def_cfa 7, 8
	ret
.L60:
	.cfi_restore_state
	.loc 1 87 3 view .LVU170
	call	__asan_report_load8@PLT
.LVL96:
.L61:
	leaq	.Lubsan_data25(%rip), %rdi
	call	__ubsan_handle_nonnull_arg@PLT
.LVL97:
	jmp	.L51
.L62:
	.loc 1 88 3 view .LVU171
	call	__asan_report_load8@PLT
.LVL98:
.L63:
	leaq	.Lubsan_data27(%rip), %rdi
	call	__ubsan_handle_nonnull_arg@PLT
.LVL99:
	jmp	.L53
.L64:
	.loc 1 90 3 view .LVU172
	call	__asan_report_load8@PLT
.LVL100:
.L65:
	leaq	.Lubsan_data29(%rip), %rdi
	call	__ubsan_handle_nonnull_arg@PLT
.LVL101:
	jmp	.L55
.L66:
	.loc 1 92 3 view .LVU173
	call	__asan_report_load8@PLT
.LVL102:
.L67:
	leaq	.Lubsan_data31(%rip), %rdi
	call	__ubsan_handle_nonnull_arg@PLT
.LVL103:
	jmp	.L57
.L68:
	.loc 1 94 3 view .LVU174
	call	__asan_report_load8@PLT
.LVL104:
.L69:
	leaq	.Lubsan_data33(%rip), %rdi
	call	__ubsan_handle_nonnull_arg@PLT
.LVL105:
	jmp	.L59
	.cfi_endproc
.LFE57:
	.size	dbg_mem_dump_stats, .-dbg_mem_dump_stats
	.section	.data.rel.local,"aw"
	.align 32
	.type	.Lubsan_data38, @object
	.size	.Lubsan_data38, 24
.Lubsan_data38:
	.quad	.LC0
	.long	73
	.long	20
	.quad	.Lubsan_type1
	.zero	40
	.align 32
	.type	.Lubsan_data37, @object
	.size	.Lubsan_data37, 24
.Lubsan_data37:
	.quad	.LC0
	.long	56
	.long	22
	.quad	.Lubsan_type1
	.zero	40
	.align 32
	.type	.Lubsan_data36, @object
	.size	.Lubsan_data36, 24
.Lubsan_data36:
	.quad	.LC0
	.long	53
	.long	29
	.quad	.Lubsan_type2
	.zero	40
	.data
	.align 32
	.type	.Lubsan_type2, @object
	.size	.Lubsan_type2, 10
.Lubsan_type2:
	.value	0
	.value	11
	.string	"'int'"
	.zero	54
	.section	.data.rel.local
	.align 32
	.type	.Lubsan_data35, @object
	.size	.Lubsan_data35, 24
.Lubsan_data35:
	.quad	.LC0
	.long	23
	.long	16
	.quad	.Lubsan_type1
	.zero	40
	.data
	.align 32
	.type	.Lubsan_type1, @object
	.size	.Lubsan_type1, 15
.Lubsan_type1:
	.value	0
	.value	13
	.string	"'long int'"
	.zero	49
	.section	.data.rel.local
	.align 32
	.type	.Lubsan_data33, @object
	.size	.Lubsan_data33, 40
.Lubsan_data33:
	.quad	.LC0
	.long	94
	.long	3
	.quad	0
	.long	0
	.long	0
	.long	1
	.zero	4
	.zero	56
	.align 32
	.type	.Lubsan_data31, @object
	.size	.Lubsan_data31, 40
.Lubsan_data31:
	.quad	.LC0
	.long	92
	.long	3
	.quad	0
	.long	0
	.long	0
	.long	1
	.zero	4
	.zero	56
	.align 32
	.type	.Lubsan_data29, @object
	.size	.Lubsan_data29, 40
.Lubsan_data29:
	.quad	.LC0
	.long	90
	.long	3
	.quad	0
	.long	0
	.long	0
	.long	1
	.zero	4
	.zero	56
	.align 32
	.type	.Lubsan_data27, @object
	.size	.Lubsan_data27, 40
.Lubsan_data27:
	.quad	.LC0
	.long	88
	.long	3
	.quad	0
	.long	0
	.long	0
	.long	1
	.zero	4
	.zero	56
	.align 32
	.type	.Lubsan_data25, @object
	.size	.Lubsan_data25, 40
.Lubsan_data25:
	.quad	.LC0
	.long	87
	.long	3
	.quad	0
	.long	0
	.long	0
	.long	1
	.zero	4
	.zero	56
	.align 32
	.type	.Lubsan_data23, @object
	.size	.Lubsan_data23, 40
.Lubsan_data23:
	.quad	.LC0
	.long	74
	.long	3
	.quad	0
	.long	0
	.long	0
	.long	1
	.zero	4
	.zero	56
	.align 32
	.type	.Lubsan_data21, @object
	.size	.Lubsan_data21, 40
.Lubsan_data21:
	.quad	.LC0
	.long	68
	.long	7
	.quad	0
	.long	0
	.long	0
	.long	1
	.zero	4
	.zero	56
	.align 32
	.type	.Lubsan_data19, @object
	.size	.Lubsan_data19, 40
.Lubsan_data19:
	.quad	.LC0
	.long	54
	.long	3
	.quad	0
	.long	0
	.long	0
	.long	1
	.zero	4
	.zero	56
	.align 32
	.type	.Lubsan_data17, @object
	.size	.Lubsan_data17, 40
.Lubsan_data17:
	.quad	.LC0
	.long	48
	.long	3
	.quad	0
	.long	0
	.long	0
	.long	1
	.zero	4
	.zero	56
	.align 32
	.type	.Lubsan_data15, @object
	.size	.Lubsan_data15, 40
.Lubsan_data15:
	.quad	.LC0
	.long	45
	.long	7
	.quad	0
	.long	0
	.long	0
	.long	1
	.zero	4
	.zero	56
	.align 32
	.type	.Lubsan_data13, @object
	.size	.Lubsan_data13, 40
.Lubsan_data13:
	.quad	.LC0
	.long	21
	.long	3
	.quad	0
	.long	0
	.long	0
	.long	1
	.zero	4
	.zero	56
	.align 32
	.type	.Lubsan_data10, @object
	.size	.Lubsan_data10, 24
.Lubsan_data10:
	.quad	.LC0
	.long	72
	.long	18
	.quad	.Lubsan_type0
	.zero	40
	.align 32
	.type	.Lubsan_data9, @object
	.size	.Lubsan_data9, 24
.Lubsan_data9:
	.quad	.LC0
	.long	58
	.long	20
	.quad	.Lubsan_type0
	.zero	40
	.globl	avg_reallocation
	.bss
	.align 32
	.type	avg_reallocation, @object
	.size	avg_reallocation, 8
avg_reallocation:
	.zero	64
	.globl	avg_allocation
	.align 32
	.type	avg_allocation, @object
	.size	avg_allocation, 8
avg_allocation:
	.zero	64
	.globl	nr_frees
	.align 32
	.type	nr_frees, @object
	.size	nr_frees, 8
nr_frees:
	.zero	64
	.globl	nr_reallocations
	.align 32
	.type	nr_reallocations, @object
	.size	nr_reallocations, 8
nr_reallocations:
	.zero	64
	.globl	nr_allocations
	.align 32
	.type	nr_allocations, @object
	.size	nr_allocations, 8
nr_allocations:
	.zero	64
	.globl	nr_mem_reallocated
	.align 32
	.type	nr_mem_reallocated, @object
	.size	nr_mem_reallocated, 8
nr_mem_reallocated:
	.zero	64
	.globl	nr_mem_freed
	.align 32
	.type	nr_mem_freed, @object
	.size	nr_mem_freed, 8
nr_mem_freed:
	.zero	64
	.globl	nr_mem_allocated
	.align 32
	.type	nr_mem_allocated, @object
	.size	nr_mem_allocated, 8
nr_mem_allocated:
	.zero	64
	.data
	.align 32
	.type	.Lubsan_type0, @object
	.size	.Lubsan_type0, 24
.Lubsan_type0:
	.value	0
	.value	12
	.string	"'long unsigned int'"
	.zero	40
	.globl	__odr_asan.avg_reallocation
	.bss
	.type	__odr_asan.avg_reallocation, @object
	.size	__odr_asan.avg_reallocation, 1
__odr_asan.avg_reallocation:
	.zero	1
	.section	.data.rel.local
	.align 16
	.type	.LASANLOC1, @object
	.size	.LASANLOC1, 16
.LASANLOC1:
	.quad	.LC0
	.long	13
	.long	10
	.globl	__odr_asan.avg_allocation
	.bss
	.type	__odr_asan.avg_allocation, @object
	.size	__odr_asan.avg_allocation, 1
__odr_asan.avg_allocation:
	.zero	1
	.section	.data.rel.local
	.align 16
	.type	.LASANLOC2, @object
	.size	.LASANLOC2, 16
.LASANLOC2:
	.quad	.LC0
	.long	12
	.long	10
	.globl	__odr_asan.nr_frees
	.bss
	.type	__odr_asan.nr_frees, @object
	.size	__odr_asan.nr_frees, 1
__odr_asan.nr_frees:
	.zero	1
	.section	.data.rel.local
	.align 16
	.type	.LASANLOC3, @object
	.size	.LASANLOC3, 16
.LASANLOC3:
	.quad	.LC0
	.long	11
	.long	10
	.globl	__odr_asan.nr_reallocations
	.bss
	.type	__odr_asan.nr_reallocations, @object
	.size	__odr_asan.nr_reallocations, 1
__odr_asan.nr_reallocations:
	.zero	1
	.section	.data.rel.local
	.align 16
	.type	.LASANLOC4, @object
	.size	.LASANLOC4, 16
.LASANLOC4:
	.quad	.LC0
	.long	10
	.long	10
	.globl	__odr_asan.nr_allocations
	.bss
	.type	__odr_asan.nr_allocations, @object
	.size	__odr_asan.nr_allocations, 1
__odr_asan.nr_allocations:
	.zero	1
	.section	.data.rel.local
	.align 16
	.type	.LASANLOC5, @object
	.size	.LASANLOC5, 16
.LASANLOC5:
	.quad	.LC0
	.long	9
	.long	10
	.globl	__odr_asan.nr_mem_reallocated
	.bss
	.type	__odr_asan.nr_mem_reallocated, @object
	.size	__odr_asan.nr_mem_reallocated, 1
__odr_asan.nr_mem_reallocated:
	.zero	1
	.section	.data.rel.local
	.align 16
	.type	.LASANLOC6, @object
	.size	.LASANLOC6, 16
.LASANLOC6:
	.quad	.LC0
	.long	8
	.long	9
	.globl	__odr_asan.nr_mem_freed
	.bss
	.type	__odr_asan.nr_mem_freed, @object
	.size	__odr_asan.nr_mem_freed, 1
__odr_asan.nr_mem_freed:
	.zero	1
	.section	.data.rel.local
	.align 16
	.type	.LASANLOC7, @object
	.size	.LASANLOC7, 16
.LASANLOC7:
	.quad	.LC0
	.long	7
	.long	9
	.globl	__odr_asan.nr_mem_allocated
	.bss
	.type	__odr_asan.nr_mem_allocated, @object
	.size	__odr_asan.nr_mem_allocated, 1
__odr_asan.nr_mem_allocated:
	.zero	1
	.section	.data.rel.local
	.align 16
	.type	.LASANLOC8, @object
	.size	.LASANLOC8, 16
.LASANLOC8:
	.quad	.LC0
	.long	6
	.long	9
	.section	.rodata.str1.1,"aMS",@progbits,1
.LC12:
	.string	"*.Lubsan_data38"
.LC13:
	.string	"*.Lubsan_data37"
.LC14:
	.string	"*.Lubsan_data36"
.LC15:
	.string	"*.Lubsan_type2"
.LC16:
	.string	"*.Lubsan_data35"
.LC17:
	.string	"*.Lubsan_type1"
.LC18:
	.string	"*.Lubsan_data33"
.LC19:
	.string	"*.Lubsan_data31"
.LC20:
	.string	"*.Lubsan_data29"
.LC21:
	.string	"*.Lubsan_data27"
.LC22:
	.string	"*.Lubsan_data25"
.LC23:
	.string	"*.Lubsan_data23"
.LC24:
	.string	"*.Lubsan_data21"
.LC25:
	.string	"*.Lubsan_data19"
.LC26:
	.string	"*.Lubsan_data17"
.LC27:
	.string	"*.Lubsan_data15"
.LC28:
	.string	"*.Lubsan_data13"
.LC29:
	.string	"*.Lubsan_data10"
.LC30:
	.string	"*.Lubsan_data9"
.LC31:
	.string	"avg_reallocation"
.LC32:
	.string	"avg_allocation"
.LC33:
	.string	"nr_frees"
.LC34:
	.string	"nr_reallocations"
.LC35:
	.string	"nr_allocations"
.LC36:
	.string	"nr_mem_reallocated"
.LC37:
	.string	"nr_mem_freed"
.LC38:
	.string	"nr_mem_allocated"
.LC39:
	.string	"*.Lubsan_type0"
.LC40:
	.string	"*.LC9"
.LC41:
	.string	"*.LC8"
.LC42:
	.string	"*.LC1"
.LC43:
	.string	"*.LC4"
.LC44:
	.string	"*.LC11"
.LC45:
	.string	"*.LC6"
.LC46:
	.string	"*.LC2"
.LC47:
	.string	"*.LC5"
.LC48:
	.string	"*.LC10"
.LC49:
	.string	"*.LC7"
.LC50:
	.string	"*.LC0"
.LC51:
	.string	"*.LC3"
	.section	.data.rel.local
	.align 32
	.type	.LASAN0, @object
	.size	.LASAN0, 2560
.LASAN0:
	.quad	.Lubsan_data38
	.quad	24
	.quad	64
	.quad	.LC12
	.quad	.LC0
	.quad	0
	.quad	0
	.quad	0
	.quad	.Lubsan_data37
	.quad	24
	.quad	64
	.quad	.LC13
	.quad	.LC0
	.quad	0
	.quad	0
	.quad	0
	.quad	.Lubsan_data36
	.quad	24
	.quad	64
	.quad	.LC14
	.quad	.LC0
	.quad	0
	.quad	0
	.quad	0
	.quad	.Lubsan_type2
	.quad	10
	.quad	64
	.quad	.LC15
	.quad	.LC0
	.quad	0
	.quad	0
	.quad	0
	.quad	.Lubsan_data35
	.quad	24
	.quad	64
	.quad	.LC16
	.quad	.LC0
	.quad	0
	.quad	0
	.quad	0
	.quad	.Lubsan_type1
	.quad	15
	.quad	64
	.quad	.LC17
	.quad	.LC0
	.quad	0
	.quad	0
	.quad	0
	.quad	.Lubsan_data33
	.quad	40
	.quad	96
	.quad	.LC18
	.quad	.LC0
	.quad	0
	.quad	0
	.quad	0
	.quad	.Lubsan_data31
	.quad	40
	.quad	96
	.quad	.LC19
	.quad	.LC0
	.quad	0
	.quad	0
	.quad	0
	.quad	.Lubsan_data29
	.quad	40
	.quad	96
	.quad	.LC20
	.quad	.LC0
	.quad	0
	.quad	0
	.quad	0
	.quad	.Lubsan_data27
	.quad	40
	.quad	96
	.quad	.LC21
	.quad	.LC0
	.quad	0
	.quad	0
	.quad	0
	.quad	.Lubsan_data25
	.quad	40
	.quad	96
	.quad	.LC22
	.quad	.LC0
	.quad	0
	.quad	0
	.quad	0
	.quad	.Lubsan_data23
	.quad	40
	.quad	96
	.quad	.LC23
	.quad	.LC0
	.quad	0
	.quad	0
	.quad	0
	.quad	.Lubsan_data21
	.quad	40
	.quad	96
	.quad	.LC24
	.quad	.LC0
	.quad	0
	.quad	0
	.quad	0
	.quad	.Lubsan_data19
	.quad	40
	.quad	96
	.quad	.LC25
	.quad	.LC0
	.quad	0
	.quad	0
	.quad	0
	.quad	.Lubsan_data17
	.quad	40
	.quad	96
	.quad	.LC26
	.quad	.LC0
	.quad	0
	.quad	0
	.quad	0
	.quad	.Lubsan_data15
	.quad	40
	.quad	96
	.quad	.LC27
	.quad	.LC0
	.quad	0
	.quad	0
	.quad	0
	.quad	.Lubsan_data13
	.quad	40
	.quad	96
	.quad	.LC28
	.quad	.LC0
	.quad	0
	.quad	0
	.quad	0
	.quad	.Lubsan_data10
	.quad	24
	.quad	64
	.quad	.LC29
	.quad	.LC0
	.quad	0
	.quad	0
	.quad	0
	.quad	.Lubsan_data9
	.quad	24
	.quad	64
	.quad	.LC30
	.quad	.LC0
	.quad	0
	.quad	0
	.quad	0
	.quad	avg_reallocation
	.quad	8
	.quad	64
	.quad	.LC31
	.quad	.LC0
	.quad	0
	.quad	.LASANLOC1
	.quad	__odr_asan.avg_reallocation
	.quad	avg_allocation
	.quad	8
	.quad	64
	.quad	.LC32
	.quad	.LC0
	.quad	0
	.quad	.LASANLOC2
	.quad	__odr_asan.avg_allocation
	.quad	nr_frees
	.quad	8
	.quad	64
	.quad	.LC33
	.quad	.LC0
	.quad	0
	.quad	.LASANLOC3
	.quad	__odr_asan.nr_frees
	.quad	nr_reallocations
	.quad	8
	.quad	64
	.quad	.LC34
	.quad	.LC0
	.quad	0
	.quad	.LASANLOC4
	.quad	__odr_asan.nr_reallocations
	.quad	nr_allocations
	.quad	8
	.quad	64
	.quad	.LC35
	.quad	.LC0
	.quad	0
	.quad	.LASANLOC5
	.quad	__odr_asan.nr_allocations
	.quad	nr_mem_reallocated
	.quad	8
	.quad	64
	.quad	.LC36
	.quad	.LC0
	.quad	0
	.quad	.LASANLOC6
	.quad	__odr_asan.nr_mem_reallocated
	.quad	nr_mem_freed
	.quad	8
	.quad	64
	.quad	.LC37
	.quad	.LC0
	.quad	0
	.quad	.LASANLOC7
	.quad	__odr_asan.nr_mem_freed
	.quad	nr_mem_allocated
	.quad	8
	.quad	64
	.quad	.LC38
	.quad	.LC0
	.quad	0
	.quad	.LASANLOC8
	.quad	__odr_asan.nr_mem_allocated
	.quad	.Lubsan_type0
	.quad	24
	.quad	64
	.quad	.LC39
	.quad	.LC0
	.quad	0
	.quad	0
	.quad	0
	.quad	.LC9
	.quad	93
	.quad	128
	.quad	.LC40
	.quad	.LC0
	.quad	0
	.quad	0
	.quad	0
	.quad	.LC8
	.quad	87
	.quad	128
	.quad	.LC41
	.quad	.LC0
	.quad	0
	.quad	0
	.quad	0
	.quad	.LC1
	.quad	76
	.quad	128
	.quad	.LC42
	.quad	.LC0
	.quad	0
	.quad	0
	.quad	0
	.quad	.LC4
	.quad	84
	.quad	128
	.quad	.LC43
	.quad	.LC0
	.quad	0
	.quad	0
	.quad	0
	.quad	.LC11
	.quad	142
	.quad	192
	.quad	.LC44
	.quad	.LC0
	.quad	0
	.quad	0
	.quad	0
	.quad	.LC6
	.quad	106
	.quad	160
	.quad	.LC45
	.quad	.LC0
	.quad	0
	.quad	0
	.quad	0
	.quad	.LC2
	.quad	10
	.quad	64
	.quad	.LC46
	.quad	.LC0
	.quad	0
	.quad	0
	.quad	0
	.quad	.LC5
	.quad	88
	.quad	128
	.quad	.LC47
	.quad	.LC0
	.quad	0
	.quad	0
	.quad	0
	.quad	.LC10
	.quad	72
	.quad	128
	.quad	.LC48
	.quad	.LC0
	.quad	0
	.quad	0
	.quad	0
	.quad	.LC7
	.quad	55
	.quad	96
	.quad	.LC49
	.quad	.LC0
	.quad	0
	.quad	0
	.quad	0
	.quad	.LC0
	.quad	14
	.quad	64
	.quad	.LC50
	.quad	.LC0
	.quad	0
	.quad	0
	.quad	0
	.quad	.LC3
	.quad	65
	.quad	128
	.quad	.LC51
	.quad	.LC0
	.quad	0
	.quad	0
	.quad	0
	.text
	.type	_sub_D_00099_0, @function
_sub_D_00099_0:
.LFB58:
	.cfi_startproc
	.loc 1 95 1 is_stmt 1 view .LVU175
	endbr64
	pushq	%rbp
	.cfi_def_cfa_offset 16
	.cfi_offset 6, -16
	movq	%rsp, %rbp
	.cfi_def_cfa_register 6
	movl	$40, %esi
	leaq	.LASAN0(%rip), %rdi
	call	__asan_unregister_globals@PLT
	popq	%rbp
	.cfi_def_cfa 7, 8
	ret
	.cfi_endproc
.LFE58:
	.size	_sub_D_00099_0, .-_sub_D_00099_0
	.section	.fini_array.00099,"aw"
	.align 8
	.quad	_sub_D_00099_0
	.text
	.type	_sub_I_00099_1, @function
_sub_I_00099_1:
.LFB59:
	.cfi_startproc
	.loc 1 95 1 view .LVU176
	endbr64
	pushq	%rbp
	.cfi_def_cfa_offset 16
	.cfi_offset 6, -16
	movq	%rsp, %rbp
	.cfi_def_cfa_register 6
	call	__asan_init@PLT
	call	__asan_version_mismatch_check_v8@PLT
	movl	$40, %esi
	leaq	.LASAN0(%rip), %rdi
	call	__asan_register_globals@PLT
	popq	%rbp
	.cfi_def_cfa 7, 8
	ret
	.cfi_endproc
.LFE59:
	.size	_sub_I_00099_1, .-_sub_I_00099_1
	.section	.init_array.00099,"aw"
	.align 8
	.quad	_sub_I_00099_1
	.text
.Letext0:
	.file 3 "/usr/include/bits/types.h"
	.file 4 "/usr/include/bits/stdint-intn.h"
	.file 5 "/usr/include/bits/stdint-uintn.h"
	.file 6 "/usr/include/stdint.h"
	.file 7 "/usr/lib/gcc/x86_64-pc-linux-gnu/13/include/stddef.h"
	.file 8 "/usr/include/bits/types/struct_FILE.h"
	.file 9 "/usr/include/bits/types/FILE.h"
	.file 10 "/usr/include/stdio.h"
	.file 11 "/usr/include/malloc.h"
	.file 12 "/usr/include/stdlib.h"
	.file 13 "/usr/include/bits/stdio2-decl.h"
	.file 14 "<built-in>"
	.section	.note.GNU-stack,"",@progbits
	.section	.note.gnu.property,"a"
	.align 8
	.long	1f - 0f
	.long	4f - 1f
	.long	5
0:
	.string	"GNU"
1:
	.align 8
	.long	0xc0000002
	.long	3f - 2f
2:
	.long	0x3
3:
	.align 8
4:
