	.file	"io.c"
	.text
.Ltext0:
	.file 0 "/home/unazed/Programming/c/ucc-0.2.0" "src/io.c"
	.section	.rodata
	.align 32
.LC0:
	.string	"src/io.c"
	.zero	55
	.align 32
.LC1:
	.string	"\033[1;37m%s:%u\033[0m: \033[1;31merror: \033[0m%s: failed to open filename (%s)\n"
	.zero	58
	.text
	.globl	io_open_file
	.type	io_open_file, @function
io_open_file:
.LASANPC53:
.LVL0:
.LFB53:
	.file 1 "src/io.c"
	.loc 1 8 1 view -0
	.cfi_startproc
	.loc 1 8 1 is_stmt 0 view .LVU1
	endbr64
	pushq	%rbp
	.cfi_def_cfa_offset 16
	.cfi_offset 6, -16
	movq	%rsp, %rbp
	.cfi_def_cfa_register 6
	pushq	%r14
	pushq	%r13
	pushq	%r12
	pushq	%rbx
	.cfi_offset 14, -24
	.cfi_offset 13, -32
	.cfi_offset 12, -40
	.cfi_offset 3, -48
1:	call	*mcount@GOTPCREL(%rip)
	movq	%rdi, %r12
	.loc 1 9 17 is_stmt 1 view .LVU2
	.loc 1 9 36 is_stmt 0 view .LVU3
	call	fopen@PLT
.LVL1:
	.loc 1 9 36 view .LVU4
	movq	%rax, %rbx
.LVL2:
	.loc 1 10 3 is_stmt 1 view .LVU5
	.loc 1 10 6 is_stmt 0 view .LVU6
	testq	%rax, %rax
	je	.L8
.LVL3:
.L1:
	.loc 1 16 1 view .LVU7
	movq	%rbx, %rax
	leaq	-32(%rbp), %rsp
	popq	%rbx
.LVL4:
	.loc 1 16 1 view .LVU8
	popq	%r12
.LVL5:
	.loc 1 16 1 view .LVU9
	popq	%r13
	popq	%r14
	popq	%rbp
	.cfi_remember_state
	.cfi_def_cfa 7, 8
	ret
.LVL6:
.L8:
	.cfi_restore_state
	.loc 1 12 7 is_stmt 1 view .LVU10
	.loc 1 12 8 is_stmt 0 view .LVU11
	call	__errno_location@PLT
.LVL7:
	.loc 1 12 8 view .LVU12
	movq	%rax, %r13
	.loc 1 12 7 discriminator 1 view .LVU13
	testq	%rax, %rax
	je	.L3
	testb	$3, %al
	jne	.L3
.L4:
	movq	%r13, %rax
	shrq	$3, %rax
	movzbl	2147450880(%rax), %edx
	movq	%r13, %rax
	andl	$7, %eax
	addl	$3, %eax
	cmpb	%dl, %al
	jl	.L5
	testb	%dl, %dl
	jne	.L9
.L5:
	movl	0(%r13), %edi
	call	strerror@PLT
.LVL8:
	movq	%rax, %r13
	.loc 1 12 7 discriminator 2 view .LVU14
	leaq	stderr(%rip), %rdi
	movq	%rdi, %rax
	shrq	$3, %rax
	cmpb	$0, 2147450880(%rax)
	jne	.L10
	movq	stderr(%rip), %r14
	testq	%r14, %r14
	je	.L11
.L7:
.LVL9:
.LBB16:
.LBI16:
	.file 2 "/usr/include/bits/stdio2.h"
	.loc 2 77 1 is_stmt 1 view .LVU15
.LBB17:
	.loc 2 79 3 view .LVU16
	.loc 2 79 10 is_stmt 0 view .LVU17
	subq	$8, %rsp
	pushq	%r13
	movq	%r12, %r9
	movl	$12, %r8d
	leaq	.LC0(%rip), %rcx
	leaq	.LC1(%rip), %rdx
	movl	$2, %esi
	movq	%r14, %rdi
	movl	$0, %eax
	call	__fprintf_chk@PLT
.LVL10:
	.loc 2 79 10 view .LVU18
.LBE17:
.LBE16:
	.loc 1 13 7 is_stmt 1 view .LVU19
	.loc 1 13 13 is_stmt 0 view .LVU20
	addq	$16, %rsp
	jmp	.L1
.L3:
	.loc 1 12 7 discriminator 1 view .LVU21
	movq	%r13, %rsi
	leaq	.Lubsan_data33(%rip), %rdi
	call	__ubsan_handle_type_mismatch_v1@PLT
.LVL11:
	jmp	.L4
.L9:
	movq	%r13, %rdi
	call	__asan_report_load4@PLT
.LVL12:
.L10:
	.loc 1 12 7 discriminator 2 view .LVU22
	call	__asan_report_load8@PLT
.LVL13:
.L11:
	leaq	.Lubsan_data12(%rip), %rdi
	call	__ubsan_handle_nonnull_arg@PLT
.LVL14:
	jmp	.L7
	.cfi_endproc
.LFE53:
	.size	io_open_file, .-io_open_file
	.globl	io_get_filesize
	.type	io_get_filesize, @function
io_get_filesize:
.LASANPC54:
.LVL15:
.LFB54:
	.loc 1 20 1 is_stmt 1 view -0
	.cfi_startproc
	.loc 1 20 1 is_stmt 0 view .LVU24
	endbr64
	pushq	%rbp
	.cfi_def_cfa_offset 16
	.cfi_offset 6, -16
	movq	%rsp, %rbp
	.cfi_def_cfa_register 6
	pushq	%r12
	pushq	%rbx
	.cfi_offset 12, -24
	.cfi_offset 3, -32
1:	call	*mcount@GOTPCREL(%rip)
	movq	%rdi, %rbx
	.loc 1 21 3 is_stmt 1 view .LVU25
	testq	%rdi, %rdi
	je	.L16
.LVL16:
.L13:
	.loc 1 21 3 is_stmt 0 view .LVU26
	movl	$2, %edx
	movl	$0, %esi
	movq	%rbx, %rdi
	call	fseek@PLT
.LVL17:
	.loc 1 22 17 is_stmt 1 view .LVU27
	.loc 1 22 40 is_stmt 0 view .LVU28
	testq	%rbx, %rbx
	je	.L17
.L14:
	movq	%rbx, %rdi
	call	ftell@PLT
.LVL18:
	movq	%rax, %r12
.LVL19:
	.loc 1 23 3 is_stmt 1 view .LVU29
	testq	%rbx, %rbx
	je	.L18
.LVL20:
.L15:
	.loc 1 23 3 is_stmt 0 view .LVU30
	movl	$0, %edx
	movl	$0, %esi
	movq	%rbx, %rdi
	call	fseek@PLT
.LVL21:
	.loc 1 24 3 is_stmt 1 view .LVU31
	.loc 1 25 1 is_stmt 0 view .LVU32
	movq	%r12, %rax
	popq	%rbx
.LVL22:
	.loc 1 25 1 view .LVU33
	popq	%r12
.LVL23:
	.loc 1 25 1 view .LVU34
	popq	%rbp
	.cfi_remember_state
	.cfi_def_cfa 7, 8
	ret
.LVL24:
.L16:
	.cfi_restore_state
	.loc 1 21 3 view .LVU35
	leaq	.Lubsan_data14(%rip), %rdi
	call	__ubsan_handle_nonnull_arg@PLT
.LVL25:
	jmp	.L13
.L17:
	.loc 1 22 40 view .LVU36
	leaq	.Lubsan_data15(%rip), %rdi
	call	__ubsan_handle_nonnull_arg@PLT
.LVL26:
	jmp	.L14
.LVL27:
.L18:
	.loc 1 23 3 view .LVU37
	leaq	.Lubsan_data16(%rip), %rdi
	call	__ubsan_handle_nonnull_arg@PLT
.LVL28:
	.loc 1 23 3 view .LVU38
	jmp	.L15
	.cfi_endproc
.LFE54:
	.size	io_get_filesize, .-io_get_filesize
	.globl	io_alloc_file_buffer
	.type	io_alloc_file_buffer, @function
io_alloc_file_buffer:
.LASANPC55:
.LVL29:
.LFB55:
	.loc 1 29 1 is_stmt 1 view -0
	.cfi_startproc
	.loc 1 29 1 is_stmt 0 view .LVU40
	endbr64
	pushq	%rbp
	.cfi_def_cfa_offset 16
	.cfi_offset 6, -16
	movq	%rsp, %rbp
	.cfi_def_cfa_register 6
1:	call	*mcount@GOTPCREL(%rip)
	.loc 1 30 3 is_stmt 1 view .LVU41
	.loc 1 30 10 is_stmt 0 view .LVU42
	call	io_get_filesize
.LVL30:
	.loc 1 30 10 view .LVU43
	movq	%rax, %rsi
	.loc 1 30 10 discriminator 1 view .LVU44
	movl	$1, %edx
	leaq	__func__.2(%rip), %rdi
	call	__chk_calloc_impl@PLT
.LVL31:
	.loc 1 31 1 view .LVU45
	popq	%rbp
	.cfi_def_cfa 7, 8
	ret
	.cfi_endproc
.LFE55:
	.size	io_alloc_file_buffer, .-io_alloc_file_buffer
	.section	.rodata
	.align 32
.LC2:
	.string	"buffer_size <= io_get_filesize (file)"
	.zero	58
	.align 32
.LC3:
	.string	"\033[1;37m%s:%u\033[0m: \033[1;31merror: \033[0m\033[1;37mAssertion failed: \033[0m%s\n"
	.zero	59
	.align 32
.LC4:
	.string	"\033[1;37m%s:%u\033[0m: \033[1;31merror: \033[0mWriting to the specified buffer would cause an overrun file size is %zu bytes, buffer size is %zu bytes\n"
	.zero	51
	.align 32
.LC5:
	.string	"\033[1;37m%s:%u\033[0m: \033[0;34mlog: \033[0mread less than expected (expected: %zu, read: %zu)\n"
	.zero	42
	.text
	.globl	io_read_file_into_buffer
	.type	io_read_file_into_buffer, @function
io_read_file_into_buffer:
.LASANPC56:
.LVL32:
.LFB56:
	.loc 1 35 1 is_stmt 1 view -0
	.cfi_startproc
	.loc 1 35 1 is_stmt 0 view .LVU47
	endbr64
	pushq	%rbp
	.cfi_def_cfa_offset 16
	.cfi_offset 6, -16
	movq	%rsp, %rbp
	.cfi_def_cfa_register 6
	pushq	%r13
	pushq	%r12
	pushq	%rbx
	subq	$8, %rsp
	.cfi_offset 13, -24
	.cfi_offset 12, -32
	.cfi_offset 3, -40
1:	call	*mcount@GOTPCREL(%rip)
	movq	%rdi, %r12
	movq	%rsi, %r13
	movq	%rdx, %rbx
	.loc 1 36 3 is_stmt 1 view .LVU48
	.loc 1 36 24 is_stmt 0 view .LVU49
	call	io_get_filesize
.LVL33:
	.loc 1 36 6 discriminator 1 view .LVU50
	cmpq	%rbx, %rax
	jb	.L29
	.loc 1 36 6 is_stmt 1 discriminator 2 view .LVU51
	.loc 1 39 51 view .LVU52
	.loc 1 40 17 view .LVU53
.LVL34:
.LBB18:
.LBI18:
	.loc 2 207 1 view .LVU54
.LBB19:
	.loc 2 210 3 view .LVU55
	.loc 2 211 3 view .LVU56
	.loc 2 212 5 view .LVU57
	.loc 2 212 12 is_stmt 0 view .LVU58
	movq	%r12, %rcx
	movq	%rbx, %rdx
	movl	$1, %esi
	movq	%r13, %rdi
	call	fread@PLT
.LVL35:
	movq	%rax, %r12
.LVL36:
	.loc 2 212 12 view .LVU59
.LBE19:
.LBE18:
	.loc 1 41 3 is_stmt 1 view .LVU60
	.loc 1 41 6 is_stmt 0 view .LVU61
	cmpq	%rbx, %rax
	jnb	.L20
	.loc 1 42 5 is_stmt 1 view .LVU62
	leaq	stdout(%rip), %rdi
	movq	%rdi, %rax
.LVL37:
	.loc 1 42 5 is_stmt 0 view .LVU63
	shrq	$3, %rax
	cmpb	$0, 2147450880(%rax)
	jne	.L30
	movq	stdout(%rip), %r13
.LVL38:
	.loc 1 42 5 view .LVU64
	testq	%r13, %r13
	je	.L31
.L28:
.LVL39:
.LBB20:
.LBI20:
	.loc 2 77 1 is_stmt 1 view .LVU65
.LBB21:
	.loc 2 79 3 view .LVU66
	.loc 2 79 10 is_stmt 0 view .LVU67
	subq	$8, %rsp
	pushq	%r12
	movq	%rbx, %r9
	movl	$42, %r8d
	leaq	.LC0(%rip), %rcx
	leaq	.LC5(%rip), %rdx
	movl	$2, %esi
	movq	%r13, %rdi
	movl	$0, %eax
	call	__fprintf_chk@PLT
.LVL40:
	.loc 2 79 10 view .LVU68
	addq	$16, %rsp
.LBE21:
.LBE20:
	.loc 1 44 3 is_stmt 1 view .LVU69
.L20:
	.loc 1 45 1 is_stmt 0 view .LVU70
	movq	%r12, %rax
	leaq	-24(%rbp), %rsp
	popq	%rbx
.LVL41:
	.loc 1 45 1 view .LVU71
	popq	%r12
.LVL42:
	.loc 1 45 1 view .LVU72
	popq	%r13
	popq	%rbp
	.cfi_remember_state
	.cfi_def_cfa 7, 8
	ret
.LVL43:
.L29:
	.cfi_restore_state
	.loc 1 36 51 is_stmt 1 discriminator 1 view .LVU73
	leaq	stderr(%rip), %rdi
	movq	%rdi, %rax
	shrq	$3, %rax
	cmpb	$0, 2147450880(%rax)
	jne	.L32
	movq	stderr(%rip), %r13
.LVL44:
	.loc 1 36 51 is_stmt 0 discriminator 1 view .LVU74
	testq	%r13, %r13
	je	.L33
.L23:
.LVL45:
.LBB22:
.LBI22:
	.loc 2 77 1 is_stmt 1 view .LVU75
.LBB23:
	.loc 2 79 3 view .LVU76
	.loc 2 79 10 is_stmt 0 view .LVU77
	leaq	.LC2(%rip), %r9
	movl	$36, %r8d
	leaq	.LC0(%rip), %rcx
	leaq	.LC3(%rip), %rdx
	movl	$2, %esi
	movq	%r13, %rdi
	movl	$0, %eax
	call	__fprintf_chk@PLT
.LVL46:
	.loc 2 79 10 view .LVU78
.LBE23:
.LBE22:
	.loc 1 36 171 is_stmt 1 discriminator 1 view .LVU79
	movq	%r12, %rdi
	call	io_get_filesize
.LVL47:
	movq	%rax, %r12
.LVL48:
	.loc 1 36 171 is_stmt 0 discriminator 2 view .LVU80
	leaq	stderr(%rip), %rdi
	movq	%rdi, %rax
	shrq	$3, %rax
	cmpb	$0, 2147450880(%rax)
	jne	.L34
	movq	stderr(%rip), %r13
	testq	%r13, %r13
	je	.L35
.L25:
.LVL49:
.LBB24:
.LBI24:
	.loc 2 77 1 is_stmt 1 view .LVU81
.LBB25:
	.loc 2 79 3 view .LVU82
	.loc 2 79 10 is_stmt 0 view .LVU83
	subq	$8, %rsp
	pushq	%rbx
	movq	%r12, %r9
	movl	$36, %r8d
	leaq	.LC0(%rip), %rcx
	leaq	.LC4(%rip), %rdx
	movl	$2, %esi
	movq	%r13, %rdi
	movl	$0, %eax
	call	__fprintf_chk@PLT
.LVL50:
	.loc 2 79 10 view .LVU84
.LBE25:
.LBE24:
	.loc 1 36 222 is_stmt 1 discriminator 3 view .LVU85
	call	__asan_handle_no_return@PLT
.LVL51:
	movl	$1, %edi
	call	exit@PLT
.LVL52:
.L32:
	.loc 1 36 51 is_stmt 0 discriminator 1 view .LVU86
	call	__asan_report_load8@PLT
.LVL53:
.L33:
	.loc 1 36 51 discriminator 1 view .LVU87
	leaq	.Lubsan_data17(%rip), %rdi
	call	__ubsan_handle_nonnull_arg@PLT
.LVL54:
	jmp	.L23
.LVL55:
.L34:
	.loc 1 36 171 discriminator 2 view .LVU88
	call	__asan_report_load8@PLT
.LVL56:
.L35:
	leaq	.Lubsan_data19(%rip), %rdi
	call	__ubsan_handle_nonnull_arg@PLT
.LVL57:
	jmp	.L25
.LVL58:
.L30:
	.loc 1 42 5 view .LVU89
	call	__asan_report_load8@PLT
.LVL59:
.L31:
	.loc 1 42 5 view .LVU90
	leaq	.Lubsan_data22(%rip), %rdi
	call	__ubsan_handle_nonnull_arg@PLT
.LVL60:
	jmp	.L28
	.cfi_endproc
.LFE56:
	.size	io_read_file_into_buffer, .-io_read_file_into_buffer
	.section	.rodata
	.align 32
.LC6:
	.string	"r"
	.zero	62
	.text
	.globl	io_read_file_into_memstream
	.type	io_read_file_into_memstream, @function
io_read_file_into_memstream:
.LASANPC57:
.LVL61:
.LFB57:
	.loc 1 49 1 is_stmt 1 view -0
	.cfi_startproc
	.loc 1 49 1 is_stmt 0 view .LVU92
	endbr64
	pushq	%rbp
	.cfi_def_cfa_offset 16
	.cfi_offset 6, -16
	movq	%rsp, %rbp
	.cfi_def_cfa_register 6
	pushq	%r14
	pushq	%r13
	pushq	%r12
	pushq	%rbx
	.cfi_offset 14, -24
	.cfi_offset 13, -32
	.cfi_offset 12, -40
	.cfi_offset 3, -48
1:	call	*mcount@GOTPCREL(%rip)
	movq	%rdi, %rbx
	movq	%rsi, %r14
	.loc 1 50 3 is_stmt 1 view .LVU93
	.loc 1 50 26 is_stmt 0 view .LVU94
	call	io_alloc_file_buffer
.LVL62:
	.loc 1 50 26 view .LVU95
	movq	%rax, %r12
.LVL63:
	.loc 1 51 3 is_stmt 1 view .LVU96
	.loc 1 51 21 is_stmt 0 view .LVU97
	movq	%rbx, %rdi
	call	io_get_filesize
.LVL64:
	.loc 1 51 21 view .LVU98
	movq	%rax, %r13
.LVL65:
	.loc 1 52 3 is_stmt 1 view .LVU99
	testq	%r12, %r12
	je	.L52
.LVL66:
.L37:
	.loc 1 52 3 is_stmt 0 view .LVU100
	movq	%r13, %rdx
	movq	%r12, %rsi
	movq	%rbx, %rdi
	call	io_read_file_into_buffer
.LVL67:
	.loc 1 53 3 is_stmt 1 view .LVU101
	.loc 1 53 24 is_stmt 0 view .LVU102
	movl	$32, %edx
	movl	$1, %esi
	leaq	__func__.1(%rip), %rdi
	call	__chk_calloc_impl@PLT
.LVL68:
	movq	%rax, %rbx
.LVL69:
	.loc 1 54 3 is_stmt 1 view .LVU103
	.loc 1 54 18 is_stmt 0 view .LVU104
	testq	%rax, %rax
	je	.L38
	testb	$7, %al
	jne	.L38
.LVL70:
.L39:
	.loc 1 54 18 view .LVU105
	leaq	8(%rbx), %rdx
	cmpq	$-8, %rbx
	jnb	.L53
.L40:
	leaq	8(%rbx), %rdi
	movq	%rdi, %rax
	shrq	$3, %rax
	cmpb	$0, 2147450880(%rax)
	jne	.L54
	movq	%r12, 8(%rbx)
	.loc 1 55 3 is_stmt 1 view .LVU106
	.loc 1 55 16 is_stmt 0 view .LVU107
	testq	%rbx, %rbx
	je	.L42
	.loc 1 55 16 view .LVU108
	testb	$7, %bl
	jne	.L42
.L43:
	.loc 1 55 16 view .LVU109
	leaq	24(%rbx), %rdx
	cmpq	$-24, %rbx
	jnb	.L55
.L44:
	leaq	24(%rbx), %rdi
	movq	%rdi, %rax
	shrq	$3, %rax
	cmpb	$0, 2147450880(%rax)
	jne	.L56
	movq	%r13, 24(%rbx)
	.loc 1 56 3 is_stmt 1 view .LVU110
	.loc 1 56 16 is_stmt 0 view .LVU111
	testq	%rbx, %rbx
	je	.L46
	.loc 1 56 16 view .LVU112
	testb	$7, %bl
	jne	.L46
.L47:
	.loc 1 56 16 view .LVU113
	leaq	16(%rbx), %rdi
	movq	%rdi, %rax
	shrq	$3, %rax
	cmpb	$0, 2147450880(%rax)
	jne	.L57
	movq	%r14, 16(%rbx)
	.loc 1 57 3 is_stmt 1 view .LVU114
	.loc 1 57 17 is_stmt 0 view .LVU115
	leaq	.LC6(%rip), %rdx
	movq	%r13, %rsi
	movq	%r12, %rdi
	call	fmemopen@PLT
.LVL71:
	movq	%rax, %r12
.LVL72:
	.loc 1 57 15 discriminator 1 view .LVU116
	testq	%rbx, %rbx
	je	.L49
	testb	$7, %bl
	jne	.L49
.L50:
	movq	%rbx, %rax
	shrq	$3, %rax
	cmpb	$0, 2147450880(%rax)
	jne	.L58
	movq	%r12, (%rbx)
	.loc 1 58 3 is_stmt 1 view .LVU117
	.loc 1 59 1 is_stmt 0 view .LVU118
	movq	%rbx, %rax
	popq	%rbx
.LVL73:
	.loc 1 59 1 view .LVU119
	popq	%r12
	popq	%r13
.LVL74:
	.loc 1 59 1 view .LVU120
	popq	%r14
.LVL75:
	.loc 1 59 1 view .LVU121
	popq	%rbp
	.cfi_remember_state
	.cfi_def_cfa 7, 8
	ret
.LVL76:
.L52:
	.cfi_restore_state
	.loc 1 52 3 view .LVU122
	leaq	.Lubsan_data26(%rip), %rdi
	call	__ubsan_handle_nonnull_arg@PLT
.LVL77:
	.loc 1 52 3 view .LVU123
	jmp	.L37
.LVL78:
.L38:
	.loc 1 54 18 view .LVU124
	movq	%rbx, %rsi
	leaq	.Lubsan_data34(%rip), %rdi
	call	__ubsan_handle_type_mismatch_v1@PLT
.LVL79:
	.loc 1 54 18 view .LVU125
	jmp	.L39
.L53:
	.loc 1 54 18 view .LVU126
	movq	%rbx, %rsi
	leaq	.Lubsan_data35(%rip), %rdi
	call	__ubsan_handle_pointer_overflow@PLT
.LVL80:
	jmp	.L40
.L54:
	.loc 1 54 18 view .LVU127
	call	__asan_report_store8@PLT
.LVL81:
.L42:
	.loc 1 55 16 view .LVU128
	movq	%rbx, %rsi
	leaq	.Lubsan_data36(%rip), %rdi
	call	__ubsan_handle_type_mismatch_v1@PLT
.LVL82:
	jmp	.L43
.L55:
	.loc 1 55 16 view .LVU129
	movq	%rbx, %rsi
	leaq	.Lubsan_data37(%rip), %rdi
	call	__ubsan_handle_pointer_overflow@PLT
.LVL83:
	jmp	.L44
.L56:
	.loc 1 55 16 view .LVU130
	call	__asan_report_store8@PLT
.LVL84:
.L46:
	.loc 1 56 16 view .LVU131
	movq	%rbx, %rsi
	leaq	.Lubsan_data38(%rip), %rdi
	call	__ubsan_handle_type_mismatch_v1@PLT
.LVL85:
	jmp	.L47
.L57:
	.loc 1 56 16 view .LVU132
	call	__asan_report_store8@PLT
.LVL86:
.L49:
	.loc 1 57 15 discriminator 1 view .LVU133
	movq	%rbx, %rsi
	leaq	.Lubsan_data39(%rip), %rdi
	call	__ubsan_handle_type_mismatch_v1@PLT
.LVL87:
	jmp	.L50
.L58:
	.loc 1 57 15 discriminator 1 view .LVU134
	movq	%rbx, %rdi
	call	__asan_report_store8@PLT
.LVL88:
	.cfi_endproc
.LFE57:
	.size	io_read_file_into_memstream, .-io_read_file_into_memstream
	.section	.rodata
	.align 32
.LC7:
	.string	"\033[1;37m%s:%u\033[0m: \033[1;36mminutiae: \033[0mclosing file object %p\n"
	.zero	33
	.text
	.globl	io_close_file
	.type	io_close_file, @function
io_close_file:
.LASANPC59:
.LVL89:
.LFB59:
	.loc 1 72 1 is_stmt 1 view -0
	.cfi_startproc
	.loc 1 72 1 is_stmt 0 view .LVU136
	endbr64
	pushq	%rbp
	.cfi_def_cfa_offset 16
	.cfi_offset 6, -16
	movq	%rsp, %rbp
	.cfi_def_cfa_register 6
	pushq	%r13
	pushq	%r12
	pushq	%rbx
	subq	$8, %rsp
	.cfi_offset 13, -24
	.cfi_offset 12, -32
	.cfi_offset 3, -40
1:	call	*mcount@GOTPCREL(%rip)
	movq	%rdi, %rbx
	.loc 1 73 3 is_stmt 1 view .LVU137
	.loc 1 73 129 is_stmt 0 view .LVU138
	movl	%edi, %r13d
	.loc 1 73 3 view .LVU139
	leaq	stdout(%rip), %rdi
.LVL90:
	.loc 1 73 3 view .LVU140
	movq	%rdi, %rax
	shrq	$3, %rax
	cmpb	$0, 2147450880(%rax)
	jne	.L62
	movq	stdout(%rip), %r12
	testq	%r12, %r12
	je	.L63
.L61:
.LVL91:
.LBB26:
.LBI26:
	.loc 2 77 1 is_stmt 1 view .LVU141
.LBB27:
	.loc 2 79 3 view .LVU142
	.loc 2 79 10 is_stmt 0 view .LVU143
	movq	%r13, %r9
	movl	$73, %r8d
	leaq	.LC0(%rip), %rcx
	leaq	.LC7(%rip), %rdx
	movl	$2, %esi
	movq	%r12, %rdi
	movl	$0, %eax
	call	__fprintf_chk@PLT
.LVL92:
	.loc 2 79 10 view .LVU144
.LBE27:
.LBE26:
	.loc 1 74 3 is_stmt 1 view .LVU145
	movq	%rbx, %rdi
	call	fclose@PLT
.LVL93:
	.loc 1 75 1 is_stmt 0 view .LVU146
	addq	$8, %rsp
	popq	%rbx
.LVL94:
	.loc 1 75 1 view .LVU147
	popq	%r12
	popq	%r13
	popq	%rbp
	.cfi_remember_state
	.cfi_def_cfa 7, 8
	ret
.LVL95:
.L62:
	.cfi_restore_state
	.loc 1 73 3 view .LVU148
	call	__asan_report_load8@PLT
.LVL96:
.L63:
	leaq	.Lubsan_data27(%rip), %rdi
	call	__ubsan_handle_nonnull_arg@PLT
.LVL97:
	jmp	.L61
	.cfi_endproc
.LFE59:
	.size	io_close_file, .-io_close_file
	.section	.rodata
	.align 32
.LC8:
	.string	"\033[1;37m%s:%u\033[0m: \033[1;36mminutiae: \033[0mfreeing memory stream %p\n"
	.zero	63
	.text
	.globl	io_free_memstream
	.type	io_free_memstream, @function
io_free_memstream:
.LASANPC58:
.LVL98:
.LFB58:
	.loc 1 63 1 is_stmt 1 view -0
	.cfi_startproc
	.loc 1 63 1 is_stmt 0 view .LVU150
	endbr64
	pushq	%rbp
	.cfi_def_cfa_offset 16
	.cfi_offset 6, -16
	movq	%rsp, %rbp
	.cfi_def_cfa_register 6
	pushq	%r13
	pushq	%r12
	pushq	%rbx
	subq	$8, %rsp
	.cfi_offset 13, -24
	.cfi_offset 12, -32
	.cfi_offset 3, -40
1:	call	*mcount@GOTPCREL(%rip)
	movq	%rdi, %rbx
	.loc 1 64 3 is_stmt 1 view .LVU151
	.loc 1 64 133 is_stmt 0 view .LVU152
	movl	%edi, %r13d
	.loc 1 64 3 view .LVU153
	leaq	stdout(%rip), %rdi
.LVL99:
	.loc 1 64 3 view .LVU154
	movq	%rdi, %rax
	shrq	$3, %rax
	cmpb	$0, 2147450880(%rax)
	jne	.L75
	movq	stdout(%rip), %r12
	testq	%r12, %r12
	je	.L76
.L66:
.LVL100:
.LBB28:
.LBI28:
	.loc 2 77 1 is_stmt 1 view .LVU155
.LBB29:
	.loc 2 79 3 view .LVU156
	.loc 2 79 10 is_stmt 0 view .LVU157
	movq	%r13, %r9
	movl	$64, %r8d
	leaq	.LC0(%rip), %rcx
	leaq	.LC8(%rip), %rdx
	movl	$2, %esi
	movq	%r12, %rdi
	movl	$0, %eax
	call	__fprintf_chk@PLT
.LVL101:
	.loc 2 79 10 view .LVU158
.LBE29:
.LBE28:
	.loc 1 65 3 is_stmt 1 view .LVU159
	testq	%rbx, %rbx
	je	.L67
	testb	$7, %bl
	jne	.L67
.L68:
	movq	%rbx, %rax
	shrq	$3, %rax
	cmpb	$0, 2147450880(%rax)
	jne	.L77
	movq	(%rbx), %r12
	testq	%r12, %r12
	je	.L78
.L70:
	movq	%r12, %rdi
	call	io_close_file
.LVL102:
	.loc 1 66 3 view .LVU160
	.loc 1 66 36 is_stmt 0 view .LVU161
	testq	%rbx, %rbx
	je	.L71
	testb	$7, %bl
	jne	.L71
.L72:
	leaq	8(%rbx), %rdx
	cmpq	$-8, %rbx
	jnb	.L79
.L73:
	leaq	8(%rbx), %rdi
	movq	%rdi, %rax
	shrq	$3, %rax
	cmpb	$0, 2147450880(%rax)
	jne	.L80
	movq	8(%rbx), %rsi
	.loc 1 66 3 view .LVU162
	leaq	__func__.0(%rip), %r12
	movq	%r12, %rdi
	call	__chk_free_impl@PLT
.LVL103:
	.loc 1 67 3 is_stmt 1 view .LVU163
	movq	%rbx, %rsi
	movq	%r12, %rdi
	call	__chk_free_impl@PLT
.LVL104:
	.loc 1 68 1 is_stmt 0 view .LVU164
	addq	$8, %rsp
	popq	%rbx
.LVL105:
	.loc 1 68 1 view .LVU165
	popq	%r12
	popq	%r13
	popq	%rbp
	.cfi_remember_state
	.cfi_def_cfa 7, 8
	ret
.LVL106:
.L75:
	.cfi_restore_state
	.loc 1 64 3 view .LVU166
	call	__asan_report_load8@PLT
.LVL107:
.L76:
	leaq	.Lubsan_data30(%rip), %rdi
	call	__ubsan_handle_nonnull_arg@PLT
.LVL108:
	jmp	.L66
.L67:
	.loc 1 65 3 view .LVU167
	movq	%rbx, %rsi
	leaq	.Lubsan_data40(%rip), %rdi
	call	__ubsan_handle_type_mismatch_v1@PLT
.LVL109:
	jmp	.L68
.L77:
	.loc 1 65 3 view .LVU168
	movq	%rbx, %rdi
	call	__asan_report_load8@PLT
.LVL110:
.L78:
	.loc 1 65 3 view .LVU169
	leaq	.Lubsan_data32(%rip), %rdi
	call	__ubsan_handle_nonnull_arg@PLT
.LVL111:
	jmp	.L70
.L71:
	.loc 1 66 36 view .LVU170
	movq	%rbx, %rsi
	leaq	.Lubsan_data41(%rip), %rdi
	call	__ubsan_handle_type_mismatch_v1@PLT
.LVL112:
	jmp	.L72
.L79:
	.loc 1 66 36 view .LVU171
	movq	%rbx, %rsi
	leaq	.Lubsan_data42(%rip), %rdi
	call	__ubsan_handle_pointer_overflow@PLT
.LVL113:
	jmp	.L73
.L80:
	.loc 1 66 36 view .LVU172
	call	__asan_report_load8@PLT
.LVL114:
	.cfi_endproc
.LFE58:
	.size	io_free_memstream, .-io_free_memstream
	.section	.data.rel.local,"aw"
	.align 32
	.type	.Lubsan_data42, @object
	.size	.Lubsan_data42, 16
.Lubsan_data42:
	.quad	.LC0
	.long	66
	.long	36
	.zero	48
	.align 32
	.type	.Lubsan_data41, @object
	.size	.Lubsan_data41, 32
.Lubsan_data41:
	.quad	.LC0
	.long	66
	.long	36
	.quad	.Lubsan_type2
	.byte	3
	.byte	3
	.zero	6
	.zero	32
	.align 32
	.type	.Lubsan_data40, @object
	.size	.Lubsan_data40, 32
.Lubsan_data40:
	.quad	.LC0
	.long	65
	.long	3
	.quad	.Lubsan_type2
	.byte	3
	.byte	3
	.zero	6
	.zero	32
	.align 32
	.type	.Lubsan_data39, @object
	.size	.Lubsan_data39, 32
.Lubsan_data39:
	.quad	.LC0
	.long	57
	.long	15
	.quad	.Lubsan_type2
	.byte	3
	.byte	3
	.zero	6
	.zero	32
	.align 32
	.type	.Lubsan_data38, @object
	.size	.Lubsan_data38, 32
.Lubsan_data38:
	.quad	.LC0
	.long	56
	.long	16
	.quad	.Lubsan_type2
	.byte	3
	.byte	3
	.zero	6
	.zero	32
	.align 32
	.type	.Lubsan_data37, @object
	.size	.Lubsan_data37, 16
.Lubsan_data37:
	.quad	.LC0
	.long	55
	.long	16
	.zero	48
	.align 32
	.type	.Lubsan_data36, @object
	.size	.Lubsan_data36, 32
.Lubsan_data36:
	.quad	.LC0
	.long	55
	.long	16
	.quad	.Lubsan_type2
	.byte	3
	.byte	3
	.zero	6
	.zero	32
	.align 32
	.type	.Lubsan_data35, @object
	.size	.Lubsan_data35, 16
.Lubsan_data35:
	.quad	.LC0
	.long	54
	.long	18
	.zero	48
	.align 32
	.type	.Lubsan_data34, @object
	.size	.Lubsan_data34, 32
.Lubsan_data34:
	.quad	.LC0
	.long	54
	.long	18
	.quad	.Lubsan_type2
	.byte	3
	.byte	3
	.zero	6
	.zero	32
	.data
	.align 32
	.type	.Lubsan_type2, @object
	.size	.Lubsan_type2, 23
.Lubsan_type2:
	.value	-1
	.value	0
	.string	"'struct <unknown>'"
	.zero	41
	.section	.data.rel.local
	.align 32
	.type	.Lubsan_data33, @object
	.size	.Lubsan_data33, 32
.Lubsan_data33:
	.quad	.LC0
	.long	12
	.long	7
	.quad	.Lubsan_type1
	.byte	2
	.byte	0
	.zero	6
	.zero	32
	.data
	.align 32
	.type	.Lubsan_type1, @object
	.size	.Lubsan_type1, 10
.Lubsan_type1:
	.value	-1
	.value	0
	.string	"'int'"
	.zero	54
	.section	.data.rel.local
	.align 32
	.type	.Lubsan_data32, @object
	.size	.Lubsan_data32, 40
.Lubsan_data32:
	.quad	.LC0
	.long	65
	.long	3
	.quad	0
	.long	0
	.long	0
	.long	1
	.zero	4
	.zero	56
	.align 32
	.type	.Lubsan_data30, @object
	.size	.Lubsan_data30, 40
.Lubsan_data30:
	.quad	.LC0
	.long	64
	.long	3
	.quad	0
	.long	0
	.long	0
	.long	1
	.zero	4
	.zero	56
	.align 32
	.type	.Lubsan_data27, @object
	.size	.Lubsan_data27, 40
.Lubsan_data27:
	.quad	.LC0
	.long	73
	.long	3
	.quad	0
	.long	0
	.long	0
	.long	1
	.zero	4
	.zero	56
	.align 32
	.type	.Lubsan_data26, @object
	.size	.Lubsan_data26, 40
.Lubsan_data26:
	.quad	.LC0
	.long	52
	.long	3
	.quad	0
	.long	0
	.long	0
	.long	2
	.zero	4
	.zero	56
	.align 32
	.type	.Lubsan_data22, @object
	.size	.Lubsan_data22, 40
.Lubsan_data22:
	.quad	.LC0
	.long	42
	.long	5
	.quad	0
	.long	0
	.long	0
	.long	1
	.zero	4
	.zero	56
	.align 32
	.type	.Lubsan_data19, @object
	.size	.Lubsan_data19, 40
.Lubsan_data19:
	.quad	.LC0
	.long	36
	.long	171
	.quad	0
	.long	0
	.long	0
	.long	1
	.zero	4
	.zero	56
	.align 32
	.type	.Lubsan_data17, @object
	.size	.Lubsan_data17, 40
.Lubsan_data17:
	.quad	.LC0
	.long	36
	.long	51
	.quad	0
	.long	0
	.long	0
	.long	1
	.zero	4
	.zero	56
	.align 32
	.type	.Lubsan_data16, @object
	.size	.Lubsan_data16, 40
.Lubsan_data16:
	.quad	.LC0
	.long	23
	.long	3
	.quad	0
	.long	0
	.long	0
	.long	1
	.zero	4
	.zero	56
	.align 32
	.type	.Lubsan_data15, @object
	.size	.Lubsan_data15, 40
.Lubsan_data15:
	.quad	.LC0
	.long	22
	.long	40
	.quad	0
	.long	0
	.long	0
	.long	1
	.zero	4
	.zero	56
	.align 32
	.type	.Lubsan_data14, @object
	.size	.Lubsan_data14, 40
.Lubsan_data14:
	.quad	.LC0
	.long	21
	.long	3
	.quad	0
	.long	0
	.long	0
	.long	1
	.zero	4
	.zero	56
	.align 32
	.type	.Lubsan_data12, @object
	.size	.Lubsan_data12, 40
.Lubsan_data12:
	.quad	.LC0
	.long	12
	.long	7
	.quad	0
	.long	0
	.long	0
	.long	1
	.zero	4
	.zero	56
	.section	.rodata
	.align 32
	.type	__func__.0, @object
	.size	__func__.0, 18
__func__.0:
	.string	"io_free_memstream"
	.zero	46
	.align 32
	.type	__func__.1, @object
	.size	__func__.1, 28
__func__.1:
	.string	"io_read_file_into_memstream"
	.zero	36
	.align 32
	.type	__func__.2, @object
	.size	__func__.2, 21
__func__.2:
	.string	"io_alloc_file_buffer"
	.zero	43
	.section	.data.rel.local
	.align 16
	.type	.LASANLOC1, @object
	.size	.LASANLOC1, 16
.LASANLOC1:
	.quad	.LC0
	.long	66
	.long	20
	.align 16
	.type	.LASANLOC2, @object
	.size	.LASANLOC2, 16
.LASANLOC2:
	.quad	.LC0
	.long	53
	.long	43
	.align 16
	.type	.LASANLOC3, @object
	.size	.LASANLOC3, 16
.LASANLOC3:
	.quad	.LC0
	.long	30
	.long	29
	.section	.rodata.str1.1,"aMS",@progbits,1
.LC9:
	.string	"*.Lubsan_data42"
.LC10:
	.string	"*.Lubsan_data41"
.LC11:
	.string	"*.Lubsan_data40"
.LC12:
	.string	"*.Lubsan_data39"
.LC13:
	.string	"*.Lubsan_data38"
.LC14:
	.string	"*.Lubsan_data37"
.LC15:
	.string	"*.Lubsan_data36"
.LC16:
	.string	"*.Lubsan_data35"
.LC17:
	.string	"*.Lubsan_data34"
.LC18:
	.string	"*.Lubsan_type2"
.LC19:
	.string	"*.Lubsan_data33"
.LC20:
	.string	"*.Lubsan_type1"
.LC21:
	.string	"*.Lubsan_data32"
.LC22:
	.string	"*.Lubsan_data30"
.LC23:
	.string	"*.Lubsan_data27"
.LC24:
	.string	"*.Lubsan_data26"
.LC25:
	.string	"*.Lubsan_data22"
.LC26:
	.string	"*.Lubsan_data19"
.LC27:
	.string	"*.Lubsan_data17"
.LC28:
	.string	"*.Lubsan_data16"
.LC29:
	.string	"*.Lubsan_data15"
.LC30:
	.string	"*.Lubsan_data14"
.LC31:
	.string	"*.Lubsan_data12"
.LC32:
	.string	"__func__"
.LC33:
	.string	"*.LC3"
.LC34:
	.string	"*.LC2"
.LC35:
	.string	"*.LC8"
.LC36:
	.string	"*.LC4"
.LC37:
	.string	"*.LC1"
.LC38:
	.string	"*.LC6"
.LC39:
	.string	"*.LC7"
.LC40:
	.string	"*.LC5"
.LC41:
	.string	"*.LC0"
	.section	.data.rel.local
	.align 32
	.type	.LASAN0, @object
	.size	.LASAN0, 2240
.LASAN0:
	.quad	.Lubsan_data42
	.quad	16
	.quad	64
	.quad	.LC9
	.quad	.LC0
	.quad	0
	.quad	0
	.quad	0
	.quad	.Lubsan_data41
	.quad	32
	.quad	64
	.quad	.LC10
	.quad	.LC0
	.quad	0
	.quad	0
	.quad	0
	.quad	.Lubsan_data40
	.quad	32
	.quad	64
	.quad	.LC11
	.quad	.LC0
	.quad	0
	.quad	0
	.quad	0
	.quad	.Lubsan_data39
	.quad	32
	.quad	64
	.quad	.LC12
	.quad	.LC0
	.quad	0
	.quad	0
	.quad	0
	.quad	.Lubsan_data38
	.quad	32
	.quad	64
	.quad	.LC13
	.quad	.LC0
	.quad	0
	.quad	0
	.quad	0
	.quad	.Lubsan_data37
	.quad	16
	.quad	64
	.quad	.LC14
	.quad	.LC0
	.quad	0
	.quad	0
	.quad	0
	.quad	.Lubsan_data36
	.quad	32
	.quad	64
	.quad	.LC15
	.quad	.LC0
	.quad	0
	.quad	0
	.quad	0
	.quad	.Lubsan_data35
	.quad	16
	.quad	64
	.quad	.LC16
	.quad	.LC0
	.quad	0
	.quad	0
	.quad	0
	.quad	.Lubsan_data34
	.quad	32
	.quad	64
	.quad	.LC17
	.quad	.LC0
	.quad	0
	.quad	0
	.quad	0
	.quad	.Lubsan_type2
	.quad	23
	.quad	64
	.quad	.LC18
	.quad	.LC0
	.quad	0
	.quad	0
	.quad	0
	.quad	.Lubsan_data33
	.quad	32
	.quad	64
	.quad	.LC19
	.quad	.LC0
	.quad	0
	.quad	0
	.quad	0
	.quad	.Lubsan_type1
	.quad	10
	.quad	64
	.quad	.LC20
	.quad	.LC0
	.quad	0
	.quad	0
	.quad	0
	.quad	.Lubsan_data32
	.quad	40
	.quad	96
	.quad	.LC21
	.quad	.LC0
	.quad	0
	.quad	0
	.quad	0
	.quad	.Lubsan_data30
	.quad	40
	.quad	96
	.quad	.LC22
	.quad	.LC0
	.quad	0
	.quad	0
	.quad	0
	.quad	.Lubsan_data27
	.quad	40
	.quad	96
	.quad	.LC23
	.quad	.LC0
	.quad	0
	.quad	0
	.quad	0
	.quad	.Lubsan_data26
	.quad	40
	.quad	96
	.quad	.LC24
	.quad	.LC0
	.quad	0
	.quad	0
	.quad	0
	.quad	.Lubsan_data22
	.quad	40
	.quad	96
	.quad	.LC25
	.quad	.LC0
	.quad	0
	.quad	0
	.quad	0
	.quad	.Lubsan_data19
	.quad	40
	.quad	96
	.quad	.LC26
	.quad	.LC0
	.quad	0
	.quad	0
	.quad	0
	.quad	.Lubsan_data17
	.quad	40
	.quad	96
	.quad	.LC27
	.quad	.LC0
	.quad	0
	.quad	0
	.quad	0
	.quad	.Lubsan_data16
	.quad	40
	.quad	96
	.quad	.LC28
	.quad	.LC0
	.quad	0
	.quad	0
	.quad	0
	.quad	.Lubsan_data15
	.quad	40
	.quad	96
	.quad	.LC29
	.quad	.LC0
	.quad	0
	.quad	0
	.quad	0
	.quad	.Lubsan_data14
	.quad	40
	.quad	96
	.quad	.LC30
	.quad	.LC0
	.quad	0
	.quad	0
	.quad	0
	.quad	.Lubsan_data12
	.quad	40
	.quad	96
	.quad	.LC31
	.quad	.LC0
	.quad	0
	.quad	0
	.quad	0
	.quad	__func__.0
	.quad	18
	.quad	64
	.quad	.LC32
	.quad	.LC0
	.quad	0
	.quad	.LASANLOC1
	.quad	0
	.quad	__func__.1
	.quad	28
	.quad	64
	.quad	.LC32
	.quad	.LC0
	.quad	0
	.quad	.LASANLOC2
	.quad	0
	.quad	__func__.2
	.quad	21
	.quad	64
	.quad	.LC32
	.quad	.LC0
	.quad	0
	.quad	.LASANLOC3
	.quad	0
	.quad	.LC3
	.quad	69
	.quad	128
	.quad	.LC33
	.quad	.LC0
	.quad	0
	.quad	0
	.quad	0
	.quad	.LC2
	.quad	38
	.quad	96
	.quad	.LC34
	.quad	.LC0
	.quad	0
	.quad	0
	.quad	0
	.quad	.LC8
	.quad	65
	.quad	128
	.quad	.LC35
	.quad	.LC0
	.quad	0
	.quad	0
	.quad	0
	.quad	.LC4
	.quad	141
	.quad	192
	.quad	.LC36
	.quad	.LC0
	.quad	0
	.quad	0
	.quad	0
	.quad	.LC1
	.quad	70
	.quad	128
	.quad	.LC37
	.quad	.LC0
	.quad	0
	.quad	0
	.quad	0
	.quad	.LC6
	.quad	2
	.quad	64
	.quad	.LC38
	.quad	.LC0
	.quad	0
	.quad	0
	.quad	0
	.quad	.LC7
	.quad	63
	.quad	96
	.quad	.LC39
	.quad	.LC0
	.quad	0
	.quad	0
	.quad	0
	.quad	.LC5
	.quad	86
	.quad	128
	.quad	.LC40
	.quad	.LC0
	.quad	0
	.quad	0
	.quad	0
	.quad	.LC0
	.quad	9
	.quad	64
	.quad	.LC41
	.quad	.LC0
	.quad	0
	.quad	0
	.quad	0
	.text
	.type	_sub_D_00099_0, @function
_sub_D_00099_0:
.LFB60:
	.cfi_startproc
	.loc 1 75 1 is_stmt 1 view .LVU173
	endbr64
	pushq	%rbp
	.cfi_def_cfa_offset 16
	.cfi_offset 6, -16
	movq	%rsp, %rbp
	.cfi_def_cfa_register 6
	movl	$35, %esi
	leaq	.LASAN0(%rip), %rdi
	call	__asan_unregister_globals@PLT
	popq	%rbp
	.cfi_def_cfa 7, 8
	ret
	.cfi_endproc
.LFE60:
	.size	_sub_D_00099_0, .-_sub_D_00099_0
	.section	.fini_array.00099,"aw"
	.align 8
	.quad	_sub_D_00099_0
	.text
	.type	_sub_I_00099_1, @function
_sub_I_00099_1:
.LFB61:
	.cfi_startproc
	.loc 1 75 1 view .LVU174
	endbr64
	pushq	%rbp
	.cfi_def_cfa_offset 16
	.cfi_offset 6, -16
	movq	%rsp, %rbp
	.cfi_def_cfa_register 6
	call	__asan_init@PLT
	call	__asan_version_mismatch_check_v8@PLT
	movl	$35, %esi
	leaq	.LASAN0(%rip), %rdi
	call	__asan_register_globals@PLT
	popq	%rbp
	.cfi_def_cfa 7, 8
	ret
	.cfi_endproc
.LFE61:
	.size	_sub_I_00099_1, .-_sub_I_00099_1
	.section	.init_array.00099,"aw"
	.align 8
	.quad	_sub_I_00099_1
	.text
.Letext0:
	.file 3 "/usr/include/bits/types.h"
	.file 4 "/usr/include/bits/stdint-uintn.h"
	.file 5 "/usr/include/stdint.h"
	.file 6 "/usr/lib/gcc/x86_64-pc-linux-gnu/13/include/stddef.h"
	.file 7 "/usr/include/bits/types/struct_FILE.h"
	.file 8 "/usr/include/bits/types/FILE.h"
	.file 9 "/usr/include/stdio.h"
	.file 10 "include/io.h"
	.file 11 "/usr/include/bits/stdio2-decl.h"
	.file 12 "/usr/include/stdlib.h"
	.file 13 "include/generic.h"
	.file 14 "/usr/include/string.h"
	.file 15 "<built-in>"
	.file 16 "/usr/include/errno.h"
	.section	.note.GNU-stack,"",@progbits
	.section	.note.gnu.property,"a"
	.align 8
	.long	1f - 0f
	.long	4f - 1f
	.long	5
0:
	.string	"GNU"
1:
	.align 8
	.long	0xc0000002
	.long	3f - 2f
2:
	.long	0x3
3:
	.align 8
4:
