	.file	"lexer.c"
	.text
.Ltext0:
	.file 0 "/home/unazed/Programming/c/ucc-0.2.0" "src/lexer.c"
	.section	.rodata
	.align 32
.LC0:
	.string	"src/lexer.c"
	.zero	52
	.align 32
.LC1:
	.string	"\033[1;37m%s:%u\033[0m: \033[1;36mminutiae: \033[0mfreeing lexeme array at %p\n"
	.zero	61
	.text
	.type	lex_ctx_free_lexeme_arrays, @function
lex_ctx_free_lexeme_arrays:
.LASANPC72:
.LVL0:
.LFB72:
	.file 1 "src/lexer.c"
	.loc 1 490 1 view -0
	.cfi_startproc
	.loc 1 490 1 is_stmt 0 view .LVU1
	endbr64
	pushq	%rbp
	.cfi_def_cfa_offset 16
	.cfi_offset 6, -16
	movq	%rsp, %rbp
	.cfi_def_cfa_register 6
	pushq	%r13
	pushq	%r12
	pushq	%rbx
	subq	$8, %rsp
	.cfi_offset 13, -24
	.cfi_offset 12, -32
	.cfi_offset 3, -40
1:	call	*mcount@GOTPCREL(%rip)
	movq	%rdi, %rbx
	.loc 1 491 3 is_stmt 1 view .LVU2
	.loc 1 491 140 is_stmt 0 view .LVU3
	movl	%edi, %r13d
	.loc 1 491 3 view .LVU4
	leaq	stdout(%rip), %rdi
.LVL1:
	.loc 1 491 3 view .LVU5
	movq	%rdi, %rax
	shrq	$3, %rax
	cmpb	$0, 2147450880(%rax)
	jne	.L5
	movq	stdout(%rip), %r12
	testq	%r12, %r12
	je	.L6
.L3:
.LVL2:
.LBB82:
.LBI82:
	.file 2 "/usr/include/bits/stdio2.h"
	.loc 2 77 1 is_stmt 1 view .LVU6
.LBB83:
	.loc 2 79 3 view .LVU7
	.loc 2 79 10 is_stmt 0 view .LVU8
	movq	%r13, %r9
	movl	$491, %r8d
	leaq	.LC0(%rip), %rcx
	leaq	.LC1(%rip), %rdx
	movl	$2, %esi
	movq	%r12, %rdi
	movl	$0, %eax
	call	__fprintf_chk@PLT
.LVL3:
	.loc 2 79 10 view .LVU9
.LBE83:
.LBE82:
	.loc 1 492 3 is_stmt 1 view .LVU10
	testq	%rbx, %rbx
	je	.L7
.L4:
	movq	__chk_free_impl_nofn@GOTPCREL(%rip), %rsi
	movq	%rbx, %rdi
	call	array_free_cb@PLT
.LVL4:
	.loc 1 493 1 is_stmt 0 view .LVU11
	addq	$8, %rsp
	popq	%rbx
.LVL5:
	.loc 1 493 1 view .LVU12
	popq	%r12
	popq	%r13
	popq	%rbp
	.cfi_remember_state
	.cfi_def_cfa 7, 8
	ret
.LVL6:
.L5:
	.cfi_restore_state
	.loc 1 491 3 view .LVU13
	call	__asan_report_load8@PLT
.LVL7:
.L6:
	leaq	.Lubsan_data161(%rip), %rdi
	call	__ubsan_handle_nonnull_arg@PLT
.LVL8:
	jmp	.L3
.L7:
	.loc 1 492 3 view .LVU14
	leaq	.Lubsan_data163(%rip), %rdi
	call	__ubsan_handle_nonnull_arg@PLT
.LVL9:
	jmp	.L4
	.cfi_endproc
.LFE72:
	.size	lex_ctx_free_lexeme_arrays, .-lex_ctx_free_lexeme_arrays
	.type	lex_ctx_length_until_eol, @function
lex_ctx_length_until_eol:
.LASANPC56:
.LVL10:
.LFB56:
	.loc 1 72 1 is_stmt 1 view -0
	.cfi_startproc
	.loc 1 72 1 is_stmt 0 view .LVU16
	pushq	%rbp
	.cfi_def_cfa_offset 16
	.cfi_offset 6, -16
	movq	%rsp, %rbp
	.cfi_def_cfa_register 6
	pushq	%r14
	pushq	%r13
	pushq	%r12
	pushq	%rbx
	.cfi_offset 14, -24
	.cfi_offset 13, -32
	.cfi_offset 12, -40
	.cfi_offset 3, -48
1:	call	*mcount@GOTPCREL(%rip)
	movq	%rdi, %rbx
	.loc 1 73 3 is_stmt 1 view .LVU17
.LVL11:
	.loc 1 73 24 view .LVU18
	.loc 1 73 37 discriminator 1 view .LVU19
	.loc 1 73 12 is_stmt 0 view .LVU20
	movl	$0, %r12d
	.loc 1 73 43 view .LVU21
	jmp	.L9
.LVL12:
.L18:
	.loc 1 77 5 is_stmt 1 view .LVU22
	.loc 1 77 11 is_stmt 0 view .LVU23
	addq	$1, %r12
.LVL13:
.L9:
	.loc 1 73 96 is_stmt 1 discriminator 1 view .LVU24
	.loc 1 73 57 is_stmt 0 discriminator 1 view .LVU25
	movq	%r12, %r14
	testq	%rbx, %rbx
	je	.L11
	testb	$7, %bl
	jne	.L11
.L12:
	movq	%rbx, %rax
	shrq	$3, %rax
	cmpb	$0, 2147450880(%rax)
	jne	.L16
	movq	(%rbx), %r13
	testq	%r13, %r13
	je	.L17
.L14:
	movq	%r14, %rsi
	movq	%r13, %rdi
	call	fpeek@PLT
.LVL14:
	.loc 1 73 96 discriminator 1 view .LVU26
	testl	%eax, %eax
	jle	.L8
	.loc 1 75 5 is_stmt 1 view .LVU27
	.loc 1 75 17 is_stmt 0 view .LVU28
	cmpl	$10, %eax
	sete	%dl
	.loc 1 75 36 view .LVU29
	cmpl	$-1, %eax
	sete	%al
.LVL15:
	.loc 1 75 8 view .LVU30
	orb	%al, %dl
	je	.L18
.L8:
	.loc 1 80 1 view .LVU31
	movq	%r12, %rax
	popq	%rbx
.LVL16:
	.loc 1 80 1 view .LVU32
	popq	%r12
.LVL17:
	.loc 1 80 1 view .LVU33
	popq	%r13
	popq	%r14
.LVL18:
	.loc 1 80 1 view .LVU34
	popq	%rbp
	.cfi_remember_state
	.cfi_def_cfa 7, 8
	ret
.LVL19:
.L11:
	.cfi_restore_state
	.loc 1 73 57 discriminator 1 view .LVU35
	movq	%rbx, %rsi
	leaq	.Lubsan_data172(%rip), %rdi
	call	__ubsan_handle_type_mismatch_v1@PLT
.LVL20:
	jmp	.L12
.L16:
	.loc 1 73 57 discriminator 1 view .LVU36
	movq	%rbx, %rdi
	call	__asan_report_load8@PLT
.LVL21:
.L17:
	.loc 1 73 57 discriminator 1 view .LVU37
	leaq	.Lubsan_data11(%rip), %rdi
	call	__ubsan_handle_nonnull_arg@PLT
.LVL22:
	jmp	.L14
	.cfi_endproc
.LFE56:
	.size	lex_ctx_length_until_eol, .-lex_ctx_length_until_eol
	.type	lex_ctx_create_lexeme, @function
lex_ctx_create_lexeme:
.LASANPC55:
.LVL23:
.LFB55:
	.loc 1 62 1 is_stmt 1 view -0
	.cfi_startproc
	.loc 1 62 1 is_stmt 0 view .LVU39
	pushq	%rbp
	.cfi_def_cfa_offset 16
	.cfi_offset 6, -16
	movq	%rsp, %rbp
	.cfi_def_cfa_register 6
	pushq	%r14
	pushq	%r13
	pushq	%r12
	pushq	%rbx
	.cfi_offset 14, -24
	.cfi_offset 13, -32
	.cfi_offset 12, -40
	.cfi_offset 3, -48
1:	call	*mcount@GOTPCREL(%rip)
	movq	%rdi, %r12
	movl	%esi, %r13d
	movq	%rdx, %r14
	.loc 1 63 3 is_stmt 1 view .LVU40
	.loc 1 63 21 is_stmt 0 view .LVU41
	movl	$24, %edx
.LVL24:
	.loc 1 63 21 view .LVU42
	movl	$1, %esi
.LVL25:
	.loc 1 63 21 view .LVU43
	leaq	__func__.1(%rip), %rdi
.LVL26:
	.loc 1 63 21 view .LVU44
	call	__chk_calloc_impl@PLT
.LVL27:
	movq	%rax, %rbx
.LVL28:
	.loc 1 64 3 is_stmt 1 view .LVU45
	.loc 1 64 35 is_stmt 0 view .LVU46
	testq	%r12, %r12
	je	.L20
	testb	$7, %r12b
	jne	.L20
.LVL29:
.L21:
	.loc 1 64 35 view .LVU47
	movq	%r12, %rax
	shrq	$3, %rax
	cmpb	$0, 2147450880(%rax)
	jne	.L35
	movq	(%r12), %r12
.LVL30:
	.loc 1 64 35 view .LVU48
	testq	%r12, %r12
	je	.L36
.L23:
	movq	%r12, %rdi
	call	ftell@PLT
.LVL31:
	movq	%rax, %r12
	.loc 1 64 23 discriminator 1 view .LVU49
	testq	%rbx, %rbx
	je	.L24
	testb	$7, %bl
	jne	.L24
.L25:
	leaq	8(%rbx), %rdx
	cmpq	$-8, %rbx
	jnb	.L37
.L26:
	leaq	8(%rbx), %rdi
	movq	%rdi, %rax
	shrq	$3, %rax
	cmpb	$0, 2147450880(%rax)
	jne	.L38
	movq	%r12, 8(%rbx)
	.loc 1 65 3 is_stmt 1 view .LVU50
	.loc 1 65 18 is_stmt 0 view .LVU51
	testq	%rbx, %rbx
	je	.L28
	testb	$7, %bl
	jne	.L28
.L29:
	movq	%rbx, %rax
	shrq	$3, %rax
	cmpb	$0, 2147450880(%rax)
	jne	.L39
	movq	%r14, (%rbx)
	.loc 1 66 3 is_stmt 1 view .LVU52
	.loc 1 66 16 is_stmt 0 view .LVU53
	testq	%rbx, %rbx
	je	.L31
	.loc 1 66 16 view .LVU54
	testb	$7, %bl
	jne	.L31
.L32:
	.loc 1 66 16 view .LVU55
	leaq	16(%rbx), %rdx
	cmpq	$-16, %rbx
	jnb	.L40
.L33:
	leaq	16(%rbx), %rdi
	movq	%rdi, %rax
	shrq	$3, %rax
	movzbl	2147450880(%rax), %eax
	testb	%al, %al
	je	.L34
	cmpb	$3, %al
	jle	.L41
.L34:
	movl	%r13d, 16(%rbx)
	.loc 1 67 3 is_stmt 1 view .LVU56
	.loc 1 68 1 is_stmt 0 view .LVU57
	movq	%rbx, %rax
	popq	%rbx
.LVL32:
	.loc 1 68 1 view .LVU58
	popq	%r12
	popq	%r13
.LVL33:
	.loc 1 68 1 view .LVU59
	popq	%r14
.LVL34:
	.loc 1 68 1 view .LVU60
	popq	%rbp
	.cfi_remember_state
	.cfi_def_cfa 7, 8
	ret
.LVL35:
.L20:
	.cfi_restore_state
	.loc 1 64 35 view .LVU61
	movq	%r12, %rsi
	leaq	.Lubsan_data173(%rip), %rdi
	call	__ubsan_handle_type_mismatch_v1@PLT
.LVL36:
	.loc 1 64 35 view .LVU62
	jmp	.L21
.L35:
	.loc 1 64 35 view .LVU63
	movq	%r12, %rdi
	call	__asan_report_load8@PLT
.LVL37:
.L36:
	.loc 1 64 35 view .LVU64
	leaq	.Lubsan_data12(%rip), %rdi
	call	__ubsan_handle_nonnull_arg@PLT
.LVL38:
	jmp	.L23
.L24:
	.loc 1 64 23 discriminator 1 view .LVU65
	movq	%rbx, %rsi
	leaq	.Lubsan_data174(%rip), %rdi
	call	__ubsan_handle_type_mismatch_v1@PLT
.LVL39:
	jmp	.L25
.L37:
	.loc 1 64 23 discriminator 1 view .LVU66
	movq	%rbx, %rsi
	leaq	.Lubsan_data175(%rip), %rdi
	call	__ubsan_handle_pointer_overflow@PLT
.LVL40:
	jmp	.L26
.L38:
	.loc 1 64 23 discriminator 1 view .LVU67
	call	__asan_report_store8@PLT
.LVL41:
.L28:
	.loc 1 65 18 view .LVU68
	movq	%rbx, %rsi
	leaq	.Lubsan_data176(%rip), %rdi
	call	__ubsan_handle_type_mismatch_v1@PLT
.LVL42:
	jmp	.L29
.L39:
	.loc 1 65 18 view .LVU69
	movq	%rbx, %rdi
	call	__asan_report_store8@PLT
.LVL43:
.L31:
	.loc 1 66 16 view .LVU70
	movq	%rbx, %rsi
	leaq	.Lubsan_data177(%rip), %rdi
	call	__ubsan_handle_type_mismatch_v1@PLT
.LVL44:
	jmp	.L32
.L40:
	.loc 1 66 16 view .LVU71
	movq	%rbx, %rsi
	leaq	.Lubsan_data178(%rip), %rdi
	call	__ubsan_handle_pointer_overflow@PLT
.LVL45:
	jmp	.L33
.L41:
	.loc 1 66 16 view .LVU72
	call	__asan_report_store4@PLT
.LVL46:
	.cfi_endproc
.LFE55:
	.size	lex_ctx_create_lexeme, .-lex_ctx_create_lexeme
	.section	.rodata
	.align 32
.LC2:
	.string	"\033[1;37m%s:%u\033[0m: \033[1;34mverbose: \033[0mconsuming \"hexadecimal float\": \"%.*s\"\n"
	.zero	51
	.text
	.type	lex_ctx_consume_hexadecimal_float, @function
lex_ctx_consume_hexadecimal_float:
.LASANPC59:
.LVL47:
.LFB59:
	.loc 1 135 1 is_stmt 1 view -0
	.cfi_startproc
	.loc 1 135 1 is_stmt 0 view .LVU74
	pushq	%rbp
	.cfi_def_cfa_offset 16
	.cfi_offset 6, -16
	movq	%rsp, %rbp
	.cfi_def_cfa_register 6
	pushq	%r15
	pushq	%r14
	pushq	%r13
	pushq	%r12
	pushq	%rbx
	subq	$24, %rsp
	.cfi_offset 15, -24
	.cfi_offset 14, -32
	.cfi_offset 13, -40
	.cfi_offset 12, -48
	.cfi_offset 3, -56
1:	call	*mcount@GOTPCREL(%rip)
	movq	%rdi, %r12
	movq	%rsi, -64(%rbp)
	.loc 1 136 2 is_stmt 1 view .LVU75
.LVL48:
	.loc 1 137 3 view .LVU76
	.loc 1 137 24 view .LVU77
	.loc 1 137 37 discriminator 1 view .LVU78
	.loc 1 137 12 is_stmt 0 view .LVU79
	movl	$2, %r14d
	.loc 1 136 7 view .LVU80
	movb	$0, -52(%rbp)
	.loc 1 137 43 view .LVU81
	jmp	.L43
.LVL49:
.L45:
	.loc 1 141 16 discriminator 1 view .LVU82
	movq	%r13, %rsi
	leaq	.Lubsan_data179(%rip), %rdi
	call	__ubsan_handle_type_mismatch_v1@PLT
.LVL50:
	jmp	.L46
.L86:
	movq	%r13, %rdi
	call	__asan_report_load8@PLT
.LVL51:
.L48:
	.loc 1 141 34 discriminator 1 view .LVU83
	cmpq	%rdx, %r13
	jb	.L50
.L49:
	addq	%rbx, %r13
	je	.L51
	testb	$1, %r13b
	jne	.L51
.L52:
	movq	%r13, %rax
	shrq	$3, %rax
	movzbl	2147450880(%rax), %edx
	movq	%r13, %rax
	andl	$7, %eax
	addl	$1, %eax
	cmpb	%dl, %al
	jl	.L53
	testb	%dl, %dl
	jne	.L79
.L53:
	movzwl	0(%r13), %eax
	.loc 1 141 13 discriminator 1 view .LVU84
	testb	$16, %ah
	jne	.L44
.L54:
	.loc 1 145 3 is_stmt 1 view .LVU85
	.loc 1 145 158 is_stmt 0 view .LVU86
	testq	%r12, %r12
	je	.L60
	testb	$7, %r12b
	jne	.L60
.L61:
	leaq	8(%r12), %rdx
	cmpq	$-8, %r12
	jnb	.L80
.L62:
	leaq	8(%r12), %rdi
	movq	%rdi, %rax
	shrq	$3, %rax
	cmpb	$0, 2147450880(%rax)
	jne	.L81
	movq	8(%r12), %r13
	.loc 1 145 169 view .LVU87
	testq	%r12, %r12
	je	.L64
	testb	$7, %r12b
	jne	.L64
.L65:
	movq	%r12, %rax
	shrq	$3, %rax
	cmpb	$0, 2147450880(%rax)
	jne	.L82
	movq	(%r12), %rbx
	testq	%rbx, %rbx
	je	.L83
.L67:
	movq	%rbx, %rdi
	call	ftell@PLT
.LVL52:
	movq	%rax, %rbx
	.loc 1 145 3 discriminator 1 view .LVU88
	leaq	0(%r13,%rax), %rdx
	testq	%rax, %rax
	js	.L68
	cmpq	%r13, %rdx
	jnb	.L69
.L70:
	movq	%r13, %rsi
	leaq	.Lubsan_data186(%rip), %rdi
	call	__ubsan_handle_pointer_overflow@PLT
.LVL53:
	jmp	.L69
.L51:
	.loc 1 141 34 discriminator 1 view .LVU89
	movq	%r13, %rsi
	leaq	.Lubsan_data181(%rip), %rdi
	call	__ubsan_handle_type_mismatch_v1@PLT
.LVL54:
	jmp	.L52
.L79:
	movq	%r13, %rdi
	call	__asan_report_load2@PLT
.LVL55:
.L78:
	.loc 1 140 20 view .LVU90
	movb	%al, -52(%rbp)
.LVL56:
.L44:
	.loc 1 143 5 is_stmt 1 view .LVU91
	.loc 1 143 11 is_stmt 0 view .LVU92
	addq	$1, %r14
.LVL57:
.L43:
	.loc 1 137 96 is_stmt 1 discriminator 1 view .LVU93
	.loc 1 137 57 is_stmt 0 discriminator 1 view .LVU94
	movq	%r14, %r15
	testq	%r12, %r12
	je	.L55
	testb	$7, %r12b
	jne	.L55
.L56:
	movq	%r12, %rax
	shrq	$3, %rax
	cmpb	$0, 2147450880(%rax)
	jne	.L84
	movq	(%r12), %rbx
	testq	%rbx, %rbx
	je	.L85
.L58:
	movq	%r15, %rsi
	movq	%rbx, %rdi
	call	fpeek@PLT
.LVL58:
	movl	%eax, %ebx
.LVL59:
	.loc 1 137 96 discriminator 1 view .LVU95
	testl	%eax, %eax
	jle	.L54
	.loc 1 139 5 is_stmt 1 view .LVU96
	.loc 1 139 9 is_stmt 0 view .LVU97
	movzbl	-52(%rbp), %eax
.LVL60:
	.loc 1 139 9 view .LVU98
	xorl	$1, %eax
	.loc 1 139 34 view .LVU99
	cmpl	$46, %ebx
	sete	%dl
	.loc 1 139 8 view .LVU100
	andb	%dl, %al
	jne	.L78
	.loc 1 141 10 is_stmt 1 view .LVU101
	.loc 1 141 17 is_stmt 0 view .LVU102
	call	__ctype_b_loc@PLT
.LVL61:
	movq	%rax, %r13
	.loc 1 141 16 discriminator 1 view .LVU103
	testq	%rax, %rax
	je	.L45
	testb	$7, %al
	jne	.L45
.L46:
	movq	%r13, %rax
	shrq	$3, %rax
	cmpb	$0, 2147450880(%rax)
	jne	.L86
	movq	0(%r13), %r13
	.loc 1 141 34 discriminator 1 view .LVU104
	movslq	%ebx, %rbx
	.loc 1 141 34 discriminator 1 view .LVU105
	addq	%rbx, %rbx
.LVL62:
	.loc 1 141 34 discriminator 1 view .LVU106
	leaq	0(%r13,%rbx), %rdx
	js	.L48
	cmpq	%r13, %rdx
	jnb	.L49
.L50:
	movq	%r13, %rsi
	leaq	.Lubsan_data180(%rip), %rdi
	call	__ubsan_handle_pointer_overflow@PLT
.LVL63:
	jmp	.L49
.LVL64:
.L55:
	.loc 1 137 57 discriminator 1 view .LVU107
	movq	%r12, %rsi
	leaq	.Lubsan_data182(%rip), %rdi
	call	__ubsan_handle_type_mismatch_v1@PLT
.LVL65:
	jmp	.L56
.L84:
	.loc 1 137 57 discriminator 1 view .LVU108
	movq	%r12, %rdi
	call	__asan_report_load8@PLT
.LVL66:
.L85:
	.loc 1 137 57 discriminator 1 view .LVU109
	leaq	.Lubsan_data13(%rip), %rdi
	call	__ubsan_handle_nonnull_arg@PLT
.LVL67:
	jmp	.L58
.LVL68:
.L60:
	.loc 1 145 158 view .LVU110
	movq	%r12, %rsi
	leaq	.Lubsan_data183(%rip), %rdi
	call	__ubsan_handle_type_mismatch_v1@PLT
.LVL69:
	jmp	.L61
.L80:
	.loc 1 145 158 view .LVU111
	movq	%r12, %rsi
	leaq	.Lubsan_data184(%rip), %rdi
	call	__ubsan_handle_pointer_overflow@PLT
.LVL70:
	jmp	.L62
.L81:
	.loc 1 145 158 view .LVU112
	call	__asan_report_load8@PLT
.LVL71:
.L64:
	.loc 1 145 169 view .LVU113
	movq	%r12, %rsi
	leaq	.Lubsan_data185(%rip), %rdi
	call	__ubsan_handle_type_mismatch_v1@PLT
.LVL72:
	jmp	.L65
.L82:
	.loc 1 145 169 view .LVU114
	movq	%r12, %rdi
	call	__asan_report_load8@PLT
.LVL73:
.L83:
	.loc 1 145 169 view .LVU115
	leaq	.Lubsan_data14(%rip), %rdi
	call	__ubsan_handle_nonnull_arg@PLT
.LVL74:
	jmp	.L67
.L68:
	.loc 1 145 3 discriminator 1 view .LVU116
	cmpq	%rdx, %r13
	jb	.L70
.L69:
	addq	%r13, %rbx
	movl	%r14d, -52(%rbp)
.LVL75:
	.loc 1 145 3 discriminator 1 view .LVU117
	leaq	stdout(%rip), %rdi
	movq	%rdi, %rax
	shrq	$3, %rax
	cmpb	$0, 2147450880(%rax)
	jne	.L87
	movq	stdout(%rip), %r13
	testq	%r13, %r13
	je	.L88
.L72:
.LVL76:
.LBB84:
.LBI84:
	.loc 2 77 1 is_stmt 1 view .LVU118
.LBB85:
	.loc 2 79 3 view .LVU119
	.loc 2 79 10 is_stmt 0 view .LVU120
	subq	$8, %rsp
	pushq	%rbx
	movl	-52(%rbp), %r9d
	movl	$145, %r8d
	leaq	.LC0(%rip), %rcx
	leaq	.LC2(%rip), %rdx
	movl	$2, %esi
	movq	%r13, %rdi
	movl	$0, %eax
	call	__fprintf_chk@PLT
.LVL77:
	.loc 2 79 10 view .LVU121
.LBE85:
.LBE84:
	.loc 1 145 198 is_stmt 1 discriminator 2 view .LVU122
	.loc 1 146 5 view .LVU123
	.loc 1 146 30 is_stmt 0 view .LVU124
	movq	%r14, %rdx
	movl	$1, %esi
	movq	%r12, %rdi
	call	lex_ctx_create_lexeme
.LVL78:
	movq	%rax, %rbx
	.loc 1 146 5 discriminator 1 view .LVU125
	addq	$16, %rsp
	cmpq	$0, -64(%rbp)
	je	.L89
.L73:
	movq	%rbx, %rsi
	movq	-64(%rbp), %rdi
	call	array_append@PLT
.LVL79:
	.loc 1 146 94 is_stmt 1 discriminator 2 view .LVU126
	testq	%r12, %r12
	je	.L74
	testb	$7, %r12b
	jne	.L74
.L75:
	movq	%r12, %rax
	shrq	$3, %rax
	cmpb	$0, 2147450880(%rax)
	jne	.L90
	movq	(%r12), %rbx
	testq	%rbx, %rbx
	je	.L91
.L77:
	movq	%r15, %rsi
	movq	%rbx, %rdi
	call	fconsume@PLT
.LVL80:
	.loc 1 146 137 discriminator 3 view .LVU127
	.loc 1 147 1 is_stmt 0 view .LVU128
	leaq	-40(%rbp), %rsp
	popq	%rbx
	popq	%r12
.LVL81:
	.loc 1 147 1 view .LVU129
	popq	%r13
	popq	%r14
.LVL82:
	.loc 1 147 1 view .LVU130
	popq	%r15
.LVL83:
	.loc 1 147 1 view .LVU131
	popq	%rbp
	.cfi_remember_state
	.cfi_def_cfa 7, 8
.LVL84:
	.loc 1 147 1 view .LVU132
	ret
.LVL85:
.L87:
	.cfi_restore_state
	.loc 1 145 3 discriminator 1 view .LVU133
	call	__asan_report_load8@PLT
.LVL86:
.L88:
	leaq	.Lubsan_data15(%rip), %rdi
	call	__ubsan_handle_nonnull_arg@PLT
.LVL87:
	jmp	.L72
.L89:
	.loc 1 146 5 discriminator 1 view .LVU134
	leaq	.Lubsan_data17(%rip), %rdi
	call	__ubsan_handle_nonnull_arg@PLT
.LVL88:
	jmp	.L73
.L74:
	.loc 1 146 94 discriminator 2 view .LVU135
	movq	%r12, %rsi
	leaq	.Lubsan_data187(%rip), %rdi
	call	__ubsan_handle_type_mismatch_v1@PLT
.LVL89:
	jmp	.L75
.L90:
	.loc 1 146 94 discriminator 2 view .LVU136
	movq	%r12, %rdi
	call	__asan_report_load8@PLT
.LVL90:
.L91:
	.loc 1 146 94 discriminator 2 view .LVU137
	leaq	.Lubsan_data18(%rip), %rdi
	call	__ubsan_handle_nonnull_arg@PLT
.LVL91:
	jmp	.L77
	.cfi_endproc
.LFE59:
	.size	lex_ctx_consume_hexadecimal_float, .-lex_ctx_consume_hexadecimal_float
	.section	.rodata
	.align 32
.LC3:
	.string	"\033[1;37m%s:%u\033[0m: \033[1;34mverbose: \033[0mconsuming \"hexadecimal number\": \"%.*s\"\n"
	.zero	50
	.text
	.type	lex_ctx_consume_hexadecimal, @function
lex_ctx_consume_hexadecimal:
.LASANPC66:
.LVL92:
.LFB66:
	.loc 1 299 1 is_stmt 1 view -0
	.cfi_startproc
	.loc 1 299 1 is_stmt 0 view .LVU139
	pushq	%rbp
	.cfi_def_cfa_offset 16
	.cfi_offset 6, -16
	movq	%rsp, %rbp
	.cfi_def_cfa_register 6
	pushq	%r15
	pushq	%r14
	pushq	%r13
	pushq	%r12
	pushq	%rbx
	subq	$24, %rsp
	.cfi_offset 15, -24
	.cfi_offset 14, -32
	.cfi_offset 13, -40
	.cfi_offset 12, -48
	.cfi_offset 3, -56
1:	call	*mcount@GOTPCREL(%rip)
	movq	%rdi, %r12
	movq	%rsi, -56(%rbp)
	.loc 1 300 3 is_stmt 1 view .LVU140
.LVL93:
	.loc 1 300 24 view .LVU141
	.loc 1 300 37 discriminator 1 view .LVU142
	.loc 1 300 12 is_stmt 0 view .LVU143
	movl	$2, %r14d
	.loc 1 300 43 view .LVU144
	jmp	.L93
.LVL94:
.L132:
	.loc 1 304 9 is_stmt 1 view .LVU145
	movq	-56(%rbp), %rsi
	movq	%r12, %rdi
	call	lex_ctx_consume_hexadecimal_float
.LVL95:
	.loc 1 305 9 view .LVU146
	jmp	.L92
.L96:
	.loc 1 307 16 is_stmt 0 discriminator 1 view .LVU147
	movq	%r13, %rsi
	leaq	.Lubsan_data188(%rip), %rdi
	call	__ubsan_handle_type_mismatch_v1@PLT
.LVL96:
	jmp	.L97
.L133:
	movq	%r13, %rdi
	call	__asan_report_load8@PLT
.LVL97:
.L99:
	.loc 1 307 34 discriminator 1 view .LVU148
	cmpq	%rdx, %r13
	jb	.L101
.L100:
	addq	%r13, %rbx
	je	.L102
	testb	$1, %bl
	jne	.L102
.L103:
	movq	%rbx, %rax
	shrq	$3, %rax
	movzbl	2147450880(%rax), %edx
	movq	%rbx, %rax
	andl	$7, %eax
	addl	$1, %eax
	cmpb	%dl, %al
	jl	.L104
	testb	%dl, %dl
	jne	.L129
.L104:
	movzwl	(%rbx), %eax
	.loc 1 307 13 discriminator 1 view .LVU149
	testb	$16, %ah
	je	.L105
	.loc 1 309 5 is_stmt 1 view .LVU150
	.loc 1 309 11 is_stmt 0 view .LVU151
	addq	$1, %r14
.LVL98:
.L93:
	.loc 1 300 96 is_stmt 1 discriminator 1 view .LVU152
	.loc 1 300 57 is_stmt 0 discriminator 1 view .LVU153
	movq	%r14, %r15
	testq	%r12, %r12
	je	.L106
	testb	$7, %r12b
	jne	.L106
.L107:
	movq	%r12, %rax
	shrq	$3, %rax
	cmpb	$0, 2147450880(%rax)
	jne	.L130
	movq	(%r12), %rbx
	testq	%rbx, %rbx
	je	.L131
.L109:
	movq	%r15, %rsi
	movq	%rbx, %rdi
	call	fpeek@PLT
.LVL99:
	movl	%eax, %ebx
.LVL100:
	.loc 1 300 96 discriminator 1 view .LVU154
	testl	%eax, %eax
	jle	.L105
	.loc 1 302 5 is_stmt 1 view .LVU155
	.loc 1 302 8 is_stmt 0 view .LVU156
	cmpl	$46, %ebx
	je	.L132
	.loc 1 307 10 is_stmt 1 view .LVU157
	.loc 1 307 17 is_stmt 0 view .LVU158
	call	__ctype_b_loc@PLT
.LVL101:
	.loc 1 307 17 view .LVU159
	movq	%rax, %r13
	.loc 1 307 16 discriminator 1 view .LVU160
	testq	%rax, %rax
	je	.L96
	testb	$7, %al
	jne	.L96
.L97:
	movq	%r13, %rax
	shrq	$3, %rax
	cmpb	$0, 2147450880(%rax)
	jne	.L133
	movq	0(%r13), %r13
	.loc 1 307 34 discriminator 1 view .LVU161
	movslq	%ebx, %rbx
	.loc 1 307 34 discriminator 1 view .LVU162
	addq	%rbx, %rbx
.LVL102:
	.loc 1 307 34 discriminator 1 view .LVU163
	leaq	0(%r13,%rbx), %rdx
	js	.L99
	cmpq	%r13, %rdx
	jnb	.L100
.L101:
	movq	%r13, %rsi
	leaq	.Lubsan_data189(%rip), %rdi
	call	__ubsan_handle_pointer_overflow@PLT
.LVL103:
	jmp	.L100
.L102:
	movq	%rbx, %rsi
	leaq	.Lubsan_data190(%rip), %rdi
	call	__ubsan_handle_type_mismatch_v1@PLT
.LVL104:
	jmp	.L103
.L129:
	movq	%rbx, %rdi
	call	__asan_report_load2@PLT
.LVL105:
.L106:
	.loc 1 300 57 discriminator 1 view .LVU164
	movq	%r12, %rsi
	leaq	.Lubsan_data191(%rip), %rdi
	call	__ubsan_handle_type_mismatch_v1@PLT
.LVL106:
	jmp	.L107
.L130:
	.loc 1 300 57 discriminator 1 view .LVU165
	movq	%r12, %rdi
	call	__asan_report_load8@PLT
.LVL107:
.L131:
	.loc 1 300 57 discriminator 1 view .LVU166
	leaq	.Lubsan_data19(%rip), %rdi
	call	__ubsan_handle_nonnull_arg@PLT
.LVL108:
	jmp	.L109
.LVL109:
.L105:
	.loc 1 311 3 is_stmt 1 view .LVU167
	.loc 1 311 159 is_stmt 0 view .LVU168
	testq	%r12, %r12
	je	.L111
	testb	$7, %r12b
	jne	.L111
.L112:
	leaq	8(%r12), %rdx
	cmpq	$-8, %r12
	jnb	.L134
.L113:
	leaq	8(%r12), %rdi
	movq	%rdi, %rax
	shrq	$3, %rax
	cmpb	$0, 2147450880(%rax)
	jne	.L135
	movq	8(%r12), %r13
	.loc 1 311 170 view .LVU169
	testq	%r12, %r12
	je	.L115
	testb	$7, %r12b
	jne	.L115
.L116:
	movq	%r12, %rax
	shrq	$3, %rax
	cmpb	$0, 2147450880(%rax)
	jne	.L136
	movq	(%r12), %rbx
	testq	%rbx, %rbx
	je	.L137
.L118:
	movq	%rbx, %rdi
	call	ftell@PLT
.LVL110:
	movq	%rax, %rbx
	.loc 1 311 3 discriminator 1 view .LVU170
	leaq	0(%r13,%rax), %rdx
	testq	%rax, %rax
	js	.L119
	cmpq	%r13, %rdx
	jnb	.L120
.L121:
	movq	%r13, %rsi
	leaq	.Lubsan_data195(%rip), %rdi
	call	__ubsan_handle_pointer_overflow@PLT
.LVL111:
	jmp	.L120
.L111:
	.loc 1 311 159 view .LVU171
	movq	%r12, %rsi
	leaq	.Lubsan_data192(%rip), %rdi
	call	__ubsan_handle_type_mismatch_v1@PLT
.LVL112:
	jmp	.L112
.L134:
	.loc 1 311 159 view .LVU172
	movq	%r12, %rsi
	leaq	.Lubsan_data193(%rip), %rdi
	call	__ubsan_handle_pointer_overflow@PLT
.LVL113:
	jmp	.L113
.L135:
	.loc 1 311 159 view .LVU173
	call	__asan_report_load8@PLT
.LVL114:
.L115:
	.loc 1 311 170 view .LVU174
	movq	%r12, %rsi
	leaq	.Lubsan_data194(%rip), %rdi
	call	__ubsan_handle_type_mismatch_v1@PLT
.LVL115:
	jmp	.L116
.L136:
	.loc 1 311 170 view .LVU175
	movq	%r12, %rdi
	call	__asan_report_load8@PLT
.LVL116:
.L137:
	.loc 1 311 170 view .LVU176
	leaq	.Lubsan_data20(%rip), %rdi
	call	__ubsan_handle_nonnull_arg@PLT
.LVL117:
	jmp	.L118
.L119:
	.loc 1 311 3 discriminator 1 view .LVU177
	cmpq	%rdx, %r13
	jb	.L121
.L120:
	addq	%rbx, %r13
	movl	%r14d, -60(%rbp)
	leaq	stdout(%rip), %rdi
	movq	%rdi, %rax
	shrq	$3, %rax
	cmpb	$0, 2147450880(%rax)
	jne	.L138
	movq	stdout(%rip), %rbx
	testq	%rbx, %rbx
	je	.L139
.L123:
.LVL118:
.LBB86:
.LBI86:
	.loc 2 77 1 is_stmt 1 view .LVU178
.LBB87:
	.loc 2 79 3 view .LVU179
	.loc 2 79 10 is_stmt 0 view .LVU180
	subq	$8, %rsp
	pushq	%r13
	movl	-60(%rbp), %r9d
	movl	$311, %r8d
	leaq	.LC0(%rip), %rcx
	leaq	.LC3(%rip), %rdx
	movl	$2, %esi
	movq	%rbx, %rdi
	movl	$0, %eax
	call	__fprintf_chk@PLT
.LVL119:
	.loc 2 79 10 view .LVU181
.LBE87:
.LBE86:
	.loc 1 311 199 is_stmt 1 discriminator 2 view .LVU182
	.loc 1 312 5 view .LVU183
	.loc 1 312 30 is_stmt 0 view .LVU184
	movq	%r14, %rdx
	movl	$0, %esi
	movq	%r12, %rdi
	call	lex_ctx_create_lexeme
.LVL120:
	movq	%rax, %rbx
	.loc 1 312 5 discriminator 1 view .LVU185
	addq	$16, %rsp
	cmpq	$0, -56(%rbp)
	je	.L140
.L124:
	movq	%rbx, %rsi
	movq	-56(%rbp), %rdi
	call	array_append@PLT
.LVL121:
	.loc 1 312 93 is_stmt 1 discriminator 2 view .LVU186
	testq	%r12, %r12
	je	.L125
	testb	$7, %r12b
	jne	.L125
.L126:
	movq	%r12, %rax
	shrq	$3, %rax
	cmpb	$0, 2147450880(%rax)
	jne	.L141
	movq	(%r12), %rbx
	testq	%rbx, %rbx
	je	.L142
.L128:
	movq	%r15, %rsi
	movq	%rbx, %rdi
	call	fconsume@PLT
.LVL122:
	.loc 1 312 136 discriminator 1 view .LVU187
.L92:
	.loc 1 313 1 is_stmt 0 view .LVU188
	leaq	-40(%rbp), %rsp
	popq	%rbx
	popq	%r12
.LVL123:
	.loc 1 313 1 view .LVU189
	popq	%r13
	popq	%r14
.LVL124:
	.loc 1 313 1 view .LVU190
	popq	%r15
.LVL125:
	.loc 1 313 1 view .LVU191
	popq	%rbp
	.cfi_remember_state
	.cfi_def_cfa 7, 8
.LVL126:
	.loc 1 313 1 view .LVU192
	ret
.LVL127:
.L138:
	.cfi_restore_state
	.loc 1 311 3 discriminator 1 view .LVU193
	call	__asan_report_load8@PLT
.LVL128:
.L139:
	leaq	.Lubsan_data21(%rip), %rdi
	call	__ubsan_handle_nonnull_arg@PLT
.LVL129:
	jmp	.L123
.L140:
	.loc 1 312 5 discriminator 1 view .LVU194
	leaq	.Lubsan_data23(%rip), %rdi
	call	__ubsan_handle_nonnull_arg@PLT
.LVL130:
	jmp	.L124
.L125:
	.loc 1 312 93 discriminator 2 view .LVU195
	movq	%r12, %rsi
	leaq	.Lubsan_data196(%rip), %rdi
	call	__ubsan_handle_type_mismatch_v1@PLT
.LVL131:
	jmp	.L126
.L141:
	.loc 1 312 93 discriminator 2 view .LVU196
	movq	%r12, %rdi
	call	__asan_report_load8@PLT
.LVL132:
.L142:
	.loc 1 312 93 discriminator 2 view .LVU197
	leaq	.Lubsan_data24(%rip), %rdi
	call	__ubsan_handle_nonnull_arg@PLT
.LVL133:
	jmp	.L128
	.cfi_endproc
.LFE66:
	.size	lex_ctx_consume_hexadecimal, .-lex_ctx_consume_hexadecimal
	.section	.rodata
	.align 32
.LC4:
	.string	"\033[1;37m%s:%u\033[0m: \033[1;34mverbose: \033[0mconsuming \"decimal float\": \"%.*s\"\n"
	.zero	55
	.text
	.type	lex_ctx_consume_decimal_float, @function
lex_ctx_consume_decimal_float:
.LASANPC60:
.LVL134:
.LFB60:
	.loc 1 152 1 is_stmt 1 view -0
	.cfi_startproc
	.loc 1 152 1 is_stmt 0 view .LVU199
	pushq	%rbp
	.cfi_def_cfa_offset 16
	.cfi_offset 6, -16
	movq	%rsp, %rbp
	.cfi_def_cfa_register 6
	pushq	%r15
	pushq	%r14
	pushq	%r13
	pushq	%r12
	pushq	%rbx
	subq	$24, %rsp
	.cfi_offset 15, -24
	.cfi_offset 14, -32
	.cfi_offset 13, -40
	.cfi_offset 12, -48
	.cfi_offset 3, -56
1:	call	*mcount@GOTPCREL(%rip)
	movq	%rdi, %r12
	movq	%rsi, -64(%rbp)
	.loc 1 153 2 is_stmt 1 view .LVU200
.LVL135:
	.loc 1 154 3 view .LVU201
	.loc 1 154 24 view .LVU202
	.loc 1 154 37 discriminator 1 view .LVU203
	.loc 1 154 12 is_stmt 0 view .LVU204
	movl	$0, %r14d
	.loc 1 153 7 view .LVU205
	movb	$0, -52(%rbp)
	.loc 1 154 43 view .LVU206
	jmp	.L144
.LVL136:
.L146:
	.loc 1 158 16 discriminator 1 view .LVU207
	movq	%r13, %rsi
	leaq	.Lubsan_data197(%rip), %rdi
	call	__ubsan_handle_type_mismatch_v1@PLT
.LVL137:
	jmp	.L147
.L187:
	movq	%r13, %rdi
	call	__asan_report_load8@PLT
.LVL138:
.L149:
	.loc 1 158 34 discriminator 1 view .LVU208
	cmpq	%rdx, %r13
	jb	.L151
.L150:
	addq	%rbx, %r13
	je	.L152
	testb	$1, %r13b
	jne	.L152
.L153:
	movq	%r13, %rax
	shrq	$3, %rax
	movzbl	2147450880(%rax), %edx
	movq	%r13, %rax
	andl	$7, %eax
	addl	$1, %eax
	cmpb	%dl, %al
	jl	.L154
	testb	%dl, %dl
	jne	.L180
.L154:
	movzwl	0(%r13), %eax
	.loc 1 158 13 discriminator 1 view .LVU209
	testb	$8, %ah
	jne	.L145
.L155:
	.loc 1 162 3 is_stmt 1 view .LVU210
	.loc 1 162 154 is_stmt 0 view .LVU211
	testq	%r12, %r12
	je	.L161
	testb	$7, %r12b
	jne	.L161
.L162:
	leaq	8(%r12), %rdx
	cmpq	$-8, %r12
	jnb	.L181
.L163:
	leaq	8(%r12), %rdi
	movq	%rdi, %rax
	shrq	$3, %rax
	cmpb	$0, 2147450880(%rax)
	jne	.L182
	movq	8(%r12), %r13
	.loc 1 162 165 view .LVU212
	testq	%r12, %r12
	je	.L165
	testb	$7, %r12b
	jne	.L165
.L166:
	movq	%r12, %rax
	shrq	$3, %rax
	cmpb	$0, 2147450880(%rax)
	jne	.L183
	movq	(%r12), %rbx
	testq	%rbx, %rbx
	je	.L184
.L168:
	movq	%rbx, %rdi
	call	ftell@PLT
.LVL139:
	movq	%rax, %rbx
	.loc 1 162 3 discriminator 1 view .LVU213
	leaq	0(%r13,%rax), %rdx
	testq	%rax, %rax
	js	.L169
	cmpq	%r13, %rdx
	jnb	.L170
.L171:
	movq	%r13, %rsi
	leaq	.Lubsan_data204(%rip), %rdi
	call	__ubsan_handle_pointer_overflow@PLT
.LVL140:
	jmp	.L170
.L152:
	.loc 1 158 34 discriminator 1 view .LVU214
	movq	%r13, %rsi
	leaq	.Lubsan_data199(%rip), %rdi
	call	__ubsan_handle_type_mismatch_v1@PLT
.LVL141:
	jmp	.L153
.L180:
	movq	%r13, %rdi
	call	__asan_report_load2@PLT
.LVL142:
.L179:
	.loc 1 157 18 view .LVU215
	movb	%al, -52(%rbp)
.LVL143:
.L145:
	.loc 1 160 5 is_stmt 1 view .LVU216
	.loc 1 160 11 is_stmt 0 view .LVU217
	addq	$1, %r14
.LVL144:
.L144:
	.loc 1 154 96 is_stmt 1 discriminator 1 view .LVU218
	.loc 1 154 57 is_stmt 0 discriminator 1 view .LVU219
	movq	%r14, %r15
	testq	%r12, %r12
	je	.L156
	testb	$7, %r12b
	jne	.L156
.L157:
	movq	%r12, %rax
	shrq	$3, %rax
	cmpb	$0, 2147450880(%rax)
	jne	.L185
	movq	(%r12), %rbx
	testq	%rbx, %rbx
	je	.L186
.L159:
	movq	%r15, %rsi
	movq	%rbx, %rdi
	call	fpeek@PLT
.LVL145:
	movl	%eax, %ebx
.LVL146:
	.loc 1 154 96 discriminator 1 view .LVU220
	testl	%eax, %eax
	jle	.L155
	.loc 1 156 5 is_stmt 1 view .LVU221
	.loc 1 156 9 is_stmt 0 view .LVU222
	movzbl	-52(%rbp), %eax
.LVL147:
	.loc 1 156 9 view .LVU223
	xorl	$1, %eax
	.loc 1 156 32 view .LVU224
	cmpl	$46, %ebx
	sete	%dl
	.loc 1 156 8 view .LVU225
	andb	%dl, %al
	jne	.L179
	.loc 1 158 10 is_stmt 1 view .LVU226
	.loc 1 158 17 is_stmt 0 view .LVU227
	call	__ctype_b_loc@PLT
.LVL148:
	movq	%rax, %r13
	.loc 1 158 16 discriminator 1 view .LVU228
	testq	%rax, %rax
	je	.L146
	testb	$7, %al
	jne	.L146
.L147:
	movq	%r13, %rax
	shrq	$3, %rax
	cmpb	$0, 2147450880(%rax)
	jne	.L187
	movq	0(%r13), %r13
	.loc 1 158 34 discriminator 1 view .LVU229
	movslq	%ebx, %rbx
	.loc 1 158 34 discriminator 1 view .LVU230
	addq	%rbx, %rbx
.LVL149:
	.loc 1 158 34 discriminator 1 view .LVU231
	leaq	0(%r13,%rbx), %rdx
	js	.L149
	cmpq	%r13, %rdx
	jnb	.L150
.L151:
	movq	%r13, %rsi
	leaq	.Lubsan_data198(%rip), %rdi
	call	__ubsan_handle_pointer_overflow@PLT
.LVL150:
	jmp	.L150
.LVL151:
.L156:
	.loc 1 154 57 discriminator 1 view .LVU232
	movq	%r12, %rsi
	leaq	.Lubsan_data200(%rip), %rdi
	call	__ubsan_handle_type_mismatch_v1@PLT
.LVL152:
	jmp	.L157
.L185:
	.loc 1 154 57 discriminator 1 view .LVU233
	movq	%r12, %rdi
	call	__asan_report_load8@PLT
.LVL153:
.L186:
	.loc 1 154 57 discriminator 1 view .LVU234
	leaq	.Lubsan_data25(%rip), %rdi
	call	__ubsan_handle_nonnull_arg@PLT
.LVL154:
	jmp	.L159
.LVL155:
.L161:
	.loc 1 162 154 view .LVU235
	movq	%r12, %rsi
	leaq	.Lubsan_data201(%rip), %rdi
	call	__ubsan_handle_type_mismatch_v1@PLT
.LVL156:
	jmp	.L162
.L181:
	.loc 1 162 154 view .LVU236
	movq	%r12, %rsi
	leaq	.Lubsan_data202(%rip), %rdi
	call	__ubsan_handle_pointer_overflow@PLT
.LVL157:
	jmp	.L163
.L182:
	.loc 1 162 154 view .LVU237
	call	__asan_report_load8@PLT
.LVL158:
.L165:
	.loc 1 162 165 view .LVU238
	movq	%r12, %rsi
	leaq	.Lubsan_data203(%rip), %rdi
	call	__ubsan_handle_type_mismatch_v1@PLT
.LVL159:
	jmp	.L166
.L183:
	.loc 1 162 165 view .LVU239
	movq	%r12, %rdi
	call	__asan_report_load8@PLT
.LVL160:
.L184:
	.loc 1 162 165 view .LVU240
	leaq	.Lubsan_data26(%rip), %rdi
	call	__ubsan_handle_nonnull_arg@PLT
.LVL161:
	jmp	.L168
.L169:
	.loc 1 162 3 discriminator 1 view .LVU241
	cmpq	%rdx, %r13
	jb	.L171
.L170:
	addq	%r13, %rbx
	movl	%r14d, -52(%rbp)
.LVL162:
	.loc 1 162 3 discriminator 1 view .LVU242
	leaq	stdout(%rip), %rdi
	movq	%rdi, %rax
	shrq	$3, %rax
	cmpb	$0, 2147450880(%rax)
	jne	.L188
	movq	stdout(%rip), %r13
	testq	%r13, %r13
	je	.L189
.L173:
.LVL163:
.LBB88:
.LBI88:
	.loc 2 77 1 is_stmt 1 view .LVU243
.LBB89:
	.loc 2 79 3 view .LVU244
	.loc 2 79 10 is_stmt 0 view .LVU245
	subq	$8, %rsp
	pushq	%rbx
	movl	-52(%rbp), %r9d
	movl	$162, %r8d
	leaq	.LC0(%rip), %rcx
	leaq	.LC4(%rip), %rdx
	movl	$2, %esi
	movq	%r13, %rdi
	movl	$0, %eax
	call	__fprintf_chk@PLT
.LVL164:
	.loc 2 79 10 view .LVU246
.LBE89:
.LBE88:
	.loc 1 163 5 is_stmt 1 view .LVU247
	.loc 1 163 30 is_stmt 0 view .LVU248
	movq	%r14, %rdx
	movl	$1, %esi
	movq	%r12, %rdi
	call	lex_ctx_create_lexeme
.LVL165:
	movq	%rax, %rbx
	.loc 1 163 5 discriminator 1 view .LVU249
	addq	$16, %rsp
	cmpq	$0, -64(%rbp)
	je	.L190
.L174:
	movq	%rbx, %rsi
	movq	-64(%rbp), %rdi
	call	array_append@PLT
.LVL166:
	.loc 1 163 94 is_stmt 1 discriminator 2 view .LVU250
	testq	%r12, %r12
	je	.L175
	testb	$7, %r12b
	jne	.L175
.L176:
	movq	%r12, %rax
	shrq	$3, %rax
	cmpb	$0, 2147450880(%rax)
	jne	.L191
	movq	(%r12), %rbx
	testq	%rbx, %rbx
	je	.L192
.L178:
	movq	%r15, %rsi
	movq	%rbx, %rdi
	call	fconsume@PLT
.LVL167:
	.loc 1 163 137 discriminator 3 view .LVU251
	.loc 1 164 1 is_stmt 0 view .LVU252
	leaq	-40(%rbp), %rsp
	popq	%rbx
	popq	%r12
.LVL168:
	.loc 1 164 1 view .LVU253
	popq	%r13
	popq	%r14
.LVL169:
	.loc 1 164 1 view .LVU254
	popq	%r15
.LVL170:
	.loc 1 164 1 view .LVU255
	popq	%rbp
	.cfi_remember_state
	.cfi_def_cfa 7, 8
.LVL171:
	.loc 1 164 1 view .LVU256
	ret
.LVL172:
.L188:
	.cfi_restore_state
	.loc 1 162 3 discriminator 1 view .LVU257
	call	__asan_report_load8@PLT
.LVL173:
.L189:
	leaq	.Lubsan_data27(%rip), %rdi
	call	__ubsan_handle_nonnull_arg@PLT
.LVL174:
	jmp	.L173
.L190:
	.loc 1 163 5 discriminator 1 view .LVU258
	leaq	.Lubsan_data29(%rip), %rdi
	call	__ubsan_handle_nonnull_arg@PLT
.LVL175:
	jmp	.L174
.L175:
	.loc 1 163 94 discriminator 2 view .LVU259
	movq	%r12, %rsi
	leaq	.Lubsan_data205(%rip), %rdi
	call	__ubsan_handle_type_mismatch_v1@PLT
.LVL176:
	jmp	.L176
.L191:
	.loc 1 163 94 discriminator 2 view .LVU260
	movq	%r12, %rdi
	call	__asan_report_load8@PLT
.LVL177:
.L192:
	.loc 1 163 94 discriminator 2 view .LVU261
	leaq	.Lubsan_data30(%rip), %rdi
	call	__ubsan_handle_nonnull_arg@PLT
.LVL178:
	jmp	.L178
	.cfi_endproc
.LFE60:
	.size	lex_ctx_consume_decimal_float, .-lex_ctx_consume_decimal_float
	.section	.rodata
	.align 32
.LC5:
	.string	"\033[1;37m%s:%u\033[0m: \033[1;34mverbose: \033[0mconsuming \"number\": \"%.*s\"\n"
	.zero	62
	.text
	.type	lex_ctx_consume_number, @function
lex_ctx_consume_number:
.LASANPC61:
.LVL179:
.LFB61:
	.loc 1 169 1 is_stmt 1 view -0
	.cfi_startproc
	.loc 1 169 1 is_stmt 0 view .LVU263
	pushq	%rbp
	.cfi_def_cfa_offset 16
	.cfi_offset 6, -16
	movq	%rsp, %rbp
	.cfi_def_cfa_register 6
	pushq	%r15
	pushq	%r14
	pushq	%r13
	pushq	%r12
	pushq	%rbx
	subq	$24, %rsp
	.cfi_offset 15, -24
	.cfi_offset 14, -32
	.cfi_offset 13, -40
	.cfi_offset 12, -48
	.cfi_offset 3, -56
1:	call	*mcount@GOTPCREL(%rip)
	movq	%rdi, %r12
	movq	%rsi, -56(%rbp)
	.loc 1 170 3 is_stmt 1 view .LVU264
.LVL180:
	.loc 1 170 24 view .LVU265
	.loc 1 170 37 discriminator 1 view .LVU266
	.loc 1 170 12 is_stmt 0 view .LVU267
	movl	$0, %r14d
	.loc 1 170 43 view .LVU268
	jmp	.L194
.LVL181:
.L233:
	.loc 1 174 9 is_stmt 1 view .LVU269
	movq	-56(%rbp), %rsi
	movq	%r12, %rdi
	call	lex_ctx_consume_decimal_float
.LVL182:
	.loc 1 175 9 view .LVU270
	jmp	.L193
.L197:
	.loc 1 177 16 is_stmt 0 discriminator 1 view .LVU271
	movq	%r13, %rsi
	leaq	.Lubsan_data206(%rip), %rdi
	call	__ubsan_handle_type_mismatch_v1@PLT
.LVL183:
	jmp	.L198
.L234:
	movq	%r13, %rdi
	call	__asan_report_load8@PLT
.LVL184:
.L200:
	.loc 1 177 34 discriminator 1 view .LVU272
	cmpq	%rdx, %r13
	jb	.L202
.L201:
	addq	%r13, %rbx
	je	.L203
	testb	$1, %bl
	jne	.L203
.L204:
	movq	%rbx, %rax
	shrq	$3, %rax
	movzbl	2147450880(%rax), %edx
	movq	%rbx, %rax
	andl	$7, %eax
	addl	$1, %eax
	cmpb	%dl, %al
	jl	.L205
	testb	%dl, %dl
	jne	.L230
.L205:
	movzwl	(%rbx), %eax
	.loc 1 177 13 discriminator 1 view .LVU273
	testb	$8, %ah
	je	.L206
	.loc 1 179 5 is_stmt 1 view .LVU274
	.loc 1 179 11 is_stmt 0 view .LVU275
	addq	$1, %r14
.LVL185:
.L194:
	.loc 1 170 96 is_stmt 1 discriminator 1 view .LVU276
	.loc 1 170 57 is_stmt 0 discriminator 1 view .LVU277
	movq	%r14, %r15
	testq	%r12, %r12
	je	.L207
	testb	$7, %r12b
	jne	.L207
.L208:
	movq	%r12, %rax
	shrq	$3, %rax
	cmpb	$0, 2147450880(%rax)
	jne	.L231
	movq	(%r12), %rbx
	testq	%rbx, %rbx
	je	.L232
.L210:
	movq	%r15, %rsi
	movq	%rbx, %rdi
	call	fpeek@PLT
.LVL186:
	movl	%eax, %ebx
.LVL187:
	.loc 1 170 96 discriminator 1 view .LVU278
	testl	%eax, %eax
	jle	.L206
	.loc 1 172 5 is_stmt 1 view .LVU279
	.loc 1 172 8 is_stmt 0 view .LVU280
	cmpl	$46, %ebx
	je	.L233
	.loc 1 177 10 is_stmt 1 view .LVU281
	.loc 1 177 17 is_stmt 0 view .LVU282
	call	__ctype_b_loc@PLT
.LVL188:
	.loc 1 177 17 view .LVU283
	movq	%rax, %r13
	.loc 1 177 16 discriminator 1 view .LVU284
	testq	%rax, %rax
	je	.L197
	testb	$7, %al
	jne	.L197
.L198:
	movq	%r13, %rax
	shrq	$3, %rax
	cmpb	$0, 2147450880(%rax)
	jne	.L234
	movq	0(%r13), %r13
	.loc 1 177 34 discriminator 1 view .LVU285
	movslq	%ebx, %rbx
	.loc 1 177 34 discriminator 1 view .LVU286
	addq	%rbx, %rbx
.LVL189:
	.loc 1 177 34 discriminator 1 view .LVU287
	leaq	0(%r13,%rbx), %rdx
	js	.L200
	cmpq	%r13, %rdx
	jnb	.L201
.L202:
	movq	%r13, %rsi
	leaq	.Lubsan_data207(%rip), %rdi
	call	__ubsan_handle_pointer_overflow@PLT
.LVL190:
	jmp	.L201
.L203:
	movq	%rbx, %rsi
	leaq	.Lubsan_data208(%rip), %rdi
	call	__ubsan_handle_type_mismatch_v1@PLT
.LVL191:
	jmp	.L204
.L230:
	movq	%rbx, %rdi
	call	__asan_report_load2@PLT
.LVL192:
.L207:
	.loc 1 170 57 discriminator 1 view .LVU288
	movq	%r12, %rsi
	leaq	.Lubsan_data209(%rip), %rdi
	call	__ubsan_handle_type_mismatch_v1@PLT
.LVL193:
	jmp	.L208
.L231:
	.loc 1 170 57 discriminator 1 view .LVU289
	movq	%r12, %rdi
	call	__asan_report_load8@PLT
.LVL194:
.L232:
	.loc 1 170 57 discriminator 1 view .LVU290
	leaq	.Lubsan_data31(%rip), %rdi
	call	__ubsan_handle_nonnull_arg@PLT
.LVL195:
	jmp	.L210
.LVL196:
.L206:
	.loc 1 181 3 is_stmt 1 view .LVU291
	.loc 1 181 147 is_stmt 0 view .LVU292
	testq	%r12, %r12
	je	.L212
	testb	$7, %r12b
	jne	.L212
.L213:
	leaq	8(%r12), %rdx
	cmpq	$-8, %r12
	jnb	.L235
.L214:
	leaq	8(%r12), %rdi
	movq	%rdi, %rax
	shrq	$3, %rax
	cmpb	$0, 2147450880(%rax)
	jne	.L236
	movq	8(%r12), %r13
	.loc 1 181 158 view .LVU293
	testq	%r12, %r12
	je	.L216
	testb	$7, %r12b
	jne	.L216
.L217:
	movq	%r12, %rax
	shrq	$3, %rax
	cmpb	$0, 2147450880(%rax)
	jne	.L237
	movq	(%r12), %rbx
	testq	%rbx, %rbx
	je	.L238
.L219:
	movq	%rbx, %rdi
	call	ftell@PLT
.LVL197:
	movq	%rax, %rbx
	.loc 1 181 3 discriminator 1 view .LVU294
	leaq	0(%r13,%rax), %rdx
	testq	%rax, %rax
	js	.L220
	cmpq	%r13, %rdx
	jnb	.L221
.L222:
	movq	%r13, %rsi
	leaq	.Lubsan_data213(%rip), %rdi
	call	__ubsan_handle_pointer_overflow@PLT
.LVL198:
	jmp	.L221
.L212:
	.loc 1 181 147 view .LVU295
	movq	%r12, %rsi
	leaq	.Lubsan_data210(%rip), %rdi
	call	__ubsan_handle_type_mismatch_v1@PLT
.LVL199:
	jmp	.L213
.L235:
	.loc 1 181 147 view .LVU296
	movq	%r12, %rsi
	leaq	.Lubsan_data211(%rip), %rdi
	call	__ubsan_handle_pointer_overflow@PLT
.LVL200:
	jmp	.L214
.L236:
	.loc 1 181 147 view .LVU297
	call	__asan_report_load8@PLT
.LVL201:
.L216:
	.loc 1 181 158 view .LVU298
	movq	%r12, %rsi
	leaq	.Lubsan_data212(%rip), %rdi
	call	__ubsan_handle_type_mismatch_v1@PLT
.LVL202:
	jmp	.L217
.L237:
	.loc 1 181 158 view .LVU299
	movq	%r12, %rdi
	call	__asan_report_load8@PLT
.LVL203:
.L238:
	.loc 1 181 158 view .LVU300
	leaq	.Lubsan_data32(%rip), %rdi
	call	__ubsan_handle_nonnull_arg@PLT
.LVL204:
	jmp	.L219
.L220:
	.loc 1 181 3 discriminator 1 view .LVU301
	cmpq	%rdx, %r13
	jb	.L222
.L221:
	addq	%rbx, %r13
	movl	%r14d, -60(%rbp)
	leaq	stdout(%rip), %rdi
	movq	%rdi, %rax
	shrq	$3, %rax
	cmpb	$0, 2147450880(%rax)
	jne	.L239
	movq	stdout(%rip), %rbx
	testq	%rbx, %rbx
	je	.L240
.L224:
.LVL205:
.LBB90:
.LBI90:
	.loc 2 77 1 is_stmt 1 view .LVU302
.LBB91:
	.loc 2 79 3 view .LVU303
	.loc 2 79 10 is_stmt 0 view .LVU304
	subq	$8, %rsp
	pushq	%r13
	movl	-60(%rbp), %r9d
	movl	$181, %r8d
	leaq	.LC0(%rip), %rcx
	leaq	.LC5(%rip), %rdx
	movl	$2, %esi
	movq	%rbx, %rdi
	movl	$0, %eax
	call	__fprintf_chk@PLT
.LVL206:
	.loc 2 79 10 view .LVU305
.LBE91:
.LBE90:
	.loc 1 181 187 is_stmt 1 discriminator 2 view .LVU306
	.loc 1 182 5 view .LVU307
	.loc 1 182 30 is_stmt 0 view .LVU308
	movq	%r14, %rdx
	movl	$0, %esi
	movq	%r12, %rdi
	call	lex_ctx_create_lexeme
.LVL207:
	movq	%rax, %rbx
	.loc 1 182 5 discriminator 1 view .LVU309
	addq	$16, %rsp
	cmpq	$0, -56(%rbp)
	je	.L241
.L225:
	movq	%rbx, %rsi
	movq	-56(%rbp), %rdi
	call	array_append@PLT
.LVL208:
	.loc 1 182 93 is_stmt 1 discriminator 2 view .LVU310
	testq	%r12, %r12
	je	.L226
	testb	$7, %r12b
	jne	.L226
.L227:
	movq	%r12, %rax
	shrq	$3, %rax
	cmpb	$0, 2147450880(%rax)
	jne	.L242
	movq	(%r12), %rbx
	testq	%rbx, %rbx
	je	.L243
.L229:
	movq	%r15, %rsi
	movq	%rbx, %rdi
	call	fconsume@PLT
.LVL209:
	.loc 1 182 136 discriminator 1 view .LVU311
.L193:
	.loc 1 183 1 is_stmt 0 view .LVU312
	leaq	-40(%rbp), %rsp
	popq	%rbx
	popq	%r12
.LVL210:
	.loc 1 183 1 view .LVU313
	popq	%r13
	popq	%r14
.LVL211:
	.loc 1 183 1 view .LVU314
	popq	%r15
.LVL212:
	.loc 1 183 1 view .LVU315
	popq	%rbp
	.cfi_remember_state
	.cfi_def_cfa 7, 8
.LVL213:
	.loc 1 183 1 view .LVU316
	ret
.LVL214:
.L239:
	.cfi_restore_state
	.loc 1 181 3 discriminator 1 view .LVU317
	call	__asan_report_load8@PLT
.LVL215:
.L240:
	leaq	.Lubsan_data33(%rip), %rdi
	call	__ubsan_handle_nonnull_arg@PLT
.LVL216:
	jmp	.L224
.L241:
	.loc 1 182 5 discriminator 1 view .LVU318
	leaq	.Lubsan_data35(%rip), %rdi
	call	__ubsan_handle_nonnull_arg@PLT
.LVL217:
	jmp	.L225
.L226:
	.loc 1 182 93 discriminator 2 view .LVU319
	movq	%r12, %rsi
	leaq	.Lubsan_data214(%rip), %rdi
	call	__ubsan_handle_type_mismatch_v1@PLT
.LVL218:
	jmp	.L227
.L242:
	.loc 1 182 93 discriminator 2 view .LVU320
	movq	%r12, %rdi
	call	__asan_report_load8@PLT
.LVL219:
.L243:
	.loc 1 182 93 discriminator 2 view .LVU321
	leaq	.Lubsan_data36(%rip), %rdi
	call	__ubsan_handle_nonnull_arg@PLT
.LVL220:
	jmp	.L229
	.cfi_endproc
.LFE61:
	.size	lex_ctx_consume_number, .-lex_ctx_consume_number
	.section	.rodata
	.align 32
.LC6:
	.string	"\033[1;37m%s:%u\033[0m: \033[1;34mverbose: \033[0mconsuming \"single-line comment\": \"%.*s\"\n"
	.zero	49
	.text
	.type	lex_ctx_consume_comment, @function
lex_ctx_consume_comment:
.LASANPC57:
.LVL221:
.LFB57:
	.loc 1 85 1 is_stmt 1 view -0
	.cfi_startproc
	.loc 1 85 1 is_stmt 0 view .LVU323
	pushq	%rbp
	.cfi_def_cfa_offset 16
	.cfi_offset 6, -16
	movq	%rsp, %rbp
	.cfi_def_cfa_register 6
	pushq	%r15
	pushq	%r14
	pushq	%r13
	pushq	%r12
	pushq	%rbx
	subq	$24, %rsp
	.cfi_offset 15, -24
	.cfi_offset 14, -32
	.cfi_offset 13, -40
	.cfi_offset 12, -48
	.cfi_offset 3, -56
1:	call	*mcount@GOTPCREL(%rip)
	movq	%rdi, %rbx
	movq	%rsi, -56(%rbp)
	.loc 1 86 3 is_stmt 1 view .LVU324
.LVL222:
	.loc 1 86 24 view .LVU325
	.loc 1 86 37 discriminator 1 view .LVU326
	.loc 1 86 12 is_stmt 0 view .LVU327
	movl	$2, %r12d
	.loc 1 86 43 view .LVU328
	jmp	.L245
.LVL223:
.L282:
	.loc 1 90 5 is_stmt 1 view .LVU329
	.loc 1 90 11 is_stmt 0 view .LVU330
	addq	$1, %r12
.LVL224:
.L245:
	.loc 1 86 96 is_stmt 1 discriminator 1 view .LVU331
	.loc 1 86 57 is_stmt 0 discriminator 1 view .LVU332
	movq	%r12, %r13
	testq	%rbx, %rbx
	je	.L247
	testb	$7, %bl
	jne	.L247
.L248:
	movq	%rbx, %rax
	shrq	$3, %rax
	cmpb	$0, 2147450880(%rax)
	jne	.L280
	movq	(%rbx), %r14
	testq	%r14, %r14
	je	.L281
.L250:
	movq	%r13, %rsi
	movq	%r14, %rdi
	call	fpeek@PLT
.LVL225:
	.loc 1 86 96 discriminator 1 view .LVU333
	testl	%eax, %eax
	jle	.L246
	.loc 1 88 5 is_stmt 1 view .LVU334
	.loc 1 88 8 is_stmt 0 view .LVU335
	cmpl	$10, %eax
	jne	.L282
.L246:
	.loc 1 92 3 is_stmt 1 view .LVU336
	.loc 1 92 160 is_stmt 0 view .LVU337
	testq	%rbx, %rbx
	je	.L252
	testb	$7, %bl
	jne	.L252
.LVL226:
.L253:
	.loc 1 92 160 view .LVU338
	leaq	8(%rbx), %rdx
	cmpq	$-8, %rbx
	jnb	.L283
.L254:
	leaq	8(%rbx), %rdi
	movq	%rdi, %rax
	shrq	$3, %rax
	cmpb	$0, 2147450880(%rax)
	jne	.L284
	movq	8(%rbx), %r15
	.loc 1 92 171 view .LVU339
	testq	%rbx, %rbx
	je	.L256
	testb	$7, %bl
	jne	.L256
.L257:
	movq	%rbx, %rax
	shrq	$3, %rax
	cmpb	$0, 2147450880(%rax)
	jne	.L285
	movq	(%rbx), %r14
	testq	%r14, %r14
	je	.L286
.L259:
	movq	%r14, %rdi
	call	ftell@PLT
.LVL227:
	.loc 1 92 193 discriminator 1 view .LVU340
	leaq	2(%rax), %r14
	.loc 1 92 3 discriminator 1 view .LVU341
	leaq	(%r15,%r14), %rdx
	testq	%r14, %r14
	js	.L260
	cmpq	%r15, %rdx
	jnb	.L261
.L262:
	movq	%r15, %rsi
	leaq	.Lubsan_data219(%rip), %rdi
	call	__ubsan_handle_pointer_overflow@PLT
.LVL228:
	jmp	.L261
.LVL229:
.L247:
	.loc 1 86 57 discriminator 1 view .LVU342
	movq	%rbx, %rsi
	leaq	.Lubsan_data215(%rip), %rdi
	call	__ubsan_handle_type_mismatch_v1@PLT
.LVL230:
	jmp	.L248
.L280:
	.loc 1 86 57 discriminator 1 view .LVU343
	movq	%rbx, %rdi
	call	__asan_report_load8@PLT
.LVL231:
.L281:
	.loc 1 86 57 discriminator 1 view .LVU344
	leaq	.Lubsan_data37(%rip), %rdi
	call	__ubsan_handle_nonnull_arg@PLT
.LVL232:
	jmp	.L250
.LVL233:
.L252:
	.loc 1 92 160 view .LVU345
	movq	%rbx, %rsi
	leaq	.Lubsan_data216(%rip), %rdi
	call	__ubsan_handle_type_mismatch_v1@PLT
.LVL234:
	.loc 1 92 160 view .LVU346
	jmp	.L253
.L283:
	.loc 1 92 160 view .LVU347
	movq	%rbx, %rsi
	leaq	.Lubsan_data217(%rip), %rdi
	call	__ubsan_handle_pointer_overflow@PLT
.LVL235:
	jmp	.L254
.L284:
	.loc 1 92 160 view .LVU348
	call	__asan_report_load8@PLT
.LVL236:
.L256:
	.loc 1 92 171 view .LVU349
	movq	%rbx, %rsi
	leaq	.Lubsan_data218(%rip), %rdi
	call	__ubsan_handle_type_mismatch_v1@PLT
.LVL237:
	jmp	.L257
.L285:
	.loc 1 92 171 view .LVU350
	movq	%rbx, %rdi
	call	__asan_report_load8@PLT
.LVL238:
.L286:
	.loc 1 92 171 view .LVU351
	leaq	.Lubsan_data38(%rip), %rdi
	call	__ubsan_handle_nonnull_arg@PLT
.LVL239:
	jmp	.L259
.L260:
	.loc 1 92 3 discriminator 1 view .LVU352
	cmpq	%rdx, %r15
	jb	.L262
.L261:
	addq	%r14, %r15
	movl	%r12d, %eax
	addl	$-2, %eax
	movl	%eax, -60(%rbp)
	jo	.L287
.L263:
	leaq	stdout(%rip), %rdi
	movq	%rdi, %rax
	shrq	$3, %rax
	cmpb	$0, 2147450880(%rax)
	jne	.L288
	movq	stdout(%rip), %r14
	testq	%r14, %r14
	je	.L289
.L266:
.LVL240:
.LBB92:
.LBI92:
	.loc 2 77 1 is_stmt 1 view .LVU353
.LBB93:
	.loc 2 79 3 view .LVU354
	.loc 2 79 10 is_stmt 0 view .LVU355
	subq	$8, %rsp
	pushq	%r15
	movl	-60(%rbp), %r9d
	movl	$92, %r8d
	leaq	.LC0(%rip), %rcx
	leaq	.LC6(%rip), %rdx
	movl	$2, %esi
	movq	%r14, %rdi
	movl	$0, %eax
	call	__fprintf_chk@PLT
.LVL241:
	.loc 2 79 10 view .LVU356
.LBE93:
.LBE92:
	.loc 1 92 200 is_stmt 1 discriminator 2 view .LVU357
	.loc 1 93 3 view .LVU358
	.loc 1 93 18 is_stmt 0 view .LVU359
	movq	g_comp_args(%rip), %r14
	.loc 1 93 7 view .LVU360
	addq	$16, %rsp
	testq	%r14, %r14
	je	.L267
	testb	$7, %r14b
	jne	.L267
.L268:
	leaq	1(%r14), %rdx
	cmpq	$-1, %r14
	jnb	.L290
.L269:
	.loc 1 93 6 view .LVU361
	testb	$1, 1(%r14)
	je	.L270
	.loc 1 94 5 is_stmt 1 view .LVU362
	.loc 1 94 27 is_stmt 0 view .LVU363
	movq	%r12, %rdx
	movl	$39, %esi
	movq	%rbx, %rdi
	call	lex_ctx_create_lexeme
.LVL242:
	movq	%rax, %r12
.LVL243:
	.loc 1 94 5 discriminator 1 view .LVU364
	cmpq	$0, -56(%rbp)
	je	.L291
.L271:
	movq	%r12, %rsi
	movq	-56(%rbp), %rdi
	call	array_append@PLT
.LVL244:
.L272:
	.loc 1 97 3 is_stmt 1 view .LVU365
	movq	%r13, %r12
	addq	$1, %r12
	jo	.L292
.L274:
	testq	%rbx, %rbx
	je	.L276
	testb	$7, %bl
	jne	.L276
.L277:
	movq	%rbx, %rax
	shrq	$3, %rax
	cmpb	$0, 2147450880(%rax)
	jne	.L293
	movq	(%rbx), %rbx
.LVL245:
	.loc 1 97 3 is_stmt 0 view .LVU366
	testq	%rbx, %rbx
	je	.L294
.L279:
	movq	%r12, %rsi
	movq	%rbx, %rdi
	call	fconsume@PLT
.LVL246:
	.loc 1 98 1 view .LVU367
	leaq	-40(%rbp), %rsp
	popq	%rbx
	popq	%r12
	popq	%r13
.LVL247:
	.loc 1 98 1 view .LVU368
	popq	%r14
	popq	%r15
	popq	%rbp
	.cfi_remember_state
	.cfi_def_cfa 7, 8
.LVL248:
	.loc 1 98 1 view .LVU369
	ret
.LVL249:
.L287:
	.cfi_restore_state
	.loc 1 92 3 discriminator 1 view .LVU370
	movslq	%r12d, %rsi
	movq	$-2, %rdx
	leaq	.Lubsan_data223(%rip), %rdi
	call	__ubsan_handle_add_overflow@PLT
.LVL250:
	jmp	.L263
.L288:
	call	__asan_report_load8@PLT
.LVL251:
.L289:
	leaq	.Lubsan_data39(%rip), %rdi
	call	__ubsan_handle_nonnull_arg@PLT
.LVL252:
	jmp	.L266
.L267:
	.loc 1 93 7 view .LVU371
	movq	%r14, %rsi
	leaq	.Lubsan_data220(%rip), %rdi
	call	__ubsan_handle_type_mismatch_v1@PLT
.LVL253:
	jmp	.L268
.L290:
	movq	%r14, %rsi
	leaq	.Lubsan_data221(%rip), %rdi
	call	__ubsan_handle_pointer_overflow@PLT
.LVL254:
	jmp	.L269
.LVL255:
.L291:
	.loc 1 94 5 discriminator 1 view .LVU372
	leaq	.Lubsan_data41(%rip), %rdi
	call	__ubsan_handle_nonnull_arg@PLT
.LVL256:
	jmp	.L271
.LVL257:
.L270:
	.loc 1 96 5 is_stmt 1 view .LVU373
	.loc 1 96 28 is_stmt 0 view .LVU374
	movl	$1, %edx
	movl	$36, %esi
	movq	%rbx, %rdi
	call	lex_ctx_create_lexeme
.LVL258:
	movq	%rax, %r12
.LVL259:
	.loc 1 96 5 discriminator 1 view .LVU375
	cmpq	$0, -56(%rbp)
	je	.L295
.L273:
	movq	%r12, %rsi
	movq	-56(%rbp), %rdi
	call	array_append@PLT
.LVL260:
	jmp	.L272
.L295:
	leaq	.Lubsan_data42(%rip), %rdi
	call	__ubsan_handle_nonnull_arg@PLT
.LVL261:
	jmp	.L273
.L292:
	.loc 1 97 3 view .LVU376
	movl	$1, %edx
	movq	%r13, %rsi
	leaq	.Lubsan_data224(%rip), %rdi
	call	__ubsan_handle_add_overflow@PLT
.LVL262:
	jmp	.L274
.L276:
	.loc 1 97 3 view .LVU377
	movq	%rbx, %rsi
	leaq	.Lubsan_data222(%rip), %rdi
	call	__ubsan_handle_type_mismatch_v1@PLT
.LVL263:
	jmp	.L277
.L293:
	.loc 1 97 3 view .LVU378
	movq	%rbx, %rdi
	call	__asan_report_load8@PLT
.LVL264:
.L294:
	.loc 1 97 3 view .LVU379
	leaq	.Lubsan_data43(%rip), %rdi
	call	__ubsan_handle_nonnull_arg@PLT
.LVL265:
	jmp	.L279
	.cfi_endproc
.LFE57:
	.size	lex_ctx_consume_comment, .-lex_ctx_consume_comment
	.section	.rodata
	.align 32
.LC7:
	.string	"\033[1;37m%s:%u\033[0m: \033[1;34mverbose: \033[0mconsuming \"octal number\": \"%.*s\"\n"
	.zero	56
	.text
	.type	lex_ctx_consume_octal, @function
lex_ctx_consume_octal:
.LASANPC65:
.LVL266:
.LFB65:
	.loc 1 276 1 is_stmt 1 view -0
	.cfi_startproc
	.loc 1 276 1 is_stmt 0 view .LVU381
	pushq	%rbp
	.cfi_def_cfa_offset 16
	.cfi_offset 6, -16
	movq	%rsp, %rbp
	.cfi_def_cfa_register 6
	pushq	%r15
	pushq	%r14
	pushq	%r13
	pushq	%r12
	pushq	%rbx
	subq	$24, %rsp
	.cfi_offset 15, -24
	.cfi_offset 14, -32
	.cfi_offset 13, -40
	.cfi_offset 12, -48
	.cfi_offset 3, -56
1:	call	*mcount@GOTPCREL(%rip)
	movq	%rdi, %rbx
	movq	%rsi, -56(%rbp)
	.loc 1 277 3 is_stmt 1 view .LVU382
.LVL267:
	.loc 1 277 24 view .LVU383
	.loc 1 277 37 discriminator 1 view .LVU384
	.loc 1 277 12 is_stmt 0 view .LVU385
	movl	$0, %r13d
	.loc 1 277 43 view .LVU386
	jmp	.L297
.LVL268:
.L299:
	.loc 1 281 14 discriminator 1 view .LVU387
	movq	%r15, %rsi
	leaq	.Lubsan_data225(%rip), %rdi
	call	__ubsan_handle_type_mismatch_v1@PLT
.LVL269:
	jmp	.L300
.L341:
	movq	%r15, %rdi
	call	__asan_report_load8@PLT
.LVL270:
.L302:
	.loc 1 281 32 discriminator 1 view .LVU388
	cmpq	%rdx, %r15
	jb	.L304
.L303:
	movq	-64(%rbp), %rax
	addq	%rax, %r15
	je	.L305
	testb	$1, %r15b
	jne	.L305
.L306:
	movq	%r15, %rax
	shrq	$3, %rax
	movzbl	2147450880(%rax), %edx
	movq	%r15, %rax
	andl	$7, %eax
	addl	$1, %eax
	cmpb	%dl, %al
	jl	.L307
	testb	%dl, %dl
	jne	.L334
.L307:
	movzwl	(%r15), %eax
	.loc 1 281 12 discriminator 1 view .LVU389
	testb	$8, %ah
	jne	.L308
	.loc 1 281 30 discriminator 1 view .LVU390
	cmpl	$46, %r12d
	je	.L308
.L309:
	.loc 1 292 3 is_stmt 1 view .LVU391
	.loc 1 292 153 is_stmt 0 view .LVU392
	testq	%rbx, %rbx
	je	.L316
	testb	$7, %bl
	jne	.L316
.L317:
	leaq	8(%rbx), %rdx
	cmpq	$-8, %rbx
	jnb	.L335
.L318:
	leaq	8(%rbx), %rdi
	movq	%rdi, %rax
	shrq	$3, %rax
	cmpb	$0, 2147450880(%rax)
	jne	.L336
	movq	8(%rbx), %r15
	.loc 1 292 164 view .LVU393
	testq	%rbx, %rbx
	je	.L320
	testb	$7, %bl
	jne	.L320
.L321:
	movq	%rbx, %rax
	shrq	$3, %rax
	cmpb	$0, 2147450880(%rax)
	jne	.L337
	movq	(%rbx), %r12
.LVL271:
	.loc 1 292 164 view .LVU394
	testq	%r12, %r12
	je	.L338
.L323:
	movq	%r12, %rdi
	call	ftell@PLT
.LVL272:
	movq	%rax, %r12
	.loc 1 292 3 discriminator 1 view .LVU395
	leaq	(%r15,%rax), %rdx
	testq	%rax, %rax
	js	.L324
	cmpq	%r15, %rdx
	jnb	.L325
.L326:
	movq	%r15, %rsi
	leaq	.Lubsan_data232(%rip), %rdi
	call	__ubsan_handle_pointer_overflow@PLT
.LVL273:
	jmp	.L325
.LVL274:
.L305:
	.loc 1 281 32 discriminator 1 view .LVU396
	movq	%r15, %rsi
	leaq	.Lubsan_data227(%rip), %rdi
	call	__ubsan_handle_type_mismatch_v1@PLT
.LVL275:
	jmp	.L306
.L334:
	movq	%r15, %rdi
	call	__asan_report_load2@PLT
.LVL276:
.L308:
	.loc 1 284 13 is_stmt 1 view .LVU397
	movq	-56(%rbp), %rsi
	movq	%rbx, %rdi
	call	lex_ctx_consume_number
.LVL277:
	.loc 1 285 13 view .LVU398
	jmp	.L296
.L298:
	.loc 1 290 7 view .LVU399
	.loc 1 290 13 is_stmt 0 view .LVU400
	addq	$1, %r13
.LVL278:
.L297:
	.loc 1 277 96 is_stmt 1 discriminator 1 view .LVU401
	.loc 1 277 57 is_stmt 0 discriminator 1 view .LVU402
	movq	%r13, %r14
	testq	%rbx, %rbx
	je	.L311
	testb	$7, %bl
	jne	.L311
.L312:
	movq	%rbx, %rax
	shrq	$3, %rax
	cmpb	$0, 2147450880(%rax)
	jne	.L339
	movq	(%rbx), %r12
	testq	%r12, %r12
	je	.L340
.L314:
	movq	%r14, %rsi
	movq	%r12, %rdi
	call	fpeek@PLT
.LVL279:
	movl	%eax, %r12d
.LVL280:
	.loc 1 277 96 discriminator 1 view .LVU403
	testl	%eax, %eax
	jle	.L309
	.loc 1 279 5 is_stmt 1 view .LVU404
	.loc 1 279 10 is_stmt 0 view .LVU405
	movl	%r12d, %edi
	call	isoctdigit@PLT
.LVL281:
	.loc 1 279 8 discriminator 1 view .LVU406
	testl	%eax, %eax
	jne	.L298
	.loc 1 281 9 is_stmt 1 view .LVU407
	.loc 1 281 15 is_stmt 0 view .LVU408
	call	__ctype_b_loc@PLT
.LVL282:
	movq	%rax, %r15
	.loc 1 281 14 discriminator 1 view .LVU409
	testq	%rax, %rax
	je	.L299
	testb	$7, %al
	jne	.L299
.L300:
	movq	%r15, %rax
	shrq	$3, %rax
	cmpb	$0, 2147450880(%rax)
	jne	.L341
	movq	(%r15), %r15
	.loc 1 281 32 discriminator 1 view .LVU410
	movslq	%r12d, %rax
	addq	%rax, %rax
	movq	%rax, -64(%rbp)
	leaq	(%r15,%rax), %rdx
	js	.L302
	cmpq	%r15, %rdx
	jnb	.L303
.L304:
	movq	%r15, %rsi
	leaq	.Lubsan_data226(%rip), %rdi
	call	__ubsan_handle_pointer_overflow@PLT
.LVL283:
	jmp	.L303
.LVL284:
.L311:
	.loc 1 277 57 discriminator 1 view .LVU411
	movq	%rbx, %rsi
	leaq	.Lubsan_data228(%rip), %rdi
	call	__ubsan_handle_type_mismatch_v1@PLT
.LVL285:
	jmp	.L312
.L339:
	.loc 1 277 57 discriminator 1 view .LVU412
	movq	%rbx, %rdi
	call	__asan_report_load8@PLT
.LVL286:
.L340:
	.loc 1 277 57 discriminator 1 view .LVU413
	leaq	.Lubsan_data44(%rip), %rdi
	call	__ubsan_handle_nonnull_arg@PLT
.LVL287:
	jmp	.L314
.LVL288:
.L316:
	.loc 1 292 153 view .LVU414
	movq	%rbx, %rsi
	leaq	.Lubsan_data229(%rip), %rdi
	call	__ubsan_handle_type_mismatch_v1@PLT
.LVL289:
	jmp	.L317
.L335:
	.loc 1 292 153 view .LVU415
	movq	%rbx, %rsi
	leaq	.Lubsan_data230(%rip), %rdi
	call	__ubsan_handle_pointer_overflow@PLT
.LVL290:
	jmp	.L318
.L336:
	.loc 1 292 153 view .LVU416
	call	__asan_report_load8@PLT
.LVL291:
.L320:
	.loc 1 292 164 view .LVU417
	movq	%rbx, %rsi
	leaq	.Lubsan_data231(%rip), %rdi
	call	__ubsan_handle_type_mismatch_v1@PLT
.LVL292:
	jmp	.L321
.L337:
	.loc 1 292 164 view .LVU418
	movq	%rbx, %rdi
	call	__asan_report_load8@PLT
.LVL293:
.L338:
	.loc 1 292 164 view .LVU419
	leaq	.Lubsan_data45(%rip), %rdi
	call	__ubsan_handle_nonnull_arg@PLT
.LVL294:
	jmp	.L323
.L324:
	.loc 1 292 3 discriminator 1 view .LVU420
	cmpq	%rdx, %r15
	jb	.L326
.L325:
	addq	%r12, %r15
	movl	%r13d, -64(%rbp)
	leaq	stdout(%rip), %rdi
	movq	%rdi, %rax
	shrq	$3, %rax
	cmpb	$0, 2147450880(%rax)
	jne	.L342
	movq	stdout(%rip), %r12
	testq	%r12, %r12
	je	.L343
.L328:
.LVL295:
.LBB94:
.LBI94:
	.loc 2 77 1 is_stmt 1 view .LVU421
.LBB95:
	.loc 2 79 3 view .LVU422
	.loc 2 79 10 is_stmt 0 view .LVU423
	subq	$8, %rsp
	pushq	%r15
	movl	-64(%rbp), %r9d
	movl	$292, %r8d
	leaq	.LC0(%rip), %rcx
	leaq	.LC7(%rip), %rdx
	movl	$2, %esi
	movq	%r12, %rdi
	movl	$0, %eax
	call	__fprintf_chk@PLT
.LVL296:
	.loc 2 79 10 view .LVU424
.LBE95:
.LBE94:
	.loc 1 292 193 is_stmt 1 discriminator 2 view .LVU425
	.loc 1 293 5 view .LVU426
	.loc 1 293 30 is_stmt 0 view .LVU427
	movq	%r13, %rdx
	movl	$0, %esi
	movq	%rbx, %rdi
	call	lex_ctx_create_lexeme
.LVL297:
	movq	%rax, %r12
	.loc 1 293 5 discriminator 1 view .LVU428
	addq	$16, %rsp
	cmpq	$0, -56(%rbp)
	je	.L344
.L329:
	movq	%r12, %rsi
	movq	-56(%rbp), %rdi
	call	array_append@PLT
.LVL298:
	.loc 1 293 93 is_stmt 1 discriminator 2 view .LVU429
	testq	%rbx, %rbx
	je	.L330
	testb	$7, %bl
	jne	.L330
.L331:
	movq	%rbx, %rax
	shrq	$3, %rax
	cmpb	$0, 2147450880(%rax)
	jne	.L345
	movq	(%rbx), %rbx
.LVL299:
	.loc 1 293 93 is_stmt 0 discriminator 2 view .LVU430
	testq	%rbx, %rbx
	je	.L346
.L333:
	movq	%r14, %rsi
	movq	%rbx, %rdi
	call	fconsume@PLT
.LVL300:
.L296:
	.loc 1 294 1 view .LVU431
	leaq	-40(%rbp), %rsp
	popq	%rbx
	popq	%r12
	popq	%r13
.LVL301:
	.loc 1 294 1 view .LVU432
	popq	%r14
.LVL302:
	.loc 1 294 1 view .LVU433
	popq	%r15
	popq	%rbp
	.cfi_remember_state
	.cfi_def_cfa 7, 8
.LVL303:
	.loc 1 294 1 view .LVU434
	ret
.LVL304:
.L342:
	.cfi_restore_state
	.loc 1 292 3 discriminator 1 view .LVU435
	call	__asan_report_load8@PLT
.LVL305:
.L343:
	leaq	.Lubsan_data46(%rip), %rdi
	call	__ubsan_handle_nonnull_arg@PLT
.LVL306:
	jmp	.L328
.L344:
	.loc 1 293 5 discriminator 1 view .LVU436
	leaq	.Lubsan_data48(%rip), %rdi
	call	__ubsan_handle_nonnull_arg@PLT
.LVL307:
	jmp	.L329
.L330:
	.loc 1 293 93 discriminator 2 view .LVU437
	movq	%rbx, %rsi
	leaq	.Lubsan_data233(%rip), %rdi
	call	__ubsan_handle_type_mismatch_v1@PLT
.LVL308:
	jmp	.L331
.L345:
	.loc 1 293 93 discriminator 2 view .LVU438
	movq	%rbx, %rdi
	call	__asan_report_load8@PLT
.LVL309:
.L346:
	.loc 1 293 93 discriminator 2 view .LVU439
	leaq	.Lubsan_data49(%rip), %rdi
	call	__ubsan_handle_nonnull_arg@PLT
.LVL310:
	jmp	.L333
	.cfi_endproc
.LFE65:
	.size	lex_ctx_consume_octal, .-lex_ctx_consume_octal
	.section	.rodata
	.align 32
.LC8:
	.string	"\033[1;37m%s:%u\033[0m: \033[1;34mverbose: \033[0mconsuming \"string literal\": \"%.*s\"\n"
	.zero	54
	.align 32
.LC9:
	.string	"missing terminating \033[1;37m\"\033[0m character"
	.zero	53
	.text
	.type	lex_ctx_consume_string, @function
lex_ctx_consume_string:
.LASANPC63:
.LVL311:
.LFB63:
	.loc 1 202 1 is_stmt 1 view -0
	.cfi_startproc
	.loc 1 202 1 is_stmt 0 view .LVU441
	pushq	%rbp
	.cfi_def_cfa_offset 16
	.cfi_offset 6, -16
	movq	%rsp, %rbp
	.cfi_def_cfa_register 6
	pushq	%r15
	pushq	%r14
	pushq	%r13
	pushq	%r12
	pushq	%rbx
	subq	$24, %rsp
	.cfi_offset 15, -24
	.cfi_offset 14, -32
	.cfi_offset 13, -40
	.cfi_offset 12, -48
	.cfi_offset 3, -56
1:	call	*mcount@GOTPCREL(%rip)
	movq	%rdi, %rbx
	movq	%rsi, -56(%rbp)
	.loc 1 203 3 is_stmt 1 view .LVU442
.LVL312:
	.loc 1 203 24 view .LVU443
	.loc 1 203 37 discriminator 1 view .LVU444
	.loc 1 203 12 is_stmt 0 view .LVU445
	movl	$1, %r13d
	.loc 1 203 43 view .LVU446
	jmp	.L348
.LVL313:
.L349:
.LBB96:
	.loc 1 205 16 view .LVU447
	movq	%rbx, %rsi
	leaq	.Lubsan_data234(%rip), %rdi
	call	__ubsan_handle_type_mismatch_v1@PLT
.LVL314:
	.loc 1 205 16 view .LVU448
	jmp	.L350
.L394:
	.loc 1 205 16 view .LVU449
	movq	%rbx, %rdi
	call	__asan_report_load8@PLT
.LVL315:
.L395:
	.loc 1 205 16 view .LVU450
	leaq	.Lubsan_data50(%rip), %rdi
	call	__ubsan_handle_nonnull_arg@PLT
.LVL316:
	jmp	.L352
.LVL317:
.L354:
	.loc 1 213 10 is_stmt 1 view .LVU451
	.loc 1 213 13 is_stmt 0 view .LVU452
	cmpl	$10, %r12d
	je	.L356
.LVL318:
.L355:
	.loc 1 215 5 is_stmt 1 view .LVU453
	.loc 1 215 11 is_stmt 0 view .LVU454
	addq	$1, %r13
.LVL319:
.L348:
	.loc 1 215 11 view .LVU455
.LBE96:
	.loc 1 203 96 is_stmt 1 discriminator 1 view .LVU456
	.loc 1 203 57 is_stmt 0 discriminator 1 view .LVU457
	movq	%r13, %r14
	testq	%rbx, %rbx
	je	.L357
	testb	$7, %bl
	jne	.L357
.L358:
	movq	%rbx, %rax
	shrq	$3, %rax
	cmpb	$0, 2147450880(%rax)
	jne	.L392
	movq	(%rbx), %r12
	testq	%r12, %r12
	je	.L393
.L360:
	movq	%r14, %rsi
	movq	%r12, %rdi
	call	fpeek@PLT
.LVL320:
	movl	%eax, %r12d
.LVL321:
	.loc 1 203 96 discriminator 1 view .LVU458
	testl	%eax, %eax
	jle	.L353
.LBB97:
	.loc 1 205 5 is_stmt 1 view .LVU459
	.loc 1 205 50 is_stmt 0 view .LVU460
	leaq	1(%r13), %r15
	.loc 1 205 16 view .LVU461
	testq	%rbx, %rbx
	je	.L349
	testb	$7, %bl
	jne	.L349
.LVL322:
.L350:
	.loc 1 205 16 view .LVU462
	movq	%rbx, %rax
	shrq	$3, %rax
	cmpb	$0, 2147450880(%rax)
	jne	.L394
	movq	(%rbx), %r14
	testq	%r14, %r14
	je	.L395
.L352:
	movq	%r15, %rsi
	movq	%r14, %rdi
	call	fpeek@PLT
.LVL323:
	.loc 1 206 5 is_stmt 1 view .LVU463
	.loc 1 206 8 is_stmt 0 view .LVU464
	cmpl	$34, %r12d
	je	.L390
	.loc 1 211 5 is_stmt 1 view .LVU465
	.loc 1 211 8 is_stmt 0 view .LVU466
	cmpl	$92, %r12d
	jne	.L354
	.loc 1 211 34 discriminator 1 view .LVU467
	cmpl	$10, %eax
	sete	%dl
	.loc 1 211 50 discriminator 1 view .LVU468
	cmpl	$34, %eax
	sete	%al
.LVL324:
	.loc 1 211 25 discriminator 1 view .LVU469
	orb	%al, %dl
	je	.L354
	.loc 1 212 13 view .LVU470
	movq	%r15, %r13
.LVL325:
	.loc 1 212 13 view .LVU471
	jmp	.L355
.LVL326:
.L357:
	.loc 1 212 13 view .LVU472
.LBE97:
	.loc 1 203 57 discriminator 1 view .LVU473
	movq	%rbx, %rsi
	leaq	.Lubsan_data235(%rip), %rdi
	call	__ubsan_handle_type_mismatch_v1@PLT
.LVL327:
	jmp	.L358
.L392:
	.loc 1 203 57 discriminator 1 view .LVU474
	movq	%rbx, %rdi
	call	__asan_report_load8@PLT
.LVL328:
.L393:
	.loc 1 203 57 discriminator 1 view .LVU475
	leaq	.Lubsan_data51(%rip), %rdi
	call	__ubsan_handle_nonnull_arg@PLT
.LVL329:
	jmp	.L360
.LVL330:
.L390:
.LBB98:
	.loc 1 208 15 view .LVU476
	movq	%r15, %r13
.LVL331:
.L353:
	.loc 1 208 15 view .LVU477
.LBE98:
	.loc 1 218 3 is_stmt 1 view .LVU478
	.loc 1 218 6 is_stmt 0 view .LVU479
	cmpl	$-1, %r12d
	je	.L356
	.loc 1 221 3 is_stmt 1 view .LVU480
	.loc 1 221 156 is_stmt 0 view .LVU481
	testq	%rbx, %rbx
	je	.L362
	testb	$7, %bl
	jne	.L362
.L363:
	leaq	8(%rbx), %rdx
	cmpq	$-8, %rbx
	jnb	.L396
.L364:
	leaq	8(%rbx), %rdi
	movq	%rdi, %rax
	shrq	$3, %rax
	cmpb	$0, 2147450880(%rax)
	jne	.L397
	movq	8(%rbx), %r14
	.loc 1 221 167 view .LVU482
	testq	%rbx, %rbx
	je	.L366
	testb	$7, %bl
	jne	.L366
.L367:
	movq	%rbx, %rax
	shrq	$3, %rax
	cmpb	$0, 2147450880(%rax)
	jne	.L398
	movq	(%rbx), %r12
.LVL332:
	.loc 1 221 167 view .LVU483
	testq	%r12, %r12
	je	.L399
.L369:
	movq	%r12, %rdi
	call	ftell@PLT
.LVL333:
	.loc 1 221 189 discriminator 1 view .LVU484
	leaq	1(%rax), %r15
	.loc 1 221 3 discriminator 1 view .LVU485
	leaq	(%r14,%r15), %rdx
	testq	%r15, %r15
	js	.L370
	cmpq	%r14, %rdx
	jnb	.L371
.L372:
	movq	%r14, %rsi
	leaq	.Lubsan_data239(%rip), %rdi
	call	__ubsan_handle_pointer_overflow@PLT
.LVL334:
	jmp	.L371
.LVL335:
.L362:
	.loc 1 221 156 view .LVU486
	movq	%rbx, %rsi
	leaq	.Lubsan_data236(%rip), %rdi
	call	__ubsan_handle_type_mismatch_v1@PLT
.LVL336:
	jmp	.L363
.L396:
	.loc 1 221 156 view .LVU487
	movq	%rbx, %rsi
	leaq	.Lubsan_data237(%rip), %rdi
	call	__ubsan_handle_pointer_overflow@PLT
.LVL337:
	jmp	.L364
.L397:
	.loc 1 221 156 view .LVU488
	call	__asan_report_load8@PLT
.LVL338:
.L366:
	.loc 1 221 167 view .LVU489
	movq	%rbx, %rsi
	leaq	.Lubsan_data238(%rip), %rdi
	call	__ubsan_handle_type_mismatch_v1@PLT
.LVL339:
	jmp	.L367
.L398:
	.loc 1 221 167 view .LVU490
	movq	%rbx, %rdi
	call	__asan_report_load8@PLT
.LVL340:
.L399:
	.loc 1 221 167 view .LVU491
	leaq	.Lubsan_data52(%rip), %rdi
	call	__ubsan_handle_nonnull_arg@PLT
.LVL341:
	jmp	.L369
.L370:
	.loc 1 221 3 discriminator 1 view .LVU492
	cmpq	%rdx, %r14
	jb	.L372
.L371:
	addq	%r14, %r15
	movl	%r13d, %r14d
	addl	$-2, %r14d
	jo	.L400
.L373:
	leaq	stdout(%rip), %rdi
	movq	%rdi, %rax
	shrq	$3, %rax
	cmpb	$0, 2147450880(%rax)
	jne	.L401
	movq	stdout(%rip), %r12
	testq	%r12, %r12
	je	.L402
.L376:
.LVL342:
.LBB99:
.LBI99:
	.loc 2 77 1 is_stmt 1 view .LVU493
.LBB100:
	.loc 2 79 3 view .LVU494
	.loc 2 79 10 is_stmt 0 view .LVU495
	subq	$8, %rsp
	pushq	%r15
	movl	%r14d, %r9d
	movl	$221, %r8d
	leaq	.LC0(%rip), %rcx
	leaq	.LC8(%rip), %rdx
	movl	$2, %esi
	movq	%r12, %rdi
	movl	$0, %eax
	call	__fprintf_chk@PLT
.LVL343:
	.loc 2 79 10 view .LVU496
.LBE100:
.LBE99:
	.loc 1 221 196 is_stmt 1 discriminator 2 view .LVU497
	.loc 1 222 5 view .LVU498
	.loc 1 222 30 is_stmt 0 view .LVU499
	movq	%r13, %rdx
	movl	$2, %esi
	movq	%rbx, %rdi
	call	lex_ctx_create_lexeme
.LVL344:
	movq	%rax, %r12
	.loc 1 222 5 discriminator 1 view .LVU500
	addq	$16, %rsp
	cmpq	$0, -56(%rbp)
	je	.L403
.L377:
	movq	%r12, %rsi
	movq	-56(%rbp), %rdi
	call	array_append@PLT
.LVL345:
	.loc 1 222 92 is_stmt 1 discriminator 2 view .LVU501
	testq	%rbx, %rbx
	je	.L378
	testb	$7, %bl
	jne	.L378
.L379:
	movq	%rbx, %rax
	shrq	$3, %rax
	cmpb	$0, 2147450880(%rax)
	jne	.L404
	movq	(%rbx), %rbx
.LVL346:
	.loc 1 222 92 is_stmt 0 discriminator 2 view .LVU502
	testq	%rbx, %rbx
	je	.L405
.L381:
	movq	%r13, %rsi
	movq	%rbx, %rdi
	call	fconsume@PLT
.LVL347:
	.loc 1 222 135 is_stmt 1 discriminator 3 view .LVU503
	.loc 1 223 3 view .LVU504
.L347:
	.loc 1 231 1 is_stmt 0 view .LVU505
	leaq	-40(%rbp), %rsp
	popq	%rbx
	popq	%r12
	popq	%r13
	popq	%r14
	popq	%r15
	popq	%rbp
	.cfi_remember_state
	.cfi_def_cfa 7, 8
.LVL348:
	.loc 1 231 1 view .LVU506
	ret
.LVL349:
.L400:
	.cfi_restore_state
	.loc 1 221 3 discriminator 1 view .LVU507
	movslq	%r13d, %rsi
	movq	$-2, %rdx
	leaq	.Lubsan_data242(%rip), %rdi
	call	__ubsan_handle_add_overflow@PLT
.LVL350:
	jmp	.L373
.L401:
	call	__asan_report_load8@PLT
.LVL351:
.L402:
	leaq	.Lubsan_data53(%rip), %rdi
	call	__ubsan_handle_nonnull_arg@PLT
.LVL352:
	jmp	.L376
.L403:
	.loc 1 222 5 discriminator 1 view .LVU508
	leaq	.Lubsan_data55(%rip), %rdi
	call	__ubsan_handle_nonnull_arg@PLT
.LVL353:
	jmp	.L377
.L378:
	.loc 1 222 92 discriminator 2 view .LVU509
	movq	%rbx, %rsi
	leaq	.Lubsan_data240(%rip), %rdi
	call	__ubsan_handle_type_mismatch_v1@PLT
.LVL354:
	jmp	.L379
.L404:
	.loc 1 222 92 discriminator 2 view .LVU510
	movq	%rbx, %rdi
	call	__asan_report_load8@PLT
.LVL355:
.L405:
	.loc 1 222 92 discriminator 2 view .LVU511
	leaq	.Lubsan_data56(%rip), %rdi
	call	__ubsan_handle_nonnull_arg@PLT
.LVL356:
	jmp	.L381
.LVL357:
.L356:
	.loc 1 225 17 is_stmt 1 view .LVU512
	.loc 1 225 45 is_stmt 0 view .LVU513
	movq	%rbx, %rdi
	call	lex_ctx_length_until_eol
.LVL358:
	movq	%rax, %r13
.LVL359:
	.loc 1 226 17 is_stmt 1 view .LVU514
	.loc 1 226 38 is_stmt 0 view .LVU515
	movq	%rax, %rdx
	movl	$2, %esi
	movq	%rbx, %rdi
	call	lex_ctx_create_lexeme
.LVL360:
	.loc 1 226 38 view .LVU516
	movq	%rax, %r12
.LVL361:
	.loc 1 227 3 is_stmt 1 view .LVU517
	movq	g_diagnostics(%rip), %r14
	testq	%r14, %r14
	je	.L406
.LVL362:
.L383:
	.loc 1 227 3 is_stmt 0 view .LVU518
	testq	%r12, %r12
	je	.L407
.L384:
	leaq	.LC9(%rip), %r8
	movq	%r12, %rcx
	movl	$1, %edx
	movl	$0, %esi
	movq	%r14, %rdi
	movl	$0, %eax
	call	diagn_push@PLT
.LVL363:
	.loc 1 229 3 is_stmt 1 view .LVU519
	testq	%rbx, %rbx
	je	.L385
	testb	$7, %bl
	jne	.L385
.L386:
	movq	%rbx, %rax
	shrq	$3, %rax
	cmpb	$0, 2147450880(%rax)
	jne	.L408
	movq	(%rbx), %rbx
.LVL364:
	.loc 1 229 3 is_stmt 0 view .LVU520
	testq	%rbx, %rbx
	je	.L409
.L388:
	movq	%r13, %rsi
	movq	%rbx, %rdi
	call	fconsume@PLT
.LVL365:
	.loc 1 230 3 is_stmt 1 view .LVU521
	cmpq	$0, -56(%rbp)
	je	.L410
.L389:
	movq	%r12, %rsi
	movq	-56(%rbp), %rdi
	call	array_append@PLT
.LVL366:
	jmp	.L347
.LVL367:
.L406:
	.loc 1 227 3 is_stmt 0 view .LVU522
	leaq	.Lubsan_data57(%rip), %rdi
	call	__ubsan_handle_nonnull_arg@PLT
.LVL368:
	.loc 1 227 3 view .LVU523
	jmp	.L383
.L407:
	.loc 1 227 3 view .LVU524
	leaq	.Lubsan_data58(%rip), %rdi
	call	__ubsan_handle_nonnull_arg@PLT
.LVL369:
	jmp	.L384
.L385:
	.loc 1 229 3 view .LVU525
	movq	%rbx, %rsi
	leaq	.Lubsan_data241(%rip), %rdi
	call	__ubsan_handle_type_mismatch_v1@PLT
.LVL370:
	jmp	.L386
.L408:
	.loc 1 229 3 view .LVU526
	movq	%rbx, %rdi
	call	__asan_report_load8@PLT
.LVL371:
.L409:
	.loc 1 229 3 view .LVU527
	leaq	.Lubsan_data59(%rip), %rdi
	call	__ubsan_handle_nonnull_arg@PLT
.LVL372:
	jmp	.L388
.L410:
	.loc 1 230 3 view .LVU528
	leaq	.Lubsan_data60(%rip), %rdi
	call	__ubsan_handle_nonnull_arg@PLT
.LVL373:
	jmp	.L389
	.cfi_endproc
.LFE63:
	.size	lex_ctx_consume_string, .-lex_ctx_consume_string
	.section	.rodata
	.align 32
.LC10:
	.string	"multi-character character constant"
	.zero	61
	.align 32
.LC11:
	.string	"multichar"
	.zero	54
	.align 32
.LC12:
	.string	"\033[1;37m%s:%u\033[0m: \033[1;34mverbose: \033[0mconsuming \"character literal\": \"%.*s\"\n"
	.zero	51
	.align 32
.LC13:
	.string	"missing terminating \033[1;37m'\033[0m character"
	.zero	53
	.text
	.type	lex_ctx_consume_character, @function
lex_ctx_consume_character:
.LASANPC64:
.LVL374:
.LFB64:
	.loc 1 236 1 is_stmt 1 view -0
	.cfi_startproc
	.loc 1 236 1 is_stmt 0 view .LVU530
	pushq	%rbp
	.cfi_def_cfa_offset 16
	.cfi_offset 6, -16
	movq	%rsp, %rbp
	.cfi_def_cfa_register 6
	pushq	%r15
	pushq	%r14
	pushq	%r13
	pushq	%r12
	pushq	%rbx
	subq	$24, %rsp
	.cfi_offset 15, -24
	.cfi_offset 14, -32
	.cfi_offset 13, -40
	.cfi_offset 12, -48
	.cfi_offset 3, -56
1:	call	*mcount@GOTPCREL(%rip)
	movq	%rdi, %rbx
	movq	%rsi, -56(%rbp)
	.loc 1 237 3 is_stmt 1 view .LVU531
.LVL375:
	.loc 1 237 24 view .LVU532
	.loc 1 237 37 discriminator 1 view .LVU533
	.loc 1 237 12 is_stmt 0 view .LVU534
	movl	$1, %r13d
	.loc 1 237 43 view .LVU535
	jmp	.L412
.LVL376:
.L413:
.LBB101:
	.loc 1 239 16 view .LVU536
	movq	%rbx, %rsi
	leaq	.Lubsan_data243(%rip), %rdi
	call	__ubsan_handle_type_mismatch_v1@PLT
.LVL377:
	.loc 1 239 16 view .LVU537
	jmp	.L414
.L461:
	.loc 1 239 16 view .LVU538
	movq	%rbx, %rdi
	call	__asan_report_load8@PLT
.LVL378:
.L462:
	.loc 1 239 16 view .LVU539
	leaq	.Lubsan_data61(%rip), %rdi
	call	__ubsan_handle_nonnull_arg@PLT
.LVL379:
	jmp	.L416
.LVL380:
.L418:
	.loc 1 247 10 is_stmt 1 view .LVU540
	.loc 1 247 13 is_stmt 0 view .LVU541
	cmpl	$10, %r12d
	je	.L420
.LVL381:
.L419:
	.loc 1 249 5 is_stmt 1 view .LVU542
	.loc 1 249 11 is_stmt 0 view .LVU543
	addq	$1, %r13
.LVL382:
.L412:
	.loc 1 249 11 view .LVU544
.LBE101:
	.loc 1 237 96 is_stmt 1 discriminator 1 view .LVU545
	.loc 1 237 57 is_stmt 0 discriminator 1 view .LVU546
	movq	%r13, %r14
	testq	%rbx, %rbx
	je	.L421
	testb	$7, %bl
	jne	.L421
.L422:
	movq	%rbx, %rax
	shrq	$3, %rax
	cmpb	$0, 2147450880(%rax)
	jne	.L459
	movq	(%rbx), %r12
	testq	%r12, %r12
	je	.L460
.L424:
	movq	%r14, %rsi
	movq	%r12, %rdi
	call	fpeek@PLT
.LVL383:
	movl	%eax, %r12d
.LVL384:
	.loc 1 237 96 discriminator 1 view .LVU547
	testl	%eax, %eax
	jle	.L417
.LBB102:
	.loc 1 239 5 is_stmt 1 view .LVU548
	.loc 1 239 50 is_stmt 0 view .LVU549
	leaq	1(%r13), %r15
	.loc 1 239 16 view .LVU550
	testq	%rbx, %rbx
	je	.L413
	testb	$7, %bl
	jne	.L413
.LVL385:
.L414:
	.loc 1 239 16 view .LVU551
	movq	%rbx, %rax
	shrq	$3, %rax
	cmpb	$0, 2147450880(%rax)
	jne	.L461
	movq	(%rbx), %r14
	testq	%r14, %r14
	je	.L462
.L416:
	movq	%r15, %rsi
	movq	%r14, %rdi
	call	fpeek@PLT
.LVL386:
	.loc 1 240 5 is_stmt 1 view .LVU552
	.loc 1 240 8 is_stmt 0 view .LVU553
	cmpl	$39, %r12d
	je	.L457
	.loc 1 245 5 is_stmt 1 view .LVU554
	.loc 1 245 8 is_stmt 0 view .LVU555
	cmpl	$92, %r12d
	jne	.L418
	.loc 1 245 34 discriminator 1 view .LVU556
	cmpl	$10, %eax
	sete	%dl
	.loc 1 245 50 discriminator 1 view .LVU557
	cmpl	$39, %eax
	sete	%al
.LVL387:
	.loc 1 245 25 discriminator 1 view .LVU558
	orb	%al, %dl
	je	.L418
	.loc 1 246 13 view .LVU559
	movq	%r15, %r13
.LVL388:
	.loc 1 246 13 view .LVU560
	jmp	.L419
.LVL389:
.L421:
	.loc 1 246 13 view .LVU561
.LBE102:
	.loc 1 237 57 discriminator 1 view .LVU562
	movq	%rbx, %rsi
	leaq	.Lubsan_data244(%rip), %rdi
	call	__ubsan_handle_type_mismatch_v1@PLT
.LVL390:
	jmp	.L422
.L459:
	.loc 1 237 57 discriminator 1 view .LVU563
	movq	%rbx, %rdi
	call	__asan_report_load8@PLT
.LVL391:
.L460:
	.loc 1 237 57 discriminator 1 view .LVU564
	leaq	.Lubsan_data62(%rip), %rdi
	call	__ubsan_handle_nonnull_arg@PLT
.LVL392:
	jmp	.L424
.LVL393:
.L457:
.LBB103:
	.loc 1 242 15 view .LVU565
	movq	%r15, %r13
.LVL394:
.L417:
	.loc 1 242 15 view .LVU566
.LBE103:
	.loc 1 252 3 is_stmt 1 view .LVU567
	.loc 1 253 3 view .LVU568
	.loc 1 253 6 is_stmt 0 view .LVU569
	cmpl	$-1, %r12d
	je	.L420
	.loc 1 256 3 is_stmt 1 view .LVU570
	.loc 1 256 12 is_stmt 0 view .LVU571
	movq	%r13, %rdx
	movl	$3, %esi
	movq	%rbx, %rdi
	call	lex_ctx_create_lexeme
.LVL395:
	movq	%rax, -64(%rbp)
.LVL396:
	.loc 1 257 3 is_stmt 1 view .LVU572
	.loc 1 257 6 is_stmt 0 view .LVU573
	cmpq	$3, %r13
	jbe	.L426
	.loc 1 258 5 is_stmt 1 view .LVU574
	movq	g_diagnostics(%rip), %r12
.LVL397:
	.loc 1 258 5 is_stmt 0 view .LVU575
	testq	%r12, %r12
	je	.L463
.LVL398:
.L427:
	.loc 1 258 5 view .LVU576
	cmpq	$0, -64(%rbp)
	je	.L464
.L428:
	leaq	.LC10(%rip), %r8
	movq	-64(%rbp), %rcx
	movl	$0, %edx
	leaq	.LC11(%rip), %rsi
	movq	%r12, %rdi
	movl	$0, %eax
	call	diagn_push@PLT
.LVL399:
.L426:
	.loc 1 260 3 is_stmt 1 view .LVU577
	.loc 1 260 159 is_stmt 0 view .LVU578
	testq	%rbx, %rbx
	je	.L429
	testb	$7, %bl
	jne	.L429
.L430:
	leaq	8(%rbx), %rdx
	cmpq	$-8, %rbx
	jnb	.L465
.L431:
	leaq	8(%rbx), %rdi
	movq	%rdi, %rax
	shrq	$3, %rax
	cmpb	$0, 2147450880(%rax)
	jne	.L466
	movq	8(%rbx), %r14
	.loc 1 260 170 view .LVU579
	testq	%rbx, %rbx
	je	.L433
	testb	$7, %bl
	jne	.L433
.L434:
	movq	%rbx, %rax
	shrq	$3, %rax
	cmpb	$0, 2147450880(%rax)
	jne	.L467
	movq	(%rbx), %r12
	testq	%r12, %r12
	je	.L468
.L436:
	movq	%r12, %rdi
	call	ftell@PLT
.LVL400:
	.loc 1 260 192 discriminator 1 view .LVU580
	leaq	1(%rax), %r15
	.loc 1 260 3 discriminator 1 view .LVU581
	leaq	(%r14,%r15), %rdx
	testq	%r15, %r15
	js	.L437
	cmpq	%r14, %rdx
	jnb	.L438
.L439:
	movq	%r14, %rsi
	leaq	.Lubsan_data248(%rip), %rdi
	call	__ubsan_handle_pointer_overflow@PLT
.LVL401:
	jmp	.L438
.LVL402:
.L463:
	.loc 1 258 5 view .LVU582
	leaq	.Lubsan_data63(%rip), %rdi
	call	__ubsan_handle_nonnull_arg@PLT
.LVL403:
	.loc 1 258 5 view .LVU583
	jmp	.L427
.L464:
	leaq	.Lubsan_data64(%rip), %rdi
	call	__ubsan_handle_nonnull_arg@PLT
.LVL404:
	jmp	.L428
.L429:
	.loc 1 260 159 view .LVU584
	movq	%rbx, %rsi
	leaq	.Lubsan_data245(%rip), %rdi
	call	__ubsan_handle_type_mismatch_v1@PLT
.LVL405:
	jmp	.L430
.L465:
	.loc 1 260 159 view .LVU585
	movq	%rbx, %rsi
	leaq	.Lubsan_data246(%rip), %rdi
	call	__ubsan_handle_pointer_overflow@PLT
.LVL406:
	jmp	.L431
.L466:
	.loc 1 260 159 view .LVU586
	call	__asan_report_load8@PLT
.LVL407:
.L433:
	.loc 1 260 170 view .LVU587
	movq	%rbx, %rsi
	leaq	.Lubsan_data247(%rip), %rdi
	call	__ubsan_handle_type_mismatch_v1@PLT
.LVL408:
	jmp	.L434
.L467:
	.loc 1 260 170 view .LVU588
	movq	%rbx, %rdi
	call	__asan_report_load8@PLT
.LVL409:
.L468:
	.loc 1 260 170 view .LVU589
	leaq	.Lubsan_data65(%rip), %rdi
	call	__ubsan_handle_nonnull_arg@PLT
.LVL410:
	jmp	.L436
.L437:
	.loc 1 260 3 discriminator 1 view .LVU590
	cmpq	%rdx, %r14
	jb	.L439
.L438:
	addq	%r14, %r15
	movl	%r13d, %r14d
	addl	$-2, %r14d
	jo	.L469
.L440:
	leaq	stdout(%rip), %rdi
	movq	%rdi, %rax
	shrq	$3, %rax
	cmpb	$0, 2147450880(%rax)
	jne	.L470
	movq	stdout(%rip), %r12
	testq	%r12, %r12
	je	.L471
.L443:
.LVL411:
.LBB104:
.LBI104:
	.loc 2 77 1 is_stmt 1 view .LVU591
.LBB105:
	.loc 2 79 3 view .LVU592
	.loc 2 79 10 is_stmt 0 view .LVU593
	subq	$8, %rsp
	pushq	%r15
	movl	%r14d, %r9d
	movl	$260, %r8d
	leaq	.LC0(%rip), %rcx
	leaq	.LC12(%rip), %rdx
	movl	$2, %esi
	movq	%r12, %rdi
	movl	$0, %eax
	call	__fprintf_chk@PLT
.LVL412:
	.loc 2 79 10 view .LVU594
.LBE105:
.LBE104:
	.loc 1 260 199 is_stmt 1 discriminator 2 view .LVU595
	.loc 1 261 3 view .LVU596
	addq	$16, %rsp
	cmpq	$0, -56(%rbp)
	je	.L472
.L444:
	movq	-64(%rbp), %rsi
	movq	-56(%rbp), %rdi
	call	array_append@PLT
.LVL413:
	.loc 1 262 3 view .LVU597
	testq	%rbx, %rbx
	je	.L445
	testb	$7, %bl
	jne	.L445
.L446:
	movq	%rbx, %rax
	shrq	$3, %rax
	cmpb	$0, 2147450880(%rax)
	jne	.L473
	movq	(%rbx), %rbx
.LVL414:
	.loc 1 262 3 is_stmt 0 view .LVU598
	testq	%rbx, %rbx
	je	.L474
.L448:
	movq	%r13, %rsi
	movq	%rbx, %rdi
	call	fconsume@PLT
.LVL415:
	.loc 1 263 3 is_stmt 1 view .LVU599
	jmp	.L411
.LVL416:
.L469:
	.loc 1 260 3 is_stmt 0 discriminator 1 view .LVU600
	movslq	%r13d, %rsi
	movq	$-2, %rdx
	leaq	.Lubsan_data251(%rip), %rdi
	call	__ubsan_handle_add_overflow@PLT
.LVL417:
	jmp	.L440
.L470:
	call	__asan_report_load8@PLT
.LVL418:
.L471:
	leaq	.Lubsan_data66(%rip), %rdi
	call	__ubsan_handle_nonnull_arg@PLT
.LVL419:
	jmp	.L443
.L472:
	.loc 1 261 3 view .LVU601
	leaq	.Lubsan_data68(%rip), %rdi
	call	__ubsan_handle_nonnull_arg@PLT
.LVL420:
	jmp	.L444
.L445:
	.loc 1 262 3 view .LVU602
	movq	%rbx, %rsi
	leaq	.Lubsan_data249(%rip), %rdi
	call	__ubsan_handle_type_mismatch_v1@PLT
.LVL421:
	jmp	.L446
.L473:
	.loc 1 262 3 view .LVU603
	movq	%rbx, %rdi
	call	__asan_report_load8@PLT
.LVL422:
.L474:
	.loc 1 262 3 view .LVU604
	leaq	.Lubsan_data69(%rip), %rdi
	call	__ubsan_handle_nonnull_arg@PLT
.LVL423:
	jmp	.L448
.LVL424:
.L420:
	.loc 1 265 17 is_stmt 1 view .LVU605
	.loc 1 265 45 is_stmt 0 view .LVU606
	movq	%rbx, %rdi
	call	lex_ctx_length_until_eol
.LVL425:
	movq	%rax, %r13
.LVL426:
	.loc 1 266 17 is_stmt 1 view .LVU607
	.loc 1 266 42 is_stmt 0 view .LVU608
	movq	%rax, %rdx
	movl	$2, %esi
	movq	%rbx, %rdi
	call	lex_ctx_create_lexeme
.LVL427:
	.loc 1 266 42 view .LVU609
	movq	%rax, %r12
.LVL428:
	.loc 1 267 3 is_stmt 1 view .LVU610
	movq	g_diagnostics(%rip), %r14
	testq	%r14, %r14
	je	.L475
.LVL429:
.L450:
	.loc 1 267 3 is_stmt 0 view .LVU611
	testq	%r12, %r12
	je	.L476
.L451:
	leaq	.LC13(%rip), %r8
	movq	%r12, %rcx
	movl	$1, %edx
	movl	$0, %esi
	movq	%r14, %rdi
	movl	$0, %eax
	call	diagn_push@PLT
.LVL430:
	.loc 1 269 3 is_stmt 1 view .LVU612
	testq	%rbx, %rbx
	je	.L452
	testb	$7, %bl
	jne	.L452
.L453:
	movq	%rbx, %rax
	shrq	$3, %rax
	cmpb	$0, 2147450880(%rax)
	jne	.L477
	movq	(%rbx), %rbx
.LVL431:
	.loc 1 269 3 is_stmt 0 view .LVU613
	testq	%rbx, %rbx
	je	.L478
.L455:
	movq	%r13, %rsi
	movq	%rbx, %rdi
	call	fconsume@PLT
.LVL432:
	.loc 1 270 3 is_stmt 1 view .LVU614
	cmpq	$0, -56(%rbp)
	je	.L479
.L456:
	movq	%r12, %rsi
	movq	-56(%rbp), %rdi
	call	array_append@PLT
.LVL433:
.L411:
	.loc 1 271 1 is_stmt 0 view .LVU615
	leaq	-40(%rbp), %rsp
	popq	%rbx
	popq	%r12
	popq	%r13
	popq	%r14
	popq	%r15
	popq	%rbp
	.cfi_remember_state
	.cfi_def_cfa 7, 8
.LVL434:
	.loc 1 271 1 view .LVU616
	ret
.LVL435:
.L475:
	.cfi_restore_state
	.loc 1 267 3 view .LVU617
	leaq	.Lubsan_data70(%rip), %rdi
	call	__ubsan_handle_nonnull_arg@PLT
.LVL436:
	.loc 1 267 3 view .LVU618
	jmp	.L450
.L476:
	.loc 1 267 3 view .LVU619
	leaq	.Lubsan_data71(%rip), %rdi
	call	__ubsan_handle_nonnull_arg@PLT
.LVL437:
	jmp	.L451
.L452:
	.loc 1 269 3 view .LVU620
	movq	%rbx, %rsi
	leaq	.Lubsan_data250(%rip), %rdi
	call	__ubsan_handle_type_mismatch_v1@PLT
.LVL438:
	jmp	.L453
.L477:
	.loc 1 269 3 view .LVU621
	movq	%rbx, %rdi
	call	__asan_report_load8@PLT
.LVL439:
.L478:
	.loc 1 269 3 view .LVU622
	leaq	.Lubsan_data72(%rip), %rdi
	call	__ubsan_handle_nonnull_arg@PLT
.LVL440:
	jmp	.L455
.L479:
	.loc 1 270 3 view .LVU623
	leaq	.Lubsan_data73(%rip), %rdi
	call	__ubsan_handle_nonnull_arg@PLT
.LVL441:
	jmp	.L456
	.cfi_endproc
.LFE64:
	.size	lex_ctx_consume_character, .-lex_ctx_consume_character
	.section	.rodata
	.align 32
.LC14:
	.string	"yes"
	.zero	60
	.align 32
.LC15:
	.string	"no"
	.zero	61
	.align 32
.LC16:
	.string	"missing terminating \033[1;37m*/\033[0m characters from multiline comment"
	.zero	60
	.align 32
.LC17:
	.string	"\033[1;37m%s:%u\033[0m: \033[1;34mverbose: \033[0mconsuming multi-line comment of length (tokenize-comments=%s): %lu\n"
	.zero	54
	.align 32
.LC18:
	.string	"\033[1;37m%s:%u\033[0m: \033[1;36mminutiae: \033[0mmulti-line comment: \"%.*s\"\n"
	.zero	61
	.text
	.type	lex_ctx_consume_multicomment, @function
lex_ctx_consume_multicomment:
.LASANPC58:
.LVL442:
.LFB58:
	.loc 1 103 1 is_stmt 1 view -0
	.cfi_startproc
	.loc 1 103 1 is_stmt 0 view .LVU625
	pushq	%rbp
	.cfi_def_cfa_offset 16
	.cfi_offset 6, -16
	movq	%rsp, %rbp
	.cfi_def_cfa_register 6
	pushq	%r15
	pushq	%r14
	pushq	%r13
	pushq	%r12
	pushq	%rbx
	subq	$24, %rsp
	.cfi_offset 15, -24
	.cfi_offset 14, -32
	.cfi_offset 13, -40
	.cfi_offset 12, -48
	.cfi_offset 3, -56
1:	call	*mcount@GOTPCREL(%rip)
	movq	%rdi, %rbx
	movq	%rsi, -64(%rbp)
	.loc 1 104 3 is_stmt 1 view .LVU626
.LVL443:
	.loc 1 104 24 view .LVU627
	.loc 1 104 37 discriminator 1 view .LVU628
	.loc 1 104 12 is_stmt 0 view .LVU629
	movl	$2, %r13d
.LVL444:
.L481:
	.loc 1 104 96 is_stmt 1 discriminator 1 view .LVU630
	.loc 1 104 57 is_stmt 0 discriminator 1 view .LVU631
	movq	%r13, -56(%rbp)
	testq	%rbx, %rbx
	je	.L487
	testb	$7, %bl
	jne	.L487
.L488:
	movq	%rbx, %rax
	shrq	$3, %rax
	cmpb	$0, 2147450880(%rax)
	jne	.L536
	movq	(%rbx), %r12
	testq	%r12, %r12
	je	.L537
.L490:
	movq	-56(%rbp), %rsi
	movq	%r12, %rdi
	call	fpeek@PLT
.LVL445:
	movl	%eax, %r12d
.LVL446:
	.loc 1 104 96 discriminator 1 view .LVU632
	testl	%eax, %eax
	jle	.L486
.LBB106:
	.loc 1 106 5 is_stmt 1 view .LVU633
	.loc 1 106 50 is_stmt 0 view .LVU634
	leaq	1(%r13), %r15
	.loc 1 106 16 view .LVU635
	testq	%rbx, %rbx
	je	.L482
	testb	$7, %bl
	jne	.L482
.LVL447:
.L483:
	.loc 1 106 16 view .LVU636
	movq	%rbx, %rax
	shrq	$3, %rax
	cmpb	$0, 2147450880(%rax)
	jne	.L538
	movq	(%rbx), %r14
	testq	%r14, %r14
	je	.L539
.L485:
	movq	%r15, %rsi
	movq	%r14, %rdi
	call	fpeek@PLT
.LVL448:
	.loc 1 107 5 is_stmt 1 view .LVU637
	.loc 1 107 17 is_stmt 0 view .LVU638
	cmpl	$42, %r12d
	sete	%dl
	.loc 1 107 32 view .LVU639
	cmpl	$47, %eax
	sete	%al
.LVL449:
	.loc 1 107 8 view .LVU640
	testb	%al, %dl
	jne	.L486
	.loc 1 109 11 view .LVU641
	movq	%r15, %r13
.LVL450:
	.loc 1 109 11 view .LVU642
	jmp	.L481
.LVL451:
.L482:
	.loc 1 106 16 view .LVU643
	movq	%rbx, %rsi
	leaq	.Lubsan_data252(%rip), %rdi
	call	__ubsan_handle_type_mismatch_v1@PLT
.LVL452:
	.loc 1 106 16 view .LVU644
	jmp	.L483
.L538:
	.loc 1 106 16 view .LVU645
	movq	%rbx, %rdi
	call	__asan_report_load8@PLT
.LVL453:
.L539:
	.loc 1 106 16 view .LVU646
	leaq	.Lubsan_data74(%rip), %rdi
	call	__ubsan_handle_nonnull_arg@PLT
.LVL454:
	jmp	.L485
.LVL455:
.L487:
	.loc 1 106 16 view .LVU647
.LBE106:
	.loc 1 104 57 discriminator 1 view .LVU648
	movq	%rbx, %rsi
	leaq	.Lubsan_data253(%rip), %rdi
	call	__ubsan_handle_type_mismatch_v1@PLT
.LVL456:
	jmp	.L488
.L536:
	.loc 1 104 57 discriminator 1 view .LVU649
	movq	%rbx, %rdi
	call	__asan_report_load8@PLT
.LVL457:
.L537:
	.loc 1 104 57 discriminator 1 view .LVU650
	leaq	.Lubsan_data75(%rip), %rdi
	call	__ubsan_handle_nonnull_arg@PLT
.LVL458:
	jmp	.L490
.LVL459:
.L486:
	.loc 1 111 3 is_stmt 1 view .LVU651
	.loc 1 111 6 is_stmt 0 view .LVU652
	cmpl	$-1, %r12d
	je	.L540
	.loc 1 113 3 is_stmt 1 view .LVU653
	.loc 1 113 40 is_stmt 0 view .LVU654
	movq	g_comp_args(%rip), %r12
.LVL460:
	.loc 1 113 72 view .LVU655
	testq	%r12, %r12
	je	.L501
	testb	$7, %r12b
	jne	.L501
.L502:
	leaq	1(%r12), %rdx
	cmpq	$-1, %r12
	jnb	.L541
.L503:
	.loc 1 113 3 view .LVU656
	testb	$1, 1(%r12)
	je	.L535
	.loc 1 113 3 discriminator 1 view .LVU657
	leaq	.LC14(%rip), %r14
.L504:
	.loc 1 113 3 discriminator 4 view .LVU658
	leaq	stdout(%rip), %rdi
	movq	%rdi, %rax
	shrq	$3, %rax
	cmpb	$0, 2147450880(%rax)
	jne	.L542
	movq	stdout(%rip), %r12
	testq	%r12, %r12
	je	.L543
.L506:
.LVL461:
.LBB107:
.LBI107:
	.loc 2 77 1 is_stmt 1 view .LVU659
.LBB108:
	.loc 2 79 3 view .LVU660
	.loc 2 79 10 is_stmt 0 view .LVU661
	subq	$8, %rsp
	pushq	%r13
	movq	%r14, %r9
	movl	$113, %r8d
	leaq	.LC0(%rip), %rcx
	leaq	.LC17(%rip), %rdx
	movl	$2, %esi
	movq	%r12, %rdi
	movl	$0, %eax
	call	__fprintf_chk@PLT
.LVL462:
	.loc 2 79 10 view .LVU662
.LBE108:
.LBE107:
	.loc 1 115 3 is_stmt 1 view .LVU663
	.loc 1 115 136 is_stmt 0 view .LVU664
	addq	$16, %rsp
	testq	%rbx, %rbx
	je	.L507
	testb	$7, %bl
	jne	.L507
.L508:
	leaq	8(%rbx), %rdx
	cmpq	$-8, %rbx
	jnb	.L544
.L509:
	leaq	8(%rbx), %rdi
	movq	%rdi, %rax
	shrq	$3, %rax
	cmpb	$0, 2147450880(%rax)
	jne	.L545
	movq	8(%rbx), %r14
	.loc 1 115 147 view .LVU665
	testq	%rbx, %rbx
	je	.L511
	testb	$7, %bl
	jne	.L511
.L512:
	movq	%rbx, %rax
	shrq	$3, %rax
	cmpb	$0, 2147450880(%rax)
	jne	.L546
	movq	(%rbx), %r12
	testq	%r12, %r12
	je	.L547
.L514:
	movq	%r12, %rdi
	call	ftell@PLT
.LVL463:
	.loc 1 115 167 discriminator 1 view .LVU666
	leaq	2(%rax), %r15
	.loc 1 115 3 discriminator 1 view .LVU667
	leaq	(%r14,%r15), %rdx
	testq	%r15, %r15
	js	.L515
	cmpq	%r14, %rdx
	jnb	.L516
.L517:
	movq	%r14, %rsi
	leaq	.Lubsan_data260(%rip), %rdi
	call	__ubsan_handle_pointer_overflow@PLT
.LVL464:
	jmp	.L516
.LVL465:
.L540:
	.loc 1 112 5 is_stmt 1 view .LVU668
.LDL1:
	.loc 1 124 17 view .LVU669
	.loc 1 124 45 is_stmt 0 view .LVU670
	movq	%rbx, %rdi
	call	lex_ctx_length_until_eol
.LVL466:
	.loc 1 125 17 is_stmt 1 view .LVU671
	.loc 1 125 38 is_stmt 0 view .LVU672
	movq	%r13, %rdx
	movl	$40, %esi
	movq	%rbx, %rdi
	call	lex_ctx_create_lexeme
.LVL467:
	movq	%rax, %r12
.LVL468:
	.loc 1 126 3 is_stmt 1 view .LVU673
	movq	g_diagnostics(%rip), %r13
.LVL469:
	.loc 1 126 3 is_stmt 0 view .LVU674
	testq	%r13, %r13
	je	.L548
.LVL470:
.L493:
	.loc 1 126 3 view .LVU675
	testq	%r12, %r12
	je	.L549
.L494:
	leaq	.LC16(%rip), %r8
	movq	%r12, %rcx
	movl	$1, %edx
	movl	$0, %esi
	movq	%r13, %rdi
	movl	$0, %eax
	call	diagn_push@PLT
.LVL471:
	.loc 1 128 3 is_stmt 1 view .LVU676
	testq	%rbx, %rbx
	je	.L495
	testb	$7, %bl
	jne	.L495
.L496:
	movq	%rbx, %rax
	shrq	$3, %rax
	cmpb	$0, 2147450880(%rax)
	jne	.L550
	movq	(%rbx), %rbx
.LVL472:
	.loc 1 128 3 is_stmt 0 view .LVU677
	testq	%rbx, %rbx
	je	.L551
.L498:
	movq	-56(%rbp), %rsi
	movq	%rbx, %rdi
	call	fconsume@PLT
.LVL473:
	.loc 1 129 3 is_stmt 1 view .LVU678
	cmpq	$0, -64(%rbp)
	je	.L552
.L499:
	movq	%r12, %rsi
	movq	-64(%rbp), %rdi
	call	array_append@PLT
.LVL474:
	jmp	.L480
.LVL475:
.L548:
	.loc 1 126 3 is_stmt 0 view .LVU679
	leaq	.Lubsan_data76(%rip), %rdi
	call	__ubsan_handle_nonnull_arg@PLT
.LVL476:
	.loc 1 126 3 view .LVU680
	jmp	.L493
.L549:
	.loc 1 126 3 view .LVU681
	leaq	.Lubsan_data77(%rip), %rdi
	call	__ubsan_handle_nonnull_arg@PLT
.LVL477:
	jmp	.L494
.L495:
	.loc 1 128 3 view .LVU682
	movq	%rbx, %rsi
	leaq	.Lubsan_data254(%rip), %rdi
	call	__ubsan_handle_type_mismatch_v1@PLT
.LVL478:
	jmp	.L496
.L550:
	.loc 1 128 3 view .LVU683
	movq	%rbx, %rdi
	call	__asan_report_load8@PLT
.LVL479:
.L551:
	.loc 1 128 3 view .LVU684
	leaq	.Lubsan_data78(%rip), %rdi
	call	__ubsan_handle_nonnull_arg@PLT
.LVL480:
	jmp	.L498
.L552:
	.loc 1 129 3 view .LVU685
	leaq	.Lubsan_data79(%rip), %rdi
	call	__ubsan_handle_nonnull_arg@PLT
.LVL481:
	jmp	.L499
.LVL482:
.L501:
	.loc 1 113 72 view .LVU686
	movq	%r12, %rsi
	leaq	.Lubsan_data255(%rip), %rdi
	call	__ubsan_handle_type_mismatch_v1@PLT
.LVL483:
	jmp	.L502
.L541:
	movq	%r12, %rsi
	leaq	.Lubsan_data256(%rip), %rdi
	call	__ubsan_handle_pointer_overflow@PLT
.LVL484:
	jmp	.L503
.L535:
	.loc 1 113 3 discriminator 2 view .LVU687
	leaq	.LC15(%rip), %r14
	jmp	.L504
.L542:
	.loc 1 113 3 discriminator 4 view .LVU688
	call	__asan_report_load8@PLT
.LVL485:
.L543:
	leaq	.Lubsan_data80(%rip), %rdi
	call	__ubsan_handle_nonnull_arg@PLT
.LVL486:
	jmp	.L506
.L507:
	.loc 1 115 136 view .LVU689
	movq	%rbx, %rsi
	leaq	.Lubsan_data257(%rip), %rdi
	call	__ubsan_handle_type_mismatch_v1@PLT
.LVL487:
	jmp	.L508
.L544:
	.loc 1 115 136 view .LVU690
	movq	%rbx, %rsi
	leaq	.Lubsan_data258(%rip), %rdi
	call	__ubsan_handle_pointer_overflow@PLT
.LVL488:
	jmp	.L509
.L545:
	.loc 1 115 136 view .LVU691
	call	__asan_report_load8@PLT
.LVL489:
.L511:
	.loc 1 115 147 view .LVU692
	movq	%rbx, %rsi
	leaq	.Lubsan_data259(%rip), %rdi
	call	__ubsan_handle_type_mismatch_v1@PLT
.LVL490:
	jmp	.L512
.L546:
	.loc 1 115 147 view .LVU693
	movq	%rbx, %rdi
	call	__asan_report_load8@PLT
.LVL491:
.L547:
	.loc 1 115 147 view .LVU694
	leaq	.Lubsan_data82(%rip), %rdi
	call	__ubsan_handle_nonnull_arg@PLT
.LVL492:
	jmp	.L514
.L515:
	.loc 1 115 3 discriminator 1 view .LVU695
	cmpq	%rdx, %r14
	jb	.L517
.L516:
	addq	%r14, %r15
	movl	%r13d, %r14d
	addl	$-2, %r14d
	jo	.L553
.L518:
	leaq	stdout(%rip), %rdi
	movq	%rdi, %rax
	shrq	$3, %rax
	cmpb	$0, 2147450880(%rax)
	jne	.L554
	movq	stdout(%rip), %r12
	testq	%r12, %r12
	je	.L555
.L521:
.LVL493:
.LBB109:
.LBI109:
	.loc 2 77 1 is_stmt 1 view .LVU696
.LBB110:
	.loc 2 79 3 view .LVU697
	.loc 2 79 10 is_stmt 0 view .LVU698
	subq	$8, %rsp
	pushq	%r15
	movl	%r14d, %r9d
	movl	$115, %r8d
	leaq	.LC0(%rip), %rcx
	leaq	.LC18(%rip), %rdx
	movl	$2, %esi
	movq	%r12, %rdi
	movl	$0, %eax
	call	__fprintf_chk@PLT
.LVL494:
	.loc 2 79 10 view .LVU699
.LBE110:
.LBE109:
	.loc 1 117 3 is_stmt 1 view .LVU700
	.loc 1 117 18 is_stmt 0 view .LVU701
	movq	g_comp_args(%rip), %r12
	.loc 1 117 7 view .LVU702
	addq	$16, %rsp
	testq	%r12, %r12
	je	.L522
	testb	$7, %r12b
	jne	.L522
.L523:
	leaq	1(%r12), %rdx
	cmpq	$-1, %r12
	jnb	.L556
.L524:
	.loc 1 117 6 view .LVU703
	testb	$1, 1(%r12)
	je	.L525
	.loc 1 118 5 is_stmt 1 view .LVU704
	.loc 1 118 28 is_stmt 0 view .LVU705
	movq	%r13, %rdx
	movl	$40, %esi
	movq	%rbx, %rdi
	call	lex_ctx_create_lexeme
.LVL495:
	movq	%rax, %r12
	.loc 1 118 5 discriminator 1 view .LVU706
	cmpq	$0, -64(%rbp)
	je	.L557
.L526:
	movq	%r12, %rsi
	movq	-64(%rbp), %rdi
	call	array_append@PLT
.LVL496:
.L527:
	.loc 1 121 3 is_stmt 1 view .LVU707
	movq	-56(%rbp), %r12
	addq	$2, %r12
	jo	.L558
.L529:
	testq	%rbx, %rbx
	je	.L531
	testb	$7, %bl
	jne	.L531
.L532:
	movq	%rbx, %rax
	shrq	$3, %rax
	cmpb	$0, 2147450880(%rax)
	jne	.L559
	movq	(%rbx), %rbx
.LVL497:
	.loc 1 121 3 is_stmt 0 view .LVU708
	testq	%rbx, %rbx
	je	.L560
.L534:
	movq	%r12, %rsi
	movq	%rbx, %rdi
	call	fconsume@PLT
.LVL498:
	.loc 1 122 3 is_stmt 1 view .LVU709
.L480:
	.loc 1 130 1 is_stmt 0 view .LVU710
	leaq	-40(%rbp), %rsp
	popq	%rbx
	popq	%r12
	popq	%r13
	popq	%r14
	popq	%r15
	popq	%rbp
	.cfi_remember_state
	.cfi_def_cfa 7, 8
.LVL499:
	.loc 1 130 1 view .LVU711
	ret
.LVL500:
.L553:
	.cfi_restore_state
	.loc 1 115 3 discriminator 1 view .LVU712
	movslq	%r13d, %rsi
	movl	$2, %edx
	leaq	.Lubsan_data264(%rip), %rdi
	call	__ubsan_handle_sub_overflow@PLT
.LVL501:
	jmp	.L518
.L554:
	call	__asan_report_load8@PLT
.LVL502:
.L555:
	leaq	.Lubsan_data83(%rip), %rdi
	call	__ubsan_handle_nonnull_arg@PLT
.LVL503:
	jmp	.L521
.L522:
	.loc 1 117 7 view .LVU713
	movq	%r12, %rsi
	leaq	.Lubsan_data261(%rip), %rdi
	call	__ubsan_handle_type_mismatch_v1@PLT
.LVL504:
	jmp	.L523
.L556:
	movq	%r12, %rsi
	leaq	.Lubsan_data262(%rip), %rdi
	call	__ubsan_handle_pointer_overflow@PLT
.LVL505:
	jmp	.L524
.L557:
	.loc 1 118 5 discriminator 1 view .LVU714
	leaq	.Lubsan_data85(%rip), %rdi
	call	__ubsan_handle_nonnull_arg@PLT
.LVL506:
	jmp	.L526
.L525:
	.loc 1 120 5 is_stmt 1 view .LVU715
	.loc 1 120 28 is_stmt 0 view .LVU716
	movl	$1, %edx
	movl	$36, %esi
	movq	%rbx, %rdi
	call	lex_ctx_create_lexeme
.LVL507:
	movq	%rax, %r12
	.loc 1 120 5 discriminator 1 view .LVU717
	cmpq	$0, -64(%rbp)
	je	.L561
.L528:
	movq	%r12, %rsi
	movq	-64(%rbp), %rdi
	call	array_append@PLT
.LVL508:
	jmp	.L527
.L561:
	leaq	.Lubsan_data86(%rip), %rdi
	call	__ubsan_handle_nonnull_arg@PLT
.LVL509:
	jmp	.L528
.L558:
	.loc 1 121 3 view .LVU718
	movl	$2, %edx
	movq	-56(%rbp), %rsi
	leaq	.Lubsan_data265(%rip), %rdi
	call	__ubsan_handle_add_overflow@PLT
.LVL510:
	jmp	.L529
.L531:
	.loc 1 121 3 view .LVU719
	movq	%rbx, %rsi
	leaq	.Lubsan_data263(%rip), %rdi
	call	__ubsan_handle_type_mismatch_v1@PLT
.LVL511:
	jmp	.L532
.L559:
	.loc 1 121 3 view .LVU720
	movq	%rbx, %rdi
	call	__asan_report_load8@PLT
.LVL512:
.L560:
	.loc 1 121 3 view .LVU721
	leaq	.Lubsan_data87(%rip), %rdi
	call	__ubsan_handle_nonnull_arg@PLT
.LVL513:
	jmp	.L534
	.cfi_endproc
.LFE58:
	.size	lex_ctx_consume_multicomment, .-lex_ctx_consume_multicomment
	.section	.rodata
	.align 32
.LC19:
	.string	"\033[1;37m%s:%u\033[0m: \033[1;34mverbose: \033[0mconsuming unary lexeme: BitwiseNegate\n"
	.zero	51
	.align 32
.LC20:
	.string	"\033[1;37m%s:%u\033[0m: \033[1;34mverbose: \033[0mconsuming unary lexeme: LeftBrace\n"
	.zero	55
	.align 32
.LC21:
	.string	"\033[1;37m%s:%u\033[0m: \033[1;34mverbose: \033[0mconsuming unary lexeme: RightBrace\n"
	.zero	54
	.align 32
.LC22:
	.string	"\033[1;37m%s:%u\033[0m: \033[1;34mverbose: \033[0mconsuming unary lexeme: LeftParen\n"
	.zero	55
	.align 32
.LC23:
	.string	"\033[1;37m%s:%u\033[0m: \033[1;34mverbose: \033[0mconsuming unary lexeme: RightParen\n"
	.zero	54
	.align 32
.LC24:
	.string	"\033[1;37m%s:%u\033[0m: \033[1;34mverbose: \033[0mconsuming unary lexeme: Semi\n"
	.zero	60
	.align 32
.LC25:
	.string	"\033[1;37m%s:%u\033[0m: \033[1;34mverbose: \033[0mconsuming unary lexeme: Dot\n"
	.zero	61
	.align 32
.LC26:
	.string	"\033[1;37m%s:%u\033[0m: \033[1;34mverbose: \033[0mconsuming binary lexeme: CONCAT (Star, Assign)\n"
	.zero	42
	.align 32
.LC27:
	.string	"\033[1;37m%s:%u\033[0m: \033[1;34mverbose: \033[0mconsuming binary lexeme: Star\n"
	.zero	59
	.align 32
.LC28:
	.string	"\033[1;37m%s:%u\033[0m: \033[1;34mverbose: \033[0mconsuming binary lexeme: CONCAT (Add, Assign)\n"
	.zero	43
	.align 32
.LC29:
	.string	"\033[1;37m%s:%u\033[0m: \033[1;34mverbose: \033[0mconsuming binary lexeme: Add\n"
	.zero	60
	.align 32
.LC30:
	.string	"\033[1;37m%s:%u\033[0m: \033[1;34mverbose: \033[0mconsuming binary lexeme: CONCAT (Minus, Assign)\n"
	.zero	41
	.align 32
.LC31:
	.string	"\033[1;37m%s:%u\033[0m: \033[1;34mverbose: \033[0mconsuming binary lexeme: Minus\n"
	.zero	58
	.align 32
.LC32:
	.string	"\033[1;37m%s:%u\033[0m: \033[1;34mverbose: \033[0mconsuming binary lexeme: CONCAT (Modulus, Assign)\n"
	.zero	39
	.align 32
.LC33:
	.string	"\033[1;37m%s:%u\033[0m: \033[1;34mverbose: \033[0mconsuming binary lexeme: Modulus\n"
	.zero	56
	.align 32
.LC34:
	.string	"\033[1;37m%s:%u\033[0m: \033[1;34mverbose: \033[0mconsuming binary lexeme: CONCAT (BitwiseXor, Assign)\n"
	.zero	36
	.align 32
.LC35:
	.string	"\033[1;37m%s:%u\033[0m: \033[1;34mverbose: \033[0mconsuming binary lexeme: BitwiseXor\n"
	.zero	53
	.align 32
.LC36:
	.string	"\033[1;37m%s:%u\033[0m: \033[1;34mverbose: \033[0mconsuming binary lexeme: CONCAT (Not, Assign)\n"
	.zero	43
	.align 32
.LC37:
	.string	"\033[1;37m%s:%u\033[0m: \033[1;34mverbose: \033[0mconsuming binary lexeme: Not\n"
	.zero	60
	.align 32
.LC38:
	.string	"\033[1;37m%s:%u\033[0m: \033[1;34mverbose: \033[0mconsuming binary lexeme: CONCAT (Assign, Assign)\n"
	.zero	40
	.align 32
.LC39:
	.string	"\033[1;37m%s:%u\033[0m: \033[1;34mverbose: \033[0mconsuming binary lexeme: Assign\n"
	.zero	57
	.align 32
.LC40:
	.string	"\033[1;37m%s:%u\033[0m: \033[1;31merror: \033[0munidentified character: '%c'\n"
	.zero	62
	.text
	.type	lex_ctx_consume_nonliteral, @function
lex_ctx_consume_nonliteral:
.LASANPC67:
.LVL514:
.LFB67:
	.loc 1 318 1 is_stmt 1 view -0
	.cfi_startproc
	.loc 1 318 1 is_stmt 0 view .LVU723
	pushq	%rbp
	.cfi_def_cfa_offset 16
	.cfi_offset 6, -16
	movq	%rsp, %rbp
	.cfi_def_cfa_register 6
	pushq	%r14
	pushq	%r13
	pushq	%r12
	pushq	%rbx
	.cfi_offset 14, -24
	.cfi_offset 13, -32
	.cfi_offset 12, -40
	.cfi_offset 3, -48
1:	call	*mcount@GOTPCREL(%rip)
	movq	%rdi, %rbx
	movq	%rsi, %r12
	.loc 1 319 3 is_stmt 1 view .LVU724
	.loc 1 319 17 is_stmt 0 view .LVU725
	testq	%rdi, %rdi
	je	.L563
	testb	$7, %dil
	jne	.L563
.LVL515:
.L564:
	.loc 1 319 17 view .LVU726
	movq	%rbx, %rax
	shrq	$3, %rax
	cmpb	$0, 2147450880(%rax)
	jne	.L659
	movq	(%rbx), %r13
	testq	%r13, %r13
	je	.L660
.L566:
	movl	$0, %esi
	movq	%r13, %rdi
	call	fpeek@PLT
.LVL516:
	movl	%eax, %r13d
.LVL517:
	.loc 1 320 14 view .LVU727
	testq	%rbx, %rbx
	je	.L567
	testb	$7, %bl
	jne	.L567
.LVL518:
.L568:
	.loc 1 320 14 view .LVU728
	movq	%rbx, %rax
	shrq	$3, %rax
	cmpb	$0, 2147450880(%rax)
	jne	.L661
	movq	(%rbx), %r14
	testq	%r14, %r14
	je	.L662
.L570:
	movl	$1, %esi
	movq	%r14, %rdi
	call	fpeek@PLT
.LVL519:
	.loc 1 321 3 is_stmt 1 view .LVU729
	.loc 1 322 3 view .LVU730
	.loc 1 324 3 view .LVU731
	leal	-33(%r13), %edx
	cmpl	$93, %edx
	ja	.L571
	movl	%edx, %edx
	leaq	.L573(%rip), %rcx
	movslq	(%rcx,%rdx,4), %rdx
	addq	%rcx, %rdx
	notrack jmp	*%rdx
	.section	.rodata
	.align 4
	.align 4
.L573:
	.long	.L589-.L573
	.long	.L571-.L573
	.long	.L571-.L573
	.long	.L571-.L573
	.long	.L588-.L573
	.long	.L587-.L573
	.long	.L571-.L573
	.long	.L586-.L573
	.long	.L585-.L573
	.long	.L584-.L573
	.long	.L583-.L573
	.long	.L571-.L573
	.long	.L582-.L573
	.long	.L581-.L573
	.long	.L580-.L573
	.long	.L571-.L573
	.long	.L571-.L573
	.long	.L571-.L573
	.long	.L571-.L573
	.long	.L571-.L573
	.long	.L571-.L573
	.long	.L571-.L573
	.long	.L571-.L573
	.long	.L571-.L573
	.long	.L571-.L573
	.long	.L571-.L573
	.long	.L579-.L573
	.long	.L571-.L573
	.long	.L578-.L573
	.long	.L571-.L573
	.long	.L571-.L573
	.long	.L571-.L573
	.long	.L571-.L573
	.long	.L571-.L573
	.long	.L571-.L573
	.long	.L571-.L573
	.long	.L571-.L573
	.long	.L571-.L573
	.long	.L571-.L573
	.long	.L571-.L573
	.long	.L571-.L573
	.long	.L571-.L573
	.long	.L571-.L573
	.long	.L571-.L573
	.long	.L571-.L573
	.long	.L571-.L573
	.long	.L571-.L573
	.long	.L571-.L573
	.long	.L571-.L573
	.long	.L571-.L573
	.long	.L571-.L573
	.long	.L571-.L573
	.long	.L571-.L573
	.long	.L571-.L573
	.long	.L571-.L573
	.long	.L571-.L573
	.long	.L571-.L573
	.long	.L571-.L573
	.long	.L571-.L573
	.long	.L571-.L573
	.long	.L571-.L573
	.long	.L577-.L573
	.long	.L571-.L573
	.long	.L571-.L573
	.long	.L571-.L573
	.long	.L571-.L573
	.long	.L571-.L573
	.long	.L571-.L573
	.long	.L571-.L573
	.long	.L571-.L573
	.long	.L571-.L573
	.long	.L571-.L573
	.long	.L571-.L573
	.long	.L571-.L573
	.long	.L571-.L573
	.long	.L571-.L573
	.long	.L571-.L573
	.long	.L571-.L573
	.long	.L571-.L573
	.long	.L571-.L573
	.long	.L571-.L573
	.long	.L571-.L573
	.long	.L571-.L573
	.long	.L571-.L573
	.long	.L571-.L573
	.long	.L571-.L573
	.long	.L571-.L573
	.long	.L571-.L573
	.long	.L571-.L573
	.long	.L571-.L573
	.long	.L576-.L573
	.long	.L575-.L573
	.long	.L574-.L573
	.long	.L572-.L573
	.text
.LVL520:
.L563:
	.loc 1 319 17 is_stmt 0 view .LVU732
	movq	%rbx, %rsi
.LVL521:
	.loc 1 319 17 view .LVU733
	leaq	.Lubsan_data266(%rip), %rdi
	call	__ubsan_handle_type_mismatch_v1@PLT
.LVL522:
	jmp	.L564
.L659:
	.loc 1 319 17 view .LVU734
	movq	%rbx, %rdi
	call	__asan_report_load8@PLT
.LVL523:
.L660:
	.loc 1 319 17 view .LVU735
	leaq	.Lubsan_data88(%rip), %rdi
	call	__ubsan_handle_nonnull_arg@PLT
.LVL524:
	jmp	.L566
.LVL525:
.L567:
	.loc 1 320 14 view .LVU736
	movq	%rbx, %rsi
	leaq	.Lubsan_data267(%rip), %rdi
	call	__ubsan_handle_type_mismatch_v1@PLT
.LVL526:
	.loc 1 320 14 view .LVU737
	jmp	.L568
.L661:
	.loc 1 320 14 view .LVU738
	movq	%rbx, %rdi
	call	__asan_report_load8@PLT
.LVL527:
.L662:
	.loc 1 320 14 view .LVU739
	leaq	.Lubsan_data89(%rip), %rdi
	call	__ubsan_handle_nonnull_arg@PLT
.LVL528:
	jmp	.L570
.LVL529:
.L572:
	.loc 1 326 17 is_stmt 1 view .LVU740
	leaq	stdout(%rip), %rdi
	movq	%rdi, %rax
.LVL530:
	.loc 1 326 17 is_stmt 0 view .LVU741
	shrq	$3, %rax
	cmpb	$0, 2147450880(%rax)
	jne	.L663
	movq	stdout(%rip), %r13
.LVL531:
	.loc 1 326 17 view .LVU742
	testq	%r13, %r13
	je	.L664
.L591:
.LVL532:
.LBB111:
.LBI111:
	.loc 2 77 1 is_stmt 1 view .LVU743
.LBB112:
	.loc 2 79 3 view .LVU744
	.loc 2 79 10 is_stmt 0 view .LVU745
	movl	$326, %r8d
	leaq	.LC0(%rip), %rcx
	leaq	.LC19(%rip), %rdx
	movl	$2, %esi
	movq	%r13, %rdi
	movl	$0, %eax
	call	__fprintf_chk@PLT
.LVL533:
	.loc 2 79 10 view .LVU746
.LBE112:
.LBE111:
	.loc 1 326 127 is_stmt 1 discriminator 1 view .LVU747
	.loc 1 326 153 discriminator 1 view .LVU748
	.loc 1 322 12 is_stmt 0 view .LVU749
	movl	$1, %r13d
	.loc 1 326 136 discriminator 1 view .LVU750
	movl	$34, %esi
.LVL534:
.L592:
	.loc 1 391 5 is_stmt 1 view .LVU751
	.loc 1 391 30 is_stmt 0 view .LVU752
	movq	%r13, %rdx
	movq	%rbx, %rdi
	call	lex_ctx_create_lexeme
.LVL535:
	.loc 1 391 30 view .LVU753
	movq	%rax, %r14
	.loc 1 391 5 discriminator 1 view .LVU754
	testq	%r12, %r12
	je	.L665
.L648:
	movq	%r14, %rsi
	movq	%r12, %rdi
	call	array_append@PLT
.LVL536:
	.loc 1 391 87 is_stmt 1 discriminator 2 view .LVU755
	testq	%rbx, %rbx
	je	.L649
	testb	$7, %bl
	jne	.L649
.L650:
	movq	%rbx, %rax
	shrq	$3, %rax
	cmpb	$0, 2147450880(%rax)
	jne	.L666
	movq	(%rbx), %rbx
.LVL537:
	.loc 1 391 87 is_stmt 0 discriminator 2 view .LVU756
	testq	%rbx, %rbx
	je	.L667
.L652:
	movq	%r13, %rsi
	movq	%rbx, %rdi
	call	fconsume@PLT
.LVL538:
	.loc 1 391 130 is_stmt 1 discriminator 1 view .LVU757
.L562:
	.loc 1 392 1 is_stmt 0 view .LVU758
	popq	%rbx
	popq	%r12
	popq	%r13
	popq	%r14
	popq	%rbp
	.cfi_remember_state
	.cfi_def_cfa 7, 8
	ret
.LVL539:
.L663:
	.cfi_restore_state
	.loc 1 326 17 view .LVU759
	call	__asan_report_load8@PLT
.LVL540:
.L664:
	.loc 1 326 17 view .LVU760
	leaq	.Lubsan_data90(%rip), %rdi
	call	__ubsan_handle_nonnull_arg@PLT
.LVL541:
	jmp	.L591
.LVL542:
.L576:
	.loc 1 326 159 is_stmt 1 view .LVU761
	.loc 1 327 17 view .LVU762
	leaq	stdout(%rip), %rdi
	movq	%rdi, %rax
.LVL543:
	.loc 1 327 17 is_stmt 0 view .LVU763
	shrq	$3, %rax
	cmpb	$0, 2147450880(%rax)
	jne	.L668
	movq	stdout(%rip), %r13
.LVL544:
	.loc 1 327 17 view .LVU764
	testq	%r13, %r13
	je	.L669
.L594:
.LVL545:
.LBB113:
.LBI113:
	.loc 2 77 1 is_stmt 1 view .LVU765
.LBB114:
	.loc 2 79 3 view .LVU766
	.loc 2 79 10 is_stmt 0 view .LVU767
	movl	$327, %r8d
	leaq	.LC0(%rip), %rcx
	leaq	.LC20(%rip), %rdx
	movl	$2, %esi
	movq	%r13, %rdi
	movl	$0, %eax
	call	__fprintf_chk@PLT
.LVL546:
	.loc 2 79 10 view .LVU768
.LBE114:
.LBE113:
	.loc 1 327 123 is_stmt 1 discriminator 1 view .LVU769
	.loc 1 327 145 discriminator 1 view .LVU770
	.loc 1 322 12 is_stmt 0 view .LVU771
	movl	$1, %r13d
	.loc 1 327 132 discriminator 1 view .LVU772
	movl	$7, %esi
	.loc 1 327 145 view .LVU773
	jmp	.L592
.LVL547:
.L668:
	.loc 1 327 17 view .LVU774
	call	__asan_report_load8@PLT
.LVL548:
.L669:
	.loc 1 327 17 view .LVU775
	leaq	.Lubsan_data92(%rip), %rdi
	call	__ubsan_handle_nonnull_arg@PLT
.LVL549:
	jmp	.L594
.LVL550:
.L574:
	.loc 1 327 151 is_stmt 1 view .LVU776
	.loc 1 328 17 view .LVU777
	leaq	stdout(%rip), %rdi
	movq	%rdi, %rax
.LVL551:
	.loc 1 328 17 is_stmt 0 view .LVU778
	shrq	$3, %rax
	cmpb	$0, 2147450880(%rax)
	jne	.L670
	movq	stdout(%rip), %r13
.LVL552:
	.loc 1 328 17 view .LVU779
	testq	%r13, %r13
	je	.L671
.L596:
.LVL553:
.LBB115:
.LBI115:
	.loc 2 77 1 is_stmt 1 view .LVU780
.LBB116:
	.loc 2 79 3 view .LVU781
	.loc 2 79 10 is_stmt 0 view .LVU782
	movl	$328, %r8d
	leaq	.LC0(%rip), %rcx
	leaq	.LC21(%rip), %rdx
	movl	$2, %esi
	movq	%r13, %rdi
	movl	$0, %eax
	call	__fprintf_chk@PLT
.LVL554:
	.loc 2 79 10 view .LVU783
.LBE116:
.LBE115:
	.loc 1 328 124 is_stmt 1 discriminator 1 view .LVU784
	.loc 1 328 147 discriminator 1 view .LVU785
	.loc 1 322 12 is_stmt 0 view .LVU786
	movl	$1, %r13d
	.loc 1 328 133 discriminator 1 view .LVU787
	movl	$8, %esi
	.loc 1 328 147 view .LVU788
	jmp	.L592
.LVL555:
.L670:
	.loc 1 328 17 view .LVU789
	call	__asan_report_load8@PLT
.LVL556:
.L671:
	.loc 1 328 17 view .LVU790
	leaq	.Lubsan_data94(%rip), %rdi
	call	__ubsan_handle_nonnull_arg@PLT
.LVL557:
	jmp	.L596
.LVL558:
.L586:
	.loc 1 328 153 is_stmt 1 view .LVU791
	.loc 1 329 17 view .LVU792
	leaq	stdout(%rip), %rdi
	movq	%rdi, %rax
.LVL559:
	.loc 1 329 17 is_stmt 0 view .LVU793
	shrq	$3, %rax
	cmpb	$0, 2147450880(%rax)
	jne	.L672
	movq	stdout(%rip), %r13
.LVL560:
	.loc 1 329 17 view .LVU794
	testq	%r13, %r13
	je	.L673
.L598:
.LVL561:
.LBB117:
.LBI117:
	.loc 2 77 1 is_stmt 1 view .LVU795
.LBB118:
	.loc 2 79 3 view .LVU796
	.loc 2 79 10 is_stmt 0 view .LVU797
	movl	$329, %r8d
	leaq	.LC0(%rip), %rcx
	leaq	.LC22(%rip), %rdx
	movl	$2, %esi
	movq	%r13, %rdi
	movl	$0, %eax
	call	__fprintf_chk@PLT
.LVL562:
	.loc 2 79 10 view .LVU798
.LBE118:
.LBE117:
	.loc 1 329 123 is_stmt 1 discriminator 1 view .LVU799
	.loc 1 329 145 discriminator 1 view .LVU800
	.loc 1 322 12 is_stmt 0 view .LVU801
	movl	$1, %r13d
	.loc 1 329 132 discriminator 1 view .LVU802
	movl	$5, %esi
	.loc 1 329 145 view .LVU803
	jmp	.L592
.LVL563:
.L672:
	.loc 1 329 17 view .LVU804
	call	__asan_report_load8@PLT
.LVL564:
.L673:
	.loc 1 329 17 view .LVU805
	leaq	.Lubsan_data96(%rip), %rdi
	call	__ubsan_handle_nonnull_arg@PLT
.LVL565:
	jmp	.L598
.LVL566:
.L585:
	.loc 1 329 151 is_stmt 1 view .LVU806
	.loc 1 330 17 view .LVU807
	leaq	stdout(%rip), %rdi
	movq	%rdi, %rax
.LVL567:
	.loc 1 330 17 is_stmt 0 view .LVU808
	shrq	$3, %rax
	cmpb	$0, 2147450880(%rax)
	jne	.L674
	movq	stdout(%rip), %r13
.LVL568:
	.loc 1 330 17 view .LVU809
	testq	%r13, %r13
	je	.L675
.L600:
.LVL569:
.LBB119:
.LBI119:
	.loc 2 77 1 is_stmt 1 view .LVU810
.LBB120:
	.loc 2 79 3 view .LVU811
	.loc 2 79 10 is_stmt 0 view .LVU812
	movl	$330, %r8d
	leaq	.LC0(%rip), %rcx
	leaq	.LC23(%rip), %rdx
	movl	$2, %esi
	movq	%r13, %rdi
	movl	$0, %eax
	call	__fprintf_chk@PLT
.LVL570:
	.loc 2 79 10 view .LVU813
.LBE120:
.LBE119:
	.loc 1 330 124 is_stmt 1 discriminator 1 view .LVU814
	.loc 1 330 147 discriminator 1 view .LVU815
	.loc 1 322 12 is_stmt 0 view .LVU816
	movl	$1, %r13d
	.loc 1 330 133 discriminator 1 view .LVU817
	movl	$6, %esi
	.loc 1 330 147 view .LVU818
	jmp	.L592
.LVL571:
.L674:
	.loc 1 330 17 view .LVU819
	call	__asan_report_load8@PLT
.LVL572:
.L675:
	.loc 1 330 17 view .LVU820
	leaq	.Lubsan_data98(%rip), %rdi
	call	__ubsan_handle_nonnull_arg@PLT
.LVL573:
	jmp	.L600
.LVL574:
.L579:
	.loc 1 330 153 is_stmt 1 view .LVU821
	.loc 1 331 17 view .LVU822
	leaq	stdout(%rip), %rdi
	movq	%rdi, %rax
.LVL575:
	.loc 1 331 17 is_stmt 0 view .LVU823
	shrq	$3, %rax
	cmpb	$0, 2147450880(%rax)
	jne	.L676
	movq	stdout(%rip), %r13
.LVL576:
	.loc 1 331 17 view .LVU824
	testq	%r13, %r13
	je	.L677
.L602:
.LVL577:
.LBB121:
.LBI121:
	.loc 2 77 1 is_stmt 1 view .LVU825
.LBB122:
	.loc 2 79 3 view .LVU826
	.loc 2 79 10 is_stmt 0 view .LVU827
	movl	$331, %r8d
	leaq	.LC0(%rip), %rcx
	leaq	.LC24(%rip), %rdx
	movl	$2, %esi
	movq	%r13, %rdi
	movl	$0, %eax
	call	__fprintf_chk@PLT
.LVL578:
	.loc 2 79 10 view .LVU828
.LBE122:
.LBE121:
	.loc 1 331 118 is_stmt 1 discriminator 1 view .LVU829
	.loc 1 331 135 discriminator 1 view .LVU830
	.loc 1 322 12 is_stmt 0 view .LVU831
	movl	$1, %r13d
	.loc 1 331 127 discriminator 1 view .LVU832
	movl	$37, %esi
	.loc 1 331 135 view .LVU833
	jmp	.L592
.LVL579:
.L676:
	.loc 1 331 17 view .LVU834
	call	__asan_report_load8@PLT
.LVL580:
.L677:
	.loc 1 331 17 view .LVU835
	leaq	.Lubsan_data100(%rip), %rdi
	call	__ubsan_handle_nonnull_arg@PLT
.LVL581:
	jmp	.L602
.LVL582:
.L581:
	.loc 1 331 141 is_stmt 1 view .LVU836
	.loc 1 332 17 view .LVU837
	leaq	stdout(%rip), %rdi
	movq	%rdi, %rax
.LVL583:
	.loc 1 332 17 is_stmt 0 view .LVU838
	shrq	$3, %rax
	cmpb	$0, 2147450880(%rax)
	jne	.L678
	movq	stdout(%rip), %r13
.LVL584:
	.loc 1 332 17 view .LVU839
	testq	%r13, %r13
	je	.L679
.L604:
.LVL585:
.LBB123:
.LBI123:
	.loc 2 77 1 is_stmt 1 view .LVU840
.LBB124:
	.loc 2 79 3 view .LVU841
	.loc 2 79 10 is_stmt 0 view .LVU842
	movl	$332, %r8d
	leaq	.LC0(%rip), %rcx
	leaq	.LC25(%rip), %rdx
	movl	$2, %esi
	movq	%r13, %rdi
	movl	$0, %eax
	call	__fprintf_chk@PLT
.LVL586:
	.loc 2 79 10 view .LVU843
.LBE124:
.LBE123:
	.loc 1 332 117 is_stmt 1 discriminator 1 view .LVU844
	.loc 1 332 133 discriminator 1 view .LVU845
	.loc 1 322 12 is_stmt 0 view .LVU846
	movl	$1, %r13d
	.loc 1 332 126 discriminator 1 view .LVU847
	movl	$9, %esi
	.loc 1 332 133 view .LVU848
	jmp	.L592
.LVL587:
.L678:
	.loc 1 332 17 view .LVU849
	call	__asan_report_load8@PLT
.LVL588:
.L679:
	.loc 1 332 17 view .LVU850
	leaq	.Lubsan_data102(%rip), %rdi
	call	__ubsan_handle_nonnull_arg@PLT
.LVL589:
	jmp	.L604
.LVL590:
.L584:
	.loc 1 332 139 is_stmt 1 view .LVU851
	.loc 1 334 17 view .LVU852
	.loc 1 334 34 view .LVU853
	.loc 1 334 37 is_stmt 0 view .LVU854
	cmpl	$61, %eax
	je	.L680
	.loc 1 334 178 is_stmt 1 discriminator 2 view .LVU855
	leaq	stdout(%rip), %rdi
	movq	%rdi, %rax
.LVL591:
	.loc 1 334 178 is_stmt 0 discriminator 2 view .LVU856
	shrq	$3, %rax
	cmpb	$0, 2147450880(%rax)
	jne	.L681
	movq	stdout(%rip), %r13
.LVL592:
	.loc 1 334 178 discriminator 2 view .LVU857
	testq	%r13, %r13
	je	.L682
.L609:
.LVL593:
.LBB125:
.LBI125:
	.loc 2 77 1 is_stmt 1 view .LVU858
.LBB126:
	.loc 2 79 3 view .LVU859
	.loc 2 79 10 is_stmt 0 view .LVU860
	movl	$334, %r8d
	leaq	.LC0(%rip), %rcx
	leaq	.LC27(%rip), %rdx
	movl	$2, %esi
	movq	%r13, %rdi
	movl	$0, %eax
	call	__fprintf_chk@PLT
.LVL594:
	.loc 2 79 10 view .LVU861
.LBE126:
.LBE125:
	.loc 1 322 12 view .LVU862
	movl	$1, %r13d
	.loc 1 334 26 view .LVU863
	movl	$13, %esi
.LBB128:
.LBB127:
	.loc 2 79 10 view .LVU864
	jmp	.L592
.LVL595:
.L680:
	.loc 2 79 10 view .LVU865
.LBE127:
.LBE128:
	.loc 1 334 53 is_stmt 1 discriminator 1 view .LVU866
	leaq	stdout(%rip), %rdi
	movq	%rdi, %rax
.LVL596:
	.loc 1 334 53 is_stmt 0 discriminator 1 view .LVU867
	shrq	$3, %rax
	cmpb	$0, 2147450880(%rax)
	jne	.L683
	movq	stdout(%rip), %r13
.LVL597:
	.loc 1 334 53 discriminator 1 view .LVU868
	testq	%r13, %r13
	je	.L684
.L607:
.LVL598:
.LBB129:
.LBI129:
	.loc 2 77 1 is_stmt 1 view .LVU869
.LBB130:
	.loc 2 79 3 view .LVU870
	.loc 2 79 10 is_stmt 0 view .LVU871
	movl	$334, %r8d
	leaq	.LC0(%rip), %rcx
	leaq	.LC26(%rip), %rdx
	movl	$2, %esi
	movq	%r13, %rdi
	movl	$0, %eax
	call	__fprintf_chk@PLT
.LVL599:
	.loc 2 79 10 view .LVU872
.LBE130:
.LBE129:
	.loc 1 334 136 is_stmt 1 discriminator 1 view .LVU873
	.loc 1 334 159 discriminator 1 view .LVU874
	.loc 1 334 165 is_stmt 0 discriminator 1 view .LVU875
	movl	$2, %r13d
	.loc 1 334 145 discriminator 1 view .LVU876
	movl	$18, %esi
	jmp	.L592
.LVL600:
.L683:
	.loc 1 334 53 discriminator 1 view .LVU877
	call	__asan_report_load8@PLT
.LVL601:
.L684:
	.loc 1 334 53 discriminator 1 view .LVU878
	leaq	.Lubsan_data104(%rip), %rdi
	call	__ubsan_handle_nonnull_arg@PLT
.LVL602:
	jmp	.L607
.LVL603:
.L681:
	.loc 1 334 178 discriminator 2 view .LVU879
	call	__asan_report_load8@PLT
.LVL604:
.L682:
	.loc 1 334 178 discriminator 2 view .LVU880
	leaq	.Lubsan_data106(%rip), %rdi
	call	__ubsan_handle_nonnull_arg@PLT
.LVL605:
	jmp	.L609
.LVL606:
.L583:
	.loc 1 334 127 is_stmt 1 view .LVU881
	.loc 1 335 17 view .LVU882
	.loc 1 335 33 view .LVU883
	.loc 1 335 36 is_stmt 0 view .LVU884
	cmpl	$61, %eax
	je	.L685
	.loc 1 335 176 is_stmt 1 discriminator 2 view .LVU885
	leaq	stdout(%rip), %rdi
	movq	%rdi, %rax
.LVL607:
	.loc 1 335 176 is_stmt 0 discriminator 2 view .LVU886
	shrq	$3, %rax
	cmpb	$0, 2147450880(%rax)
	jne	.L686
	movq	stdout(%rip), %r13
.LVL608:
	.loc 1 335 176 discriminator 2 view .LVU887
	testq	%r13, %r13
	je	.L687
.L614:
.LVL609:
.LBB131:
.LBI131:
	.loc 2 77 1 is_stmt 1 view .LVU888
.LBB132:
	.loc 2 79 3 view .LVU889
	.loc 2 79 10 is_stmt 0 view .LVU890
	movl	$335, %r8d
	leaq	.LC0(%rip), %rcx
	leaq	.LC29(%rip), %rdx
	movl	$2, %esi
	movq	%r13, %rdi
	movl	$0, %eax
	call	__fprintf_chk@PLT
.LVL610:
	.loc 2 79 10 view .LVU891
.LBE132:
.LBE131:
	.loc 1 322 12 view .LVU892
	movl	$1, %r13d
	.loc 1 335 26 view .LVU893
	movl	$10, %esi
.LBB134:
.LBB133:
	.loc 2 79 10 view .LVU894
	jmp	.L592
.LVL611:
.L685:
	.loc 2 79 10 view .LVU895
.LBE133:
.LBE134:
	.loc 1 335 52 is_stmt 1 discriminator 1 view .LVU896
	leaq	stdout(%rip), %rdi
	movq	%rdi, %rax
.LVL612:
	.loc 1 335 52 is_stmt 0 discriminator 1 view .LVU897
	shrq	$3, %rax
	cmpb	$0, 2147450880(%rax)
	jne	.L688
	movq	stdout(%rip), %r13
.LVL613:
	.loc 1 335 52 discriminator 1 view .LVU898
	testq	%r13, %r13
	je	.L689
.L612:
.LVL614:
.LBB135:
.LBI135:
	.loc 2 77 1 is_stmt 1 view .LVU899
.LBB136:
	.loc 2 79 3 view .LVU900
	.loc 2 79 10 is_stmt 0 view .LVU901
	movl	$335, %r8d
	leaq	.LC0(%rip), %rcx
	leaq	.LC28(%rip), %rdx
	movl	$2, %esi
	movq	%r13, %rdi
	movl	$0, %eax
	call	__fprintf_chk@PLT
.LVL615:
	.loc 2 79 10 view .LVU902
.LBE136:
.LBE135:
	.loc 1 335 135 is_stmt 1 discriminator 1 view .LVU903
	.loc 1 335 157 discriminator 1 view .LVU904
	.loc 1 335 163 is_stmt 0 discriminator 1 view .LVU905
	movl	$2, %r13d
	.loc 1 335 144 discriminator 1 view .LVU906
	movl	$15, %esi
	jmp	.L592
.LVL616:
.L688:
	.loc 1 335 52 discriminator 1 view .LVU907
	call	__asan_report_load8@PLT
.LVL617:
.L689:
	.loc 1 335 52 discriminator 1 view .LVU908
	leaq	.Lubsan_data108(%rip), %rdi
	call	__ubsan_handle_nonnull_arg@PLT
.LVL618:
	jmp	.L612
.LVL619:
.L686:
	.loc 1 335 176 discriminator 2 view .LVU909
	call	__asan_report_load8@PLT
.LVL620:
.L687:
	.loc 1 335 176 discriminator 2 view .LVU910
	leaq	.Lubsan_data110(%rip), %rdi
	call	__ubsan_handle_nonnull_arg@PLT
.LVL621:
	jmp	.L614
.LVL622:
.L582:
	.loc 1 335 126 is_stmt 1 view .LVU911
	.loc 1 336 17 view .LVU912
	.loc 1 336 35 view .LVU913
	.loc 1 336 38 is_stmt 0 view .LVU914
	cmpl	$61, %eax
	je	.L690
	.loc 1 336 180 is_stmt 1 discriminator 2 view .LVU915
	leaq	stdout(%rip), %rdi
	movq	%rdi, %rax
.LVL623:
	.loc 1 336 180 is_stmt 0 discriminator 2 view .LVU916
	shrq	$3, %rax
	cmpb	$0, 2147450880(%rax)
	jne	.L691
	movq	stdout(%rip), %r13
.LVL624:
	.loc 1 336 180 discriminator 2 view .LVU917
	testq	%r13, %r13
	je	.L692
.L619:
.LVL625:
.LBB137:
.LBI137:
	.loc 2 77 1 is_stmt 1 view .LVU918
.LBB138:
	.loc 2 79 3 view .LVU919
	.loc 2 79 10 is_stmt 0 view .LVU920
	movl	$336, %r8d
	leaq	.LC0(%rip), %rcx
	leaq	.LC31(%rip), %rdx
	movl	$2, %esi
	movq	%r13, %rdi
	movl	$0, %eax
	call	__fprintf_chk@PLT
.LVL626:
	.loc 2 79 10 view .LVU921
.LBE138:
.LBE137:
	.loc 1 322 12 view .LVU922
	movl	$1, %r13d
	.loc 1 336 26 view .LVU923
	movl	$11, %esi
.LBB140:
.LBB139:
	.loc 2 79 10 view .LVU924
	jmp	.L592
.LVL627:
.L690:
	.loc 2 79 10 view .LVU925
.LBE139:
.LBE140:
	.loc 1 336 54 is_stmt 1 discriminator 1 view .LVU926
	leaq	stdout(%rip), %rdi
	movq	%rdi, %rax
.LVL628:
	.loc 1 336 54 is_stmt 0 discriminator 1 view .LVU927
	shrq	$3, %rax
	cmpb	$0, 2147450880(%rax)
	jne	.L693
	movq	stdout(%rip), %r13
.LVL629:
	.loc 1 336 54 discriminator 1 view .LVU928
	testq	%r13, %r13
	je	.L694
.L617:
.LVL630:
.LBB141:
.LBI141:
	.loc 2 77 1 is_stmt 1 view .LVU929
.LBB142:
	.loc 2 79 3 view .LVU930
	.loc 2 79 10 is_stmt 0 view .LVU931
	movl	$336, %r8d
	leaq	.LC0(%rip), %rcx
	leaq	.LC30(%rip), %rdx
	movl	$2, %esi
	movq	%r13, %rdi
	movl	$0, %eax
	call	__fprintf_chk@PLT
.LVL631:
	.loc 2 79 10 view .LVU932
.LBE142:
.LBE141:
	.loc 1 336 137 is_stmt 1 discriminator 1 view .LVU933
	.loc 1 336 161 discriminator 1 view .LVU934
	.loc 1 336 167 is_stmt 0 discriminator 1 view .LVU935
	movl	$2, %r13d
	.loc 1 336 146 discriminator 1 view .LVU936
	movl	$16, %esi
	jmp	.L592
.LVL632:
.L693:
	.loc 1 336 54 discriminator 1 view .LVU937
	call	__asan_report_load8@PLT
.LVL633:
.L694:
	.loc 1 336 54 discriminator 1 view .LVU938
	leaq	.Lubsan_data112(%rip), %rdi
	call	__ubsan_handle_nonnull_arg@PLT
.LVL634:
	jmp	.L617
.LVL635:
.L691:
	.loc 1 336 180 discriminator 2 view .LVU939
	call	__asan_report_load8@PLT
.LVL636:
.L692:
	.loc 1 336 180 discriminator 2 view .LVU940
	leaq	.Lubsan_data114(%rip), %rdi
	call	__ubsan_handle_nonnull_arg@PLT
.LVL637:
	jmp	.L619
.LVL638:
.L588:
	.loc 1 336 128 is_stmt 1 view .LVU941
	.loc 1 337 17 view .LVU942
	.loc 1 337 37 view .LVU943
	.loc 1 337 40 is_stmt 0 view .LVU944
	cmpl	$61, %eax
	je	.L695
	.loc 1 337 184 is_stmt 1 discriminator 2 view .LVU945
	leaq	stdout(%rip), %rdi
	movq	%rdi, %rax
.LVL639:
	.loc 1 337 184 is_stmt 0 discriminator 2 view .LVU946
	shrq	$3, %rax
	cmpb	$0, 2147450880(%rax)
	jne	.L696
	movq	stdout(%rip), %r13
.LVL640:
	.loc 1 337 184 discriminator 2 view .LVU947
	testq	%r13, %r13
	je	.L697
.L624:
.LVL641:
.LBB143:
.LBI143:
	.loc 2 77 1 is_stmt 1 view .LVU948
.LBB144:
	.loc 2 79 3 view .LVU949
	.loc 2 79 10 is_stmt 0 view .LVU950
	movl	$337, %r8d
	leaq	.LC0(%rip), %rcx
	leaq	.LC33(%rip), %rdx
	movl	$2, %esi
	movq	%r13, %rdi
	movl	$0, %eax
	call	__fprintf_chk@PLT
.LVL642:
	.loc 2 79 10 view .LVU951
.LBE144:
.LBE143:
	.loc 1 322 12 view .LVU952
	movl	$1, %r13d
	.loc 1 337 26 view .LVU953
	movl	$14, %esi
.LBB146:
.LBB145:
	.loc 2 79 10 view .LVU954
	jmp	.L592
.LVL643:
.L695:
	.loc 2 79 10 view .LVU955
.LBE145:
.LBE146:
	.loc 1 337 56 is_stmt 1 discriminator 1 view .LVU956
	leaq	stdout(%rip), %rdi
	movq	%rdi, %rax
.LVL644:
	.loc 1 337 56 is_stmt 0 discriminator 1 view .LVU957
	shrq	$3, %rax
	cmpb	$0, 2147450880(%rax)
	jne	.L698
	movq	stdout(%rip), %r13
.LVL645:
	.loc 1 337 56 discriminator 1 view .LVU958
	testq	%r13, %r13
	je	.L699
.L622:
.LVL646:
.LBB147:
.LBI147:
	.loc 2 77 1 is_stmt 1 view .LVU959
.LBB148:
	.loc 2 79 3 view .LVU960
	.loc 2 79 10 is_stmt 0 view .LVU961
	movl	$337, %r8d
	leaq	.LC0(%rip), %rcx
	leaq	.LC32(%rip), %rdx
	movl	$2, %esi
	movq	%r13, %rdi
	movl	$0, %eax
	call	__fprintf_chk@PLT
.LVL647:
	.loc 2 79 10 view .LVU962
.LBE148:
.LBE147:
	.loc 1 337 139 is_stmt 1 discriminator 1 view .LVU963
	.loc 1 337 165 discriminator 1 view .LVU964
	.loc 1 337 171 is_stmt 0 discriminator 1 view .LVU965
	movl	$2, %r13d
	.loc 1 337 148 discriminator 1 view .LVU966
	movl	$19, %esi
	jmp	.L592
.LVL648:
.L698:
	.loc 1 337 56 discriminator 1 view .LVU967
	call	__asan_report_load8@PLT
.LVL649:
.L699:
	.loc 1 337 56 discriminator 1 view .LVU968
	leaq	.Lubsan_data116(%rip), %rdi
	call	__ubsan_handle_nonnull_arg@PLT
.LVL650:
	jmp	.L622
.LVL651:
.L696:
	.loc 1 337 184 discriminator 2 view .LVU969
	call	__asan_report_load8@PLT
.LVL652:
.L697:
	.loc 1 337 184 discriminator 2 view .LVU970
	leaq	.Lubsan_data118(%rip), %rdi
	call	__ubsan_handle_nonnull_arg@PLT
.LVL653:
	jmp	.L624
.LVL654:
.L577:
	.loc 1 337 130 is_stmt 1 view .LVU971
	.loc 1 338 17 view .LVU972
	.loc 1 338 40 view .LVU973
	.loc 1 338 43 is_stmt 0 view .LVU974
	cmpl	$61, %eax
	je	.L700
	.loc 1 338 190 is_stmt 1 discriminator 2 view .LVU975
	leaq	stdout(%rip), %rdi
	movq	%rdi, %rax
.LVL655:
	.loc 1 338 190 is_stmt 0 discriminator 2 view .LVU976
	shrq	$3, %rax
	cmpb	$0, 2147450880(%rax)
	jne	.L701
	movq	stdout(%rip), %r13
.LVL656:
	.loc 1 338 190 discriminator 2 view .LVU977
	testq	%r13, %r13
	je	.L702
.L629:
.LVL657:
.LBB149:
.LBI149:
	.loc 2 77 1 is_stmt 1 view .LVU978
.LBB150:
	.loc 2 79 3 view .LVU979
	.loc 2 79 10 is_stmt 0 view .LVU980
	movl	$338, %r8d
	leaq	.LC0(%rip), %rcx
	leaq	.LC35(%rip), %rdx
	movl	$2, %esi
	movq	%r13, %rdi
	movl	$0, %eax
	call	__fprintf_chk@PLT
.LVL658:
	.loc 2 79 10 view .LVU981
.LBE150:
.LBE149:
	.loc 1 322 12 view .LVU982
	movl	$1, %r13d
	.loc 1 338 26 view .LVU983
	movl	$30, %esi
.LBB152:
.LBB151:
	.loc 2 79 10 view .LVU984
	jmp	.L592
.LVL659:
.L700:
	.loc 2 79 10 view .LVU985
.LBE151:
.LBE152:
	.loc 1 338 59 is_stmt 1 discriminator 1 view .LVU986
	leaq	stdout(%rip), %rdi
	movq	%rdi, %rax
.LVL660:
	.loc 1 338 59 is_stmt 0 discriminator 1 view .LVU987
	shrq	$3, %rax
	cmpb	$0, 2147450880(%rax)
	jne	.L703
	movq	stdout(%rip), %r13
.LVL661:
	.loc 1 338 59 discriminator 1 view .LVU988
	testq	%r13, %r13
	je	.L704
.L627:
.LVL662:
.LBB153:
.LBI153:
	.loc 2 77 1 is_stmt 1 view .LVU989
.LBB154:
	.loc 2 79 3 view .LVU990
	.loc 2 79 10 is_stmt 0 view .LVU991
	movl	$338, %r8d
	leaq	.LC0(%rip), %rcx
	leaq	.LC34(%rip), %rdx
	movl	$2, %esi
	movq	%r13, %rdi
	movl	$0, %eax
	call	__fprintf_chk@PLT
.LVL663:
	.loc 2 79 10 view .LVU992
.LBE154:
.LBE153:
	.loc 1 338 142 is_stmt 1 discriminator 1 view .LVU993
	.loc 1 338 171 discriminator 1 view .LVU994
	.loc 1 338 177 is_stmt 0 discriminator 1 view .LVU995
	movl	$2, %r13d
	.loc 1 338 151 discriminator 1 view .LVU996
	movl	$33, %esi
	jmp	.L592
.LVL664:
.L703:
	.loc 1 338 59 discriminator 1 view .LVU997
	call	__asan_report_load8@PLT
.LVL665:
.L704:
	.loc 1 338 59 discriminator 1 view .LVU998
	leaq	.Lubsan_data120(%rip), %rdi
	call	__ubsan_handle_nonnull_arg@PLT
.LVL666:
	jmp	.L627
.LVL667:
.L701:
	.loc 1 338 190 discriminator 2 view .LVU999
	call	__asan_report_load8@PLT
.LVL668:
.L702:
	.loc 1 338 190 discriminator 2 view .LVU1000
	leaq	.Lubsan_data122(%rip), %rdi
	call	__ubsan_handle_nonnull_arg@PLT
.LVL669:
	jmp	.L629
.LVL670:
.L589:
	.loc 1 338 133 is_stmt 1 view .LVU1001
	.loc 1 339 17 view .LVU1002
	.loc 1 339 33 view .LVU1003
	.loc 1 339 36 is_stmt 0 view .LVU1004
	cmpl	$61, %eax
	je	.L705
	.loc 1 339 176 is_stmt 1 discriminator 2 view .LVU1005
	leaq	stdout(%rip), %rdi
	movq	%rdi, %rax
.LVL671:
	.loc 1 339 176 is_stmt 0 discriminator 2 view .LVU1006
	shrq	$3, %rax
	cmpb	$0, 2147450880(%rax)
	jne	.L706
	movq	stdout(%rip), %r13
.LVL672:
	.loc 1 339 176 discriminator 2 view .LVU1007
	testq	%r13, %r13
	je	.L707
.L634:
.LVL673:
.LBB155:
.LBI155:
	.loc 2 77 1 is_stmt 1 view .LVU1008
.LBB156:
	.loc 2 79 3 view .LVU1009
	.loc 2 79 10 is_stmt 0 view .LVU1010
	movl	$339, %r8d
	leaq	.LC0(%rip), %rcx
	leaq	.LC37(%rip), %rdx
	movl	$2, %esi
	movq	%r13, %rdi
	movl	$0, %eax
	call	__fprintf_chk@PLT
.LVL674:
	.loc 2 79 10 view .LVU1011
.LBE156:
.LBE155:
	.loc 1 322 12 view .LVU1012
	movl	$1, %r13d
	.loc 1 339 26 view .LVU1013
	movl	$26, %esi
.LBB158:
.LBB157:
	.loc 2 79 10 view .LVU1014
	jmp	.L592
.LVL675:
.L705:
	.loc 2 79 10 view .LVU1015
.LBE157:
.LBE158:
	.loc 1 339 52 is_stmt 1 discriminator 1 view .LVU1016
	leaq	stdout(%rip), %rdi
	movq	%rdi, %rax
.LVL676:
	.loc 1 339 52 is_stmt 0 discriminator 1 view .LVU1017
	shrq	$3, %rax
	cmpb	$0, 2147450880(%rax)
	jne	.L708
	movq	stdout(%rip), %r13
.LVL677:
	.loc 1 339 52 discriminator 1 view .LVU1018
	testq	%r13, %r13
	je	.L709
.L632:
.LVL678:
.LBB159:
.LBI159:
	.loc 2 77 1 is_stmt 1 view .LVU1019
.LBB160:
	.loc 2 79 3 view .LVU1020
	.loc 2 79 10 is_stmt 0 view .LVU1021
	movl	$339, %r8d
	leaq	.LC0(%rip), %rcx
	leaq	.LC36(%rip), %rdx
	movl	$2, %esi
	movq	%r13, %rdi
	movl	$0, %eax
	call	__fprintf_chk@PLT
.LVL679:
	.loc 2 79 10 view .LVU1022
.LBE160:
.LBE159:
	.loc 1 339 135 is_stmt 1 discriminator 1 view .LVU1023
	.loc 1 339 157 discriminator 1 view .LVU1024
	.loc 1 339 163 is_stmt 0 discriminator 1 view .LVU1025
	movl	$2, %r13d
	.loc 1 339 144 discriminator 1 view .LVU1026
	movl	$27, %esi
	jmp	.L592
.LVL680:
.L708:
	.loc 1 339 52 discriminator 1 view .LVU1027
	call	__asan_report_load8@PLT
.LVL681:
.L709:
	.loc 1 339 52 discriminator 1 view .LVU1028
	leaq	.Lubsan_data124(%rip), %rdi
	call	__ubsan_handle_nonnull_arg@PLT
.LVL682:
	jmp	.L632
.LVL683:
.L706:
	.loc 1 339 176 discriminator 2 view .LVU1029
	call	__asan_report_load8@PLT
.LVL684:
.L707:
	.loc 1 339 176 discriminator 2 view .LVU1030
	leaq	.Lubsan_data126(%rip), %rdi
	call	__ubsan_handle_nonnull_arg@PLT
.LVL685:
	jmp	.L634
.LVL686:
.L578:
	.loc 1 339 126 is_stmt 1 view .LVU1031
	.loc 1 340 17 view .LVU1032
	.loc 1 340 36 view .LVU1033
	.loc 1 340 39 is_stmt 0 view .LVU1034
	cmpl	$61, %eax
	je	.L710
	.loc 1 340 182 is_stmt 1 discriminator 2 view .LVU1035
	leaq	stdout(%rip), %rdi
	movq	%rdi, %rax
.LVL687:
	.loc 1 340 182 is_stmt 0 discriminator 2 view .LVU1036
	shrq	$3, %rax
	cmpb	$0, 2147450880(%rax)
	jne	.L711
	movq	stdout(%rip), %r13
.LVL688:
	.loc 1 340 182 discriminator 2 view .LVU1037
	testq	%r13, %r13
	je	.L712
.L639:
.LVL689:
.LBB161:
.LBI161:
	.loc 2 77 1 is_stmt 1 view .LVU1038
.LBB162:
	.loc 2 79 3 view .LVU1039
	.loc 2 79 10 is_stmt 0 view .LVU1040
	movl	$340, %r8d
	leaq	.LC0(%rip), %rcx
	leaq	.LC39(%rip), %rdx
	movl	$2, %esi
	movq	%r13, %rdi
	movl	$0, %eax
	call	__fprintf_chk@PLT
.LVL690:
	.loc 2 79 10 view .LVU1041
.LBE162:
.LBE161:
	.loc 1 322 12 view .LVU1042
	movl	$1, %r13d
	.loc 1 340 26 view .LVU1043
	movl	$24, %esi
.LBB164:
.LBB163:
	.loc 2 79 10 view .LVU1044
	jmp	.L592
.LVL691:
.L710:
	.loc 2 79 10 view .LVU1045
.LBE163:
.LBE164:
	.loc 1 340 55 is_stmt 1 discriminator 1 view .LVU1046
	leaq	stdout(%rip), %rdi
	movq	%rdi, %rax
.LVL692:
	.loc 1 340 55 is_stmt 0 discriminator 1 view .LVU1047
	shrq	$3, %rax
	cmpb	$0, 2147450880(%rax)
	jne	.L713
	movq	stdout(%rip), %r13
.LVL693:
	.loc 1 340 55 discriminator 1 view .LVU1048
	testq	%r13, %r13
	je	.L714
.L637:
.LVL694:
.LBB165:
.LBI165:
	.loc 2 77 1 is_stmt 1 view .LVU1049
.LBB166:
	.loc 2 79 3 view .LVU1050
	.loc 2 79 10 is_stmt 0 view .LVU1051
	movl	$340, %r8d
	leaq	.LC0(%rip), %rcx
	leaq	.LC38(%rip), %rdx
	movl	$2, %esi
	movq	%r13, %rdi
	movl	$0, %eax
	call	__fprintf_chk@PLT
.LVL695:
	.loc 2 79 10 view .LVU1052
.LBE166:
.LBE165:
	.loc 1 340 138 is_stmt 1 discriminator 1 view .LVU1053
	.loc 1 340 163 discriminator 1 view .LVU1054
	.loc 1 340 169 is_stmt 0 discriminator 1 view .LVU1055
	movl	$2, %r13d
	.loc 1 340 147 discriminator 1 view .LVU1056
	movl	$25, %esi
	jmp	.L592
.LVL696:
.L713:
	.loc 1 340 55 discriminator 1 view .LVU1057
	call	__asan_report_load8@PLT
.LVL697:
.L714:
	.loc 1 340 55 discriminator 1 view .LVU1058
	leaq	.Lubsan_data128(%rip), %rdi
	call	__ubsan_handle_nonnull_arg@PLT
.LVL698:
	jmp	.L637
.LVL699:
.L711:
	.loc 1 340 182 discriminator 2 view .LVU1059
	call	__asan_report_load8@PLT
.LVL700:
.L712:
	.loc 1 340 182 discriminator 2 view .LVU1060
	leaq	.Lubsan_data130(%rip), %rdi
	call	__ubsan_handle_nonnull_arg@PLT
.LVL701:
	jmp	.L639
.LVL702:
.L580:
	.loc 1 340 129 is_stmt 1 view .LVU1061
	.loc 1 343 7 view .LVU1062
	.loc 1 344 7 view .LVU1063
	.loc 1 344 10 is_stmt 0 view .LVU1064
	cmpl	$61, %eax
	je	.L653
	.loc 1 349 12 is_stmt 1 view .LVU1065
	.loc 1 349 15 is_stmt 0 view .LVU1066
	cmpl	$42, %eax
	je	.L715
	.loc 1 354 12 is_stmt 1 view .LVU1067
	.loc 1 354 15 is_stmt 0 view .LVU1068
	cmpl	$47, %eax
	je	.L716
	.loc 1 322 12 view .LVU1069
	movl	$1, %r13d
.LVL703:
	.loc 1 343 16 view .LVU1070
	movl	$12, %esi
	jmp	.L592
.LVL704:
.L715:
	.loc 1 351 11 is_stmt 1 view .LVU1071
	movq	%r12, %rsi
	movq	%rbx, %rdi
	call	lex_ctx_consume_multicomment
.LVL705:
	.loc 1 352 11 view .LVU1072
	jmp	.L562
.LVL706:
.L716:
	.loc 1 356 11 view .LVU1073
	movq	%r12, %rsi
	movq	%rbx, %rdi
	call	lex_ctx_consume_comment
.LVL707:
	.loc 1 357 11 view .LVU1074
	jmp	.L562
.LVL708:
.L575:
	.loc 1 361 7 view .LVU1075
	.loc 1 362 7 view .LVU1076
	.loc 1 362 10 is_stmt 0 view .LVU1077
	cmpl	$124, %eax
	je	.L655
	.loc 1 367 12 is_stmt 1 view .LVU1078
	.loc 1 367 15 is_stmt 0 view .LVU1079
	cmpl	$61, %eax
	je	.L656
	.loc 1 322 12 view .LVU1080
	movl	$1, %r13d
.LVL709:
	.loc 1 361 16 view .LVU1081
	movl	$28, %esi
	jmp	.L592
.LVL710:
.L587:
	.loc 1 374 7 is_stmt 1 view .LVU1082
	.loc 1 375 7 view .LVU1083
	.loc 1 375 10 is_stmt 0 view .LVU1084
	cmpl	$38, %eax
	je	.L657
	.loc 1 380 12 is_stmt 1 view .LVU1085
	.loc 1 380 15 is_stmt 0 view .LVU1086
	cmpl	$61, %eax
	je	.L658
	.loc 1 322 12 view .LVU1087
	movl	$1, %r13d
.LVL711:
	.loc 1 374 16 view .LVU1088
	movl	$29, %esi
	jmp	.L592
.LVL712:
.L571:
	.loc 1 387 7 is_stmt 1 view .LVU1089
	leaq	stderr(%rip), %rdi
	movq	%rdi, %rax
.LVL713:
	.loc 1 387 7 is_stmt 0 view .LVU1090
	shrq	$3, %rax
	cmpb	$0, 2147450880(%rax)
	jne	.L717
	movq	stderr(%rip), %r12
.LVL714:
	.loc 1 387 7 view .LVU1091
	testq	%r12, %r12
	je	.L718
.L643:
.LVL715:
.LBB167:
.LBI167:
	.loc 2 77 1 is_stmt 1 view .LVU1092
.LBB168:
	.loc 2 79 3 view .LVU1093
	.loc 2 79 10 is_stmt 0 view .LVU1094
	movl	%r13d, %r9d
	movl	$387, %r8d
	leaq	.LC0(%rip), %rcx
	leaq	.LC40(%rip), %rdx
	movl	$2, %esi
	movq	%r12, %rdi
	movl	$0, %eax
	call	__fprintf_chk@PLT
.LVL716:
	.loc 2 79 10 view .LVU1095
.LBE168:
.LBE167:
	.loc 1 388 7 is_stmt 1 view .LVU1096
	testq	%rbx, %rbx
	je	.L644
	testb	$7, %bl
	jne	.L644
.L645:
	movq	%rbx, %rax
	shrq	$3, %rax
	cmpb	$0, 2147450880(%rax)
	jne	.L719
	movq	(%rbx), %rbx
.LVL717:
	.loc 1 388 7 is_stmt 0 view .LVU1097
	testq	%rbx, %rbx
	je	.L720
.L647:
	movl	$1, %esi
	movq	%rbx, %rdi
	call	fconsume@PLT
.LVL718:
	.loc 1 389 7 is_stmt 1 view .LVU1098
	jmp	.L562
.LVL719:
.L717:
	.loc 1 387 7 is_stmt 0 view .LVU1099
	call	__asan_report_load8@PLT
.LVL720:
.L718:
	.loc 1 387 7 view .LVU1100
	leaq	.Lubsan_data132(%rip), %rdi
	call	__ubsan_handle_nonnull_arg@PLT
.LVL721:
	jmp	.L643
.L644:
	.loc 1 388 7 view .LVU1101
	movq	%rbx, %rsi
	leaq	.Lubsan_data268(%rip), %rdi
	call	__ubsan_handle_type_mismatch_v1@PLT
.LVL722:
	jmp	.L645
.L719:
	.loc 1 388 7 view .LVU1102
	movq	%rbx, %rdi
	call	__asan_report_load8@PLT
.LVL723:
.L720:
	.loc 1 388 7 view .LVU1103
	leaq	.Lubsan_data134(%rip), %rdi
	call	__ubsan_handle_nonnull_arg@PLT
.LVL724:
	jmp	.L647
.LVL725:
.L653:
	.loc 1 347 17 view .LVU1104
	movl	$2, %r13d
.LVL726:
	.loc 1 346 20 view .LVU1105
	movl	$17, %esi
	jmp	.L592
.LVL727:
.L655:
	.loc 1 365 17 view .LVU1106
	movl	$2, %r13d
.LVL728:
	.loc 1 364 20 view .LVU1107
	movl	$22, %esi
	jmp	.L592
.LVL729:
.L656:
	.loc 1 370 17 view .LVU1108
	movl	$2, %r13d
.LVL730:
	.loc 1 369 20 view .LVU1109
	movl	$31, %esi
	jmp	.L592
.LVL731:
.L657:
	.loc 1 378 17 view .LVU1110
	movl	$2, %r13d
.LVL732:
	.loc 1 377 20 view .LVU1111
	movl	$23, %esi
	jmp	.L592
.LVL733:
.L658:
	.loc 1 383 17 view .LVU1112
	movl	$2, %r13d
.LVL734:
	.loc 1 382 20 view .LVU1113
	movl	$32, %esi
	jmp	.L592
.LVL735:
.L665:
	.loc 1 391 5 discriminator 1 view .LVU1114
	leaq	.Lubsan_data135(%rip), %rdi
	call	__ubsan_handle_nonnull_arg@PLT
.LVL736:
	jmp	.L648
.L649:
	.loc 1 391 87 discriminator 2 view .LVU1115
	movq	%rbx, %rsi
	leaq	.Lubsan_data269(%rip), %rdi
	call	__ubsan_handle_type_mismatch_v1@PLT
.LVL737:
	jmp	.L650
.L666:
	.loc 1 391 87 discriminator 2 view .LVU1116
	movq	%rbx, %rdi
	call	__asan_report_load8@PLT
.LVL738:
.L667:
	.loc 1 391 87 discriminator 2 view .LVU1117
	leaq	.Lubsan_data136(%rip), %rdi
	call	__ubsan_handle_nonnull_arg@PLT
.LVL739:
	jmp	.L652
	.cfi_endproc
.LFE67:
	.size	lex_ctx_consume_nonliteral, .-lex_ctx_consume_nonliteral
	.section	.rodata
	.align 32
.LC41:
	.string	"\033[1;37m%s:%u\033[0m: \033[1;34mverbose: \033[0mconsuming \"identifier\": \"%.*s\"\n"
	.zero	58
	.text
	.type	lex_ctx_consume_identifier, @function
lex_ctx_consume_identifier:
.LASANPC62:
.LVL740:
.LFB62:
	.loc 1 188 1 is_stmt 1 view -0
	.cfi_startproc
	.loc 1 188 1 is_stmt 0 view .LVU1119
	pushq	%rbp
	.cfi_def_cfa_offset 16
	.cfi_offset 6, -16
	movq	%rsp, %rbp
	.cfi_def_cfa_register 6
	pushq	%r15
	pushq	%r14
	pushq	%r13
	pushq	%r12
	pushq	%rbx
	subq	$24, %rsp
	.cfi_offset 15, -24
	.cfi_offset 14, -32
	.cfi_offset 13, -40
	.cfi_offset 12, -48
	.cfi_offset 3, -56
1:	call	*mcount@GOTPCREL(%rip)
	movq	%rdi, %rbx
	movq	%rsi, -56(%rbp)
	.loc 1 189 3 is_stmt 1 view .LVU1120
.LVL741:
	.loc 1 189 24 view .LVU1121
	.loc 1 189 37 discriminator 1 view .LVU1122
	.loc 1 189 12 is_stmt 0 view .LVU1123
	movl	$0, %r12d
	.loc 1 189 43 view .LVU1124
	jmp	.L722
.LVL742:
.L749:
	.loc 1 193 5 is_stmt 1 view .LVU1125
	.loc 1 193 11 is_stmt 0 view .LVU1126
	addq	$1, %r12
.LVL743:
.L722:
	.loc 1 189 96 is_stmt 1 discriminator 1 view .LVU1127
	.loc 1 189 57 is_stmt 0 discriminator 1 view .LVU1128
	movq	%r12, %r13
	testq	%rbx, %rbx
	je	.L724
	testb	$7, %bl
	jne	.L724
.L725:
	movq	%rbx, %rax
	shrq	$3, %rax
	cmpb	$0, 2147450880(%rax)
	jne	.L747
	movq	(%rbx), %r14
	testq	%r14, %r14
	je	.L748
.L727:
	movq	%r13, %rsi
	movq	%r14, %rdi
	call	fpeek@PLT
.LVL744:
	movl	%eax, %edi
.LVL745:
	.loc 1 189 96 discriminator 1 view .LVU1129
	testl	%eax, %eax
	jle	.L723
	.loc 1 191 5 is_stmt 1 view .LVU1130
	.loc 1 191 10 is_stmt 0 view .LVU1131
	call	isident@PLT
.LVL746:
	.loc 1 191 8 discriminator 1 view .LVU1132
	testl	%eax, %eax
	jne	.L749
.L723:
	.loc 1 195 3 is_stmt 1 view .LVU1133
	.loc 1 195 151 is_stmt 0 view .LVU1134
	testq	%rbx, %rbx
	je	.L729
	testb	$7, %bl
	jne	.L729
.L730:
	leaq	8(%rbx), %rdx
	cmpq	$-8, %rbx
	jnb	.L750
.L731:
	leaq	8(%rbx), %rdi
	movq	%rdi, %rax
	shrq	$3, %rax
	cmpb	$0, 2147450880(%rax)
	jne	.L751
	movq	8(%rbx), %r15
	.loc 1 195 162 view .LVU1135
	testq	%rbx, %rbx
	je	.L733
	testb	$7, %bl
	jne	.L733
.L734:
	movq	%rbx, %rax
	shrq	$3, %rax
	cmpb	$0, 2147450880(%rax)
	jne	.L752
	movq	(%rbx), %r14
	testq	%r14, %r14
	je	.L753
.L736:
	movq	%r14, %rdi
	call	ftell@PLT
.LVL747:
	movq	%rax, %r14
	.loc 1 195 3 discriminator 1 view .LVU1136
	leaq	(%r15,%rax), %rdx
	testq	%rax, %rax
	js	.L737
	cmpq	%r15, %rdx
	jnb	.L738
.L739:
	movq	%r15, %rsi
	leaq	.Lubsan_data274(%rip), %rdi
	call	__ubsan_handle_pointer_overflow@PLT
.LVL748:
	jmp	.L738
.LVL749:
.L724:
	.loc 1 189 57 discriminator 1 view .LVU1137
	movq	%rbx, %rsi
	leaq	.Lubsan_data270(%rip), %rdi
	call	__ubsan_handle_type_mismatch_v1@PLT
.LVL750:
	jmp	.L725
.L747:
	.loc 1 189 57 discriminator 1 view .LVU1138
	movq	%rbx, %rdi
	call	__asan_report_load8@PLT
.LVL751:
.L748:
	.loc 1 189 57 discriminator 1 view .LVU1139
	leaq	.Lubsan_data137(%rip), %rdi
	call	__ubsan_handle_nonnull_arg@PLT
.LVL752:
	jmp	.L727
.LVL753:
.L729:
	.loc 1 195 151 view .LVU1140
	movq	%rbx, %rsi
	leaq	.Lubsan_data271(%rip), %rdi
	call	__ubsan_handle_type_mismatch_v1@PLT
.LVL754:
	jmp	.L730
.L750:
	.loc 1 195 151 view .LVU1141
	movq	%rbx, %rsi
	leaq	.Lubsan_data272(%rip), %rdi
	call	__ubsan_handle_pointer_overflow@PLT
.LVL755:
	jmp	.L731
.L751:
	.loc 1 195 151 view .LVU1142
	call	__asan_report_load8@PLT
.LVL756:
.L733:
	.loc 1 195 162 view .LVU1143
	movq	%rbx, %rsi
	leaq	.Lubsan_data273(%rip), %rdi
	call	__ubsan_handle_type_mismatch_v1@PLT
.LVL757:
	jmp	.L734
.L752:
	.loc 1 195 162 view .LVU1144
	movq	%rbx, %rdi
	call	__asan_report_load8@PLT
.LVL758:
.L753:
	.loc 1 195 162 view .LVU1145
	leaq	.Lubsan_data138(%rip), %rdi
	call	__ubsan_handle_nonnull_arg@PLT
.LVL759:
	jmp	.L736
.L737:
	.loc 1 195 3 discriminator 1 view .LVU1146
	cmpq	%rdx, %r15
	jb	.L739
.L738:
	addq	%r15, %r14
	movl	%r12d, -60(%rbp)
	leaq	stdout(%rip), %rdi
	movq	%rdi, %rax
	shrq	$3, %rax
	cmpb	$0, 2147450880(%rax)
	jne	.L754
	movq	stdout(%rip), %r15
	testq	%r15, %r15
	je	.L755
.L741:
.LVL760:
.LBB169:
.LBI169:
	.loc 2 77 1 is_stmt 1 view .LVU1147
.LBB170:
	.loc 2 79 3 view .LVU1148
	.loc 2 79 10 is_stmt 0 view .LVU1149
	subq	$8, %rsp
	pushq	%r14
	movl	-60(%rbp), %r9d
	movl	$195, %r8d
	leaq	.LC0(%rip), %rcx
	leaq	.LC41(%rip), %rdx
	movl	$2, %esi
	movq	%r15, %rdi
	movl	$0, %eax
	call	__fprintf_chk@PLT
.LVL761:
	.loc 2 79 10 view .LVU1150
.LBE170:
.LBE169:
	.loc 1 195 191 is_stmt 1 discriminator 2 view .LVU1151
	.loc 1 196 5 view .LVU1152
	.loc 1 196 30 is_stmt 0 view .LVU1153
	movq	%r12, %rdx
	movl	$4, %esi
	movq	%rbx, %rdi
	call	lex_ctx_create_lexeme
.LVL762:
	movq	%rax, %r12
.LVL763:
	.loc 1 196 5 discriminator 1 view .LVU1154
	addq	$16, %rsp
	cmpq	$0, -56(%rbp)
	je	.L756
.L742:
	movq	%r12, %rsi
	movq	-56(%rbp), %rdi
	call	array_append@PLT
.LVL764:
	.loc 1 196 89 is_stmt 1 discriminator 2 view .LVU1155
	testq	%rbx, %rbx
	je	.L743
	testb	$7, %bl
	jne	.L743
.L744:
	movq	%rbx, %rax
	shrq	$3, %rax
	cmpb	$0, 2147450880(%rax)
	jne	.L757
	movq	(%rbx), %rbx
.LVL765:
	.loc 1 196 89 is_stmt 0 discriminator 2 view .LVU1156
	testq	%rbx, %rbx
	je	.L758
.L746:
	movq	%r13, %rsi
	movq	%rbx, %rdi
	call	fconsume@PLT
.LVL766:
	.loc 1 196 132 is_stmt 1 discriminator 3 view .LVU1157
	.loc 1 197 1 is_stmt 0 view .LVU1158
	leaq	-40(%rbp), %rsp
	popq	%rbx
	popq	%r12
	popq	%r13
.LVL767:
	.loc 1 197 1 view .LVU1159
	popq	%r14
	popq	%r15
	popq	%rbp
	.cfi_remember_state
	.cfi_def_cfa 7, 8
.LVL768:
	.loc 1 197 1 view .LVU1160
	ret
.LVL769:
.L754:
	.cfi_restore_state
	.loc 1 195 3 discriminator 1 view .LVU1161
	call	__asan_report_load8@PLT
.LVL770:
.L755:
	leaq	.Lubsan_data139(%rip), %rdi
	call	__ubsan_handle_nonnull_arg@PLT
.LVL771:
	jmp	.L741
.LVL772:
.L756:
	.loc 1 196 5 discriminator 1 view .LVU1162
	leaq	.Lubsan_data141(%rip), %rdi
	call	__ubsan_handle_nonnull_arg@PLT
.LVL773:
	jmp	.L742
.L743:
	.loc 1 196 89 discriminator 2 view .LVU1163
	movq	%rbx, %rsi
	leaq	.Lubsan_data275(%rip), %rdi
	call	__ubsan_handle_type_mismatch_v1@PLT
.LVL774:
	jmp	.L744
.L757:
	.loc 1 196 89 discriminator 2 view .LVU1164
	movq	%rbx, %rdi
	call	__asan_report_load8@PLT
.LVL775:
.L758:
	.loc 1 196 89 discriminator 2 view .LVU1165
	leaq	.Lubsan_data142(%rip), %rdi
	call	__ubsan_handle_nonnull_arg@PLT
.LVL776:
	jmp	.L746
	.cfi_endproc
.LFE62:
	.size	lex_ctx_consume_identifier, .-lex_ctx_consume_identifier
	.section	.rodata
	.align 32
.LC42:
	.string	"\033[1;37m%s:%u\033[0m: \033[1;36mminutiae: \033[0mconsumed end of file\n"
	.zero	35
	.align 32
.LC43:
	.string	"\033[1;37m%s:%u\033[0m: \033[1;36mminutiae: \033[0mconsumed end of line\n"
	.zero	35
	.align 32
.LC44:
	.string	"\033[1;37m%s:%u\033[0m: \033[0;34mlog: \033[0mLexed %zu lexemes from \"%s\"\n"
	.zero	33
	.text
	.type	lex_ctx_process_impl, @function
lex_ctx_process_impl:
.LASANPC68:
.LVL777:
.LFB68:
	.loc 1 397 1 is_stmt 1 view -0
	.cfi_startproc
	.loc 1 397 1 is_stmt 0 view .LVU1167
	pushq	%rbp
	.cfi_def_cfa_offset 16
	.cfi_offset 6, -16
	movq	%rsp, %rbp
	.cfi_def_cfa_register 6
	pushq	%r15
	pushq	%r14
	pushq	%r13
	pushq	%r12
	pushq	%rbx
	subq	$24, %rsp
	.cfi_offset 15, -24
	.cfi_offset 14, -32
	.cfi_offset 13, -40
	.cfi_offset 12, -48
	.cfi_offset 3, -56
1:	call	*mcount@GOTPCREL(%rip)
	movq	%rdi, -56(%rbp)
	movq	%rsi, %rbx
	.loc 1 398 17 is_stmt 1 view .LVU1168
	.loc 1 398 39 is_stmt 0 view .LVU1169
	call	array_new@PLT
.LVL778:
	.loc 1 398 39 view .LVU1170
	movq	%rax, %r14
.LVL779:
	.loc 1 399 3 is_stmt 1 view .LVU1171
	.loc 1 399 19 is_stmt 0 view .LVU1172
	testq	%rbx, %rbx
	je	.L760
	testb	$7, %bl
	jne	.L760
.LVL780:
.L761:
	.loc 1 399 19 view .LVU1173
	leaq	16(%rbx), %rdx
	cmpq	$-16, %rbx
	jnb	.L830
.L762:
	leaq	16(%rbx), %rdi
	movq	%rdi, %rax
	shrq	$3, %rax
	cmpb	$0, 2147450880(%rax)
	jne	.L831
	movq	16(%rbx), %rdx
	leaq	8(%rbx), %rdi
	movq	%rdi, %rax
	shrq	$3, %rax
	cmpb	$0, 2147450880(%rax)
	jne	.L832
	movq	8(%rbx), %rsi
	movq	g_comp_args(%rip), %rdi
	call	diagn_new@PLT
.LVL781:
	.loc 1 399 17 discriminator 1 view .LVU1174
	movq	%rax, g_diagnostics(%rip)
	.loc 1 400 2 is_stmt 1 view .LVU1175
.LVL782:
	.loc 1 401 3 view .LVU1176
	.loc 1 400 7 is_stmt 0 view .LVU1177
	movl	$0, %r15d
	.loc 1 401 9 view .LVU1178
	jmp	.L765
.LVL783:
.L760:
	.loc 1 399 19 view .LVU1179
	movq	%rbx, %rsi
	leaq	.Lubsan_data276(%rip), %rdi
	call	__ubsan_handle_type_mismatch_v1@PLT
.LVL784:
	.loc 1 399 19 view .LVU1180
	jmp	.L761
.L830:
	.loc 1 399 19 view .LVU1181
	movq	%rbx, %rsi
	leaq	.Lubsan_data277(%rip), %rdi
	call	__ubsan_handle_pointer_overflow@PLT
.LVL785:
	jmp	.L762
.L831:
	.loc 1 399 19 view .LVU1182
	call	__asan_report_load8@PLT
.LVL786:
.L832:
	call	__asan_report_load8@PLT
.LVL787:
.L766:
.LBB171:
	.loc 1 403 51 view .LVU1183
	movq	%rbx, %rsi
	leaq	.Lubsan_data278(%rip), %rdi
	call	__ubsan_handle_type_mismatch_v1@PLT
.LVL788:
	jmp	.L767
.L838:
	.loc 1 403 51 view .LVU1184
	movq	%rbx, %rdi
	call	__asan_report_load8@PLT
.LVL789:
.L839:
	.loc 1 403 51 view .LVU1185
	leaq	.Lubsan_data143(%rip), %rdi
	call	__ubsan_handle_nonnull_arg@PLT
.LVL790:
	jmp	.L769
.LVL791:
.L770:
	.loc 1 404 48 view .LVU1186
	movq	%rbx, %rsi
	leaq	.Lubsan_data279(%rip), %rdi
	call	__ubsan_handle_type_mismatch_v1@PLT
.LVL792:
	jmp	.L771
.L840:
	.loc 1 404 48 view .LVU1187
	movq	%rbx, %rdi
	call	__asan_report_load8@PLT
.LVL793:
.L841:
	.loc 1 404 48 view .LVU1188
	leaq	.Lubsan_data144(%rip), %rdi
	call	__ubsan_handle_nonnull_arg@PLT
.LVL794:
	jmp	.L773
.LVL795:
.L774:
	.loc 1 409 11 is_stmt 1 view .LVU1189
	leaq	stdout(%rip), %rdi
	movq	%rdi, %rax
.LVL796:
	.loc 1 409 11 is_stmt 0 view .LVU1190
	shrq	$3, %rax
	cmpb	$0, 2147450880(%rax)
	jne	.L833
	movq	stdout(%rip), %r12
.LVL797:
	.loc 1 409 11 view .LVU1191
	testq	%r12, %r12
	je	.L834
.L783:
.LVL798:
.LBB172:
.LBI172:
	.loc 2 77 1 is_stmt 1 view .LVU1192
.LBB173:
	.loc 2 79 3 view .LVU1193
	.loc 2 79 10 is_stmt 0 view .LVU1194
	movl	$409, %r8d
	leaq	.LC0(%rip), %rcx
	leaq	.LC42(%rip), %rdx
	movl	$2, %esi
	movq	%r12, %rdi
	movl	$0, %eax
	call	__fprintf_chk@PLT
.LVL799:
	.loc 2 79 10 view .LVU1195
.LBE173:
.LBE172:
	.loc 1 410 11 is_stmt 1 view .LVU1196
	.loc 1 410 34 is_stmt 0 view .LVU1197
	movl	$0, %edx
	movl	$38, %esi
	movq	%rbx, %rdi
	call	lex_ctx_create_lexeme
.LVL800:
	movq	%rax, %r12
	.loc 1 410 11 discriminator 1 view .LVU1198
	testq	%r14, %r14
	je	.L835
.L784:
	movq	%r12, %rsi
	movq	%r14, %rdi
	call	array_append@PLT
.LVL801:
	.loc 1 411 11 is_stmt 1 view .LVU1199
	.loc 1 412 11 view .LVU1200
	.loc 1 411 23 is_stmt 0 view .LVU1201
	movl	$1, %r15d
.LVL802:
.L765:
	.loc 1 411 23 view .LVU1202
.LBE171:
	.loc 1 401 30 is_stmt 1 view .LVU1203
	.loc 1 401 11 is_stmt 0 view .LVU1204
	testq	%rbx, %rbx
	je	.L809
	testb	$7, %bl
	jne	.L809
.L810:
	movq	%rbx, %rax
	shrq	$3, %rax
	cmpb	$0, 2147450880(%rax)
	jne	.L836
	movq	(%rbx), %r12
	testq	%r12, %r12
	je	.L837
.L812:
	movq	%r12, %rdi
	call	feof@PLT
.LVL803:
	.loc 1 401 30 discriminator 1 view .LVU1205
	testl	%eax, %eax
	jne	.L813
	testb	%r15b, %r15b
	jne	.L813
.LBB176:
	.loc 1 403 21 is_stmt 1 view .LVU1206
	.loc 1 403 51 is_stmt 0 view .LVU1207
	testq	%rbx, %rbx
	je	.L766
	testb	$7, %bl
	jne	.L766
.L767:
	movq	%rbx, %rax
	shrq	$3, %rax
	cmpb	$0, 2147450880(%rax)
	jne	.L838
	movq	(%rbx), %r12
	testq	%r12, %r12
	je	.L839
.L769:
	movl	$0, %esi
	movq	%r12, %rdi
	call	fpeek@PLT
.LVL804:
	movl	%eax, %r12d
.LVL805:
	.loc 1 404 21 is_stmt 1 view .LVU1208
	.loc 1 404 48 is_stmt 0 view .LVU1209
	testq	%rbx, %rbx
	je	.L770
	testb	$7, %bl
	jne	.L770
.L771:
	movq	%rbx, %rax
	shrq	$3, %rax
	cmpb	$0, 2147450880(%rax)
	jne	.L840
	movq	(%rbx), %r13
	testq	%r13, %r13
	je	.L841
.L773:
	movl	$1, %esi
	movq	%r13, %rdi
	call	fpeek@PLT
.LVL806:
	.loc 1 406 7 is_stmt 1 view .LVU1210
	cmpb	$-1, %r12b
	je	.L774
	jl	.L775
	cmpb	$57, %r12b
	jg	.L775
	cmpb	$10, %r12b
	jl	.L775
	leal	-10(%r12), %edx
	cmpb	$47, %dl
	ja	.L775
	movzbl	%dl, %edx
	leaq	.L777(%rip), %rcx
	movslq	(%rcx,%rdx,4), %rdx
	addq	%rcx, %rdx
	notrack jmp	*%rdx
	.section	.rodata
	.align 4
	.align 4
.L777:
	.long	.L781-.L777
	.long	.L775-.L777
	.long	.L775-.L777
	.long	.L775-.L777
	.long	.L775-.L777
	.long	.L775-.L777
	.long	.L775-.L777
	.long	.L775-.L777
	.long	.L775-.L777
	.long	.L775-.L777
	.long	.L775-.L777
	.long	.L775-.L777
	.long	.L775-.L777
	.long	.L775-.L777
	.long	.L775-.L777
	.long	.L775-.L777
	.long	.L775-.L777
	.long	.L775-.L777
	.long	.L775-.L777
	.long	.L775-.L777
	.long	.L775-.L777
	.long	.L775-.L777
	.long	.L775-.L777
	.long	.L775-.L777
	.long	.L780-.L777
	.long	.L775-.L777
	.long	.L775-.L777
	.long	.L775-.L777
	.long	.L775-.L777
	.long	.L779-.L777
	.long	.L775-.L777
	.long	.L775-.L777
	.long	.L775-.L777
	.long	.L775-.L777
	.long	.L775-.L777
	.long	.L775-.L777
	.long	.L775-.L777
	.long	.L775-.L777
	.long	.L778-.L777
	.long	.L776-.L777
	.long	.L776-.L777
	.long	.L776-.L777
	.long	.L776-.L777
	.long	.L776-.L777
	.long	.L776-.L777
	.long	.L776-.L777
	.long	.L776-.L777
	.long	.L776-.L777
	.text
.LVL807:
.L833:
	.loc 1 409 11 is_stmt 0 view .LVU1211
	call	__asan_report_load8@PLT
.LVL808:
.L834:
	.loc 1 409 11 view .LVU1212
	leaq	.Lubsan_data145(%rip), %rdi
	call	__ubsan_handle_nonnull_arg@PLT
.LVL809:
	jmp	.L783
.L835:
	.loc 1 410 11 discriminator 1 view .LVU1213
	leaq	.Lubsan_data147(%rip), %rdi
	call	__ubsan_handle_nonnull_arg@PLT
.LVL810:
	jmp	.L784
.LVL811:
.L781:
	.loc 1 414 11 is_stmt 1 view .LVU1214
	leaq	stdout(%rip), %rdi
	movq	%rdi, %rax
.LVL812:
	.loc 1 414 11 is_stmt 0 view .LVU1215
	shrq	$3, %rax
	cmpb	$0, 2147450880(%rax)
	jne	.L842
	movq	stdout(%rip), %r12
.LVL813:
	.loc 1 414 11 view .LVU1216
	testq	%r12, %r12
	je	.L843
.L787:
.LVL814:
.LBB174:
.LBI174:
	.loc 2 77 1 is_stmt 1 view .LVU1217
.LBB175:
	.loc 2 79 3 view .LVU1218
	.loc 2 79 10 is_stmt 0 view .LVU1219
	movl	$414, %r8d
	leaq	.LC0(%rip), %rcx
	leaq	.LC43(%rip), %rdx
	movl	$2, %esi
	movq	%r12, %rdi
	movl	$0, %eax
	call	__fprintf_chk@PLT
.LVL815:
	.loc 2 79 10 view .LVU1220
.LBE175:
.LBE174:
	.loc 1 415 11 is_stmt 1 view .LVU1221
	.loc 1 415 34 is_stmt 0 view .LVU1222
	movl	$1, %edx
	movl	$36, %esi
	movq	%rbx, %rdi
	call	lex_ctx_create_lexeme
.LVL816:
	movq	%rax, %r12
	.loc 1 415 11 discriminator 1 view .LVU1223
	testq	%r14, %r14
	je	.L844
.L788:
	movq	%r12, %rsi
	movq	%r14, %rdi
	call	array_append@PLT
.LVL817:
	.loc 1 416 11 is_stmt 1 view .LVU1224
	testq	%rbx, %rbx
	je	.L789
	testb	$7, %bl
	jne	.L789
.L790:
	movq	%rbx, %rax
	shrq	$3, %rax
	cmpb	$0, 2147450880(%rax)
	jne	.L845
	movq	(%rbx), %r12
	testq	%r12, %r12
	je	.L846
.L792:
	movl	$1, %esi
	movq	%r12, %rdi
	call	fconsume@PLT
.LVL818:
	.loc 1 417 11 view .LVU1225
	jmp	.L765
.LVL819:
.L842:
	.loc 1 414 11 is_stmt 0 view .LVU1226
	call	__asan_report_load8@PLT
.LVL820:
.L843:
	.loc 1 414 11 view .LVU1227
	leaq	.Lubsan_data148(%rip), %rdi
	call	__ubsan_handle_nonnull_arg@PLT
.LVL821:
	jmp	.L787
.L844:
	.loc 1 415 11 discriminator 1 view .LVU1228
	leaq	.Lubsan_data150(%rip), %rdi
	call	__ubsan_handle_nonnull_arg@PLT
.LVL822:
	jmp	.L788
.L789:
	.loc 1 416 11 view .LVU1229
	movq	%rbx, %rsi
	leaq	.Lubsan_data280(%rip), %rdi
	call	__ubsan_handle_type_mismatch_v1@PLT
.LVL823:
	jmp	.L790
.L845:
	.loc 1 416 11 view .LVU1230
	movq	%rbx, %rdi
	call	__asan_report_load8@PLT
.LVL824:
.L846:
	.loc 1 416 11 view .LVU1231
	leaq	.Lubsan_data151(%rip), %rdi
	call	__ubsan_handle_nonnull_arg@PLT
.LVL825:
	jmp	.L792
.LVL826:
.L778:
	.loc 1 419 11 is_stmt 1 view .LVU1232
	.loc 1 419 14 is_stmt 0 view .LVU1233
	cmpb	$120, %al
	je	.L847
	.loc 1 424 11 is_stmt 1 view .LVU1234
	movq	%r14, %rsi
	movq	%rbx, %rdi
	call	lex_ctx_consume_octal
.LVL827:
	.loc 1 425 11 view .LVU1235
	jmp	.L765
.LVL828:
.L847:
	.loc 1 421 15 view .LVU1236
	movq	%r14, %rsi
	movq	%rbx, %rdi
	call	lex_ctx_consume_hexadecimal
.LVL829:
	.loc 1 422 15 view .LVU1237
	jmp	.L765
.LVL830:
.L776:
	.loc 1 428 11 view .LVU1238
	movq	%r14, %rsi
	movq	%rbx, %rdi
	call	lex_ctx_consume_number
.LVL831:
	.loc 1 429 11 view .LVU1239
	jmp	.L765
.LVL832:
.L780:
	.loc 1 431 11 view .LVU1240
	movq	%r14, %rsi
	movq	%rbx, %rdi
	call	lex_ctx_consume_string
.LVL833:
	.loc 1 432 11 view .LVU1241
	jmp	.L765
.LVL834:
.L779:
	.loc 1 434 11 view .LVU1242
	movq	%r14, %rsi
	movq	%rbx, %rdi
	call	lex_ctx_consume_character
.LVL835:
	.loc 1 435 11 view .LVU1243
	jmp	.L765
.LVL836:
.L775:
	.loc 1 437 11 view .LVU1244
	.loc 1 437 15 is_stmt 0 view .LVU1245
	movsbl	%r12b, %edi
	call	isident_f@PLT
.LVL837:
	.loc 1 437 14 discriminator 1 view .LVU1246
	testl	%eax, %eax
	jne	.L848
	.loc 1 442 16 is_stmt 1 view .LVU1247
	.loc 1 442 22 is_stmt 0 view .LVU1248
	call	__ctype_b_loc@PLT
.LVL838:
	movq	%rax, %r13
	.loc 1 442 21 discriminator 1 view .LVU1249
	testq	%rax, %rax
	je	.L795
	testb	$7, %al
	jne	.L795
.L796:
	movq	%r13, %rax
	shrq	$3, %rax
	cmpb	$0, 2147450880(%rax)
	jne	.L849
	movq	0(%r13), %r13
	.loc 1 442 40 discriminator 1 view .LVU1250
	movsbq	%r12b, %r12
	.loc 1 442 39 discriminator 1 view .LVU1251
	addq	%r12, %r12
.LVL839:
	.loc 1 442 39 discriminator 1 view .LVU1252
	leaq	0(%r13,%r12), %rdx
	js	.L798
	cmpq	%r13, %rdx
	jnb	.L799
.L800:
	movq	%r13, %rsi
	leaq	.Lubsan_data282(%rip), %rdi
	call	__ubsan_handle_pointer_overflow@PLT
.LVL840:
	jmp	.L799
.LVL841:
.L848:
	.loc 1 439 15 is_stmt 1 view .LVU1253
	movq	%r14, %rsi
	movq	%rbx, %rdi
	call	lex_ctx_consume_identifier
.LVL842:
	.loc 1 440 15 view .LVU1254
	jmp	.L765
.L795:
	.loc 1 442 21 is_stmt 0 discriminator 1 view .LVU1255
	movq	%r13, %rsi
	leaq	.Lubsan_data281(%rip), %rdi
	call	__ubsan_handle_type_mismatch_v1@PLT
.LVL843:
	jmp	.L796
.L849:
	movq	%r13, %rdi
	call	__asan_report_load8@PLT
.LVL844:
.L798:
	.loc 1 442 39 discriminator 1 view .LVU1256
	cmpq	%rdx, %r13
	jb	.L800
.L799:
	addq	%r13, %r12
	je	.L801
	testb	$1, %r12b
	jne	.L801
.L802:
	movq	%r12, %rax
	shrq	$3, %rax
	movzbl	2147450880(%rax), %edx
	movq	%r12, %rax
	andl	$7, %eax
	addl	$1, %eax
	cmpb	%dl, %al
	jl	.L803
	testb	%dl, %dl
	jne	.L850
.L803:
	movzwl	(%r12), %eax
	.loc 1 442 19 discriminator 1 view .LVU1257
	testb	$32, %ah
	je	.L804
	.loc 1 444 15 is_stmt 1 view .LVU1258
	testq	%rbx, %rbx
	je	.L805
	testb	$7, %bl
	jne	.L805
.L806:
	movq	%rbx, %rax
	shrq	$3, %rax
	cmpb	$0, 2147450880(%rax)
	jne	.L851
	movq	(%rbx), %r12
	testq	%r12, %r12
	je	.L852
.L808:
	movl	$1, %esi
	movq	%r12, %rdi
	call	fconsume@PLT
.LVL845:
	.loc 1 445 15 view .LVU1259
	jmp	.L765
.L801:
	.loc 1 442 39 is_stmt 0 discriminator 1 view .LVU1260
	movq	%r12, %rsi
	leaq	.Lubsan_data283(%rip), %rdi
	call	__ubsan_handle_type_mismatch_v1@PLT
.LVL846:
	jmp	.L802
.L850:
	movq	%r12, %rdi
	call	__asan_report_load2@PLT
.LVL847:
.L805:
	.loc 1 444 15 view .LVU1261
	movq	%rbx, %rsi
	leaq	.Lubsan_data284(%rip), %rdi
	call	__ubsan_handle_type_mismatch_v1@PLT
.LVL848:
	jmp	.L806
.L851:
	.loc 1 444 15 view .LVU1262
	movq	%rbx, %rdi
	call	__asan_report_load8@PLT
.LVL849:
.L852:
	.loc 1 444 15 view .LVU1263
	leaq	.Lubsan_data152(%rip), %rdi
	call	__ubsan_handle_nonnull_arg@PLT
.LVL850:
	jmp	.L808
.L804:
	.loc 1 447 11 is_stmt 1 view .LVU1264
	movq	%r14, %rsi
	movq	%rbx, %rdi
	call	lex_ctx_consume_nonliteral
.LVL851:
	.loc 1 448 11 view .LVU1265
	jmp	.L765
.LVL852:
.L809:
	.loc 1 448 11 is_stmt 0 view .LVU1266
.LBE176:
	.loc 1 401 11 view .LVU1267
	movq	%rbx, %rsi
	leaq	.Lubsan_data285(%rip), %rdi
	call	__ubsan_handle_type_mismatch_v1@PLT
.LVL853:
	jmp	.L810
.L836:
	.loc 1 401 11 view .LVU1268
	movq	%rbx, %rdi
	call	__asan_report_load8@PLT
.LVL854:
.L837:
	.loc 1 401 11 view .LVU1269
	leaq	.Lubsan_data153(%rip), %rdi
	call	__ubsan_handle_nonnull_arg@PLT
.LVL855:
	jmp	.L812
.L813:
	.loc 1 451 3 is_stmt 1 view .LVU1270
	testq	%rbx, %rbx
	je	.L815
	testb	$7, %bl
	jne	.L815
.L816:
	leaq	16(%rbx), %rdi
	movq	%rdi, %rax
	shrq	$3, %rax
	cmpb	$0, 2147450880(%rax)
	jne	.L853
	movq	16(%rbx), %r13
	testq	%r14, %r14
	je	.L854
.L818:
	movq	%r14, %rdi
	call	array_length@PLT
.LVL856:
	movq	%rax, %rbx
.LVL857:
	.loc 1 451 3 is_stmt 0 discriminator 1 view .LVU1271
	leaq	stdout(%rip), %rdi
	movq	%rdi, %rax
	shrq	$3, %rax
	cmpb	$0, 2147450880(%rax)
	jne	.L855
	movq	stdout(%rip), %r12
	testq	%r12, %r12
	je	.L856
.L820:
.LVL858:
.LBB177:
.LBI177:
	.loc 2 77 1 is_stmt 1 view .LVU1272
.LBB178:
	.loc 2 79 3 view .LVU1273
	.loc 2 79 10 is_stmt 0 view .LVU1274
	subq	$8, %rsp
	pushq	%r13
	movq	%rbx, %r9
	movl	$451, %r8d
	leaq	.LC0(%rip), %rcx
	leaq	.LC44(%rip), %rdx
	movl	$2, %esi
	movq	%r12, %rdi
	movl	$0, %eax
	call	__fprintf_chk@PLT
.LVL859:
	.loc 2 79 10 view .LVU1275
.LBE178:
.LBE177:
	.loc 1 452 3 is_stmt 1 view .LVU1276
	addq	$16, %rsp
	movq	-56(%rbp), %rax
	testq	%rax, %rax
	je	.L821
	testb	$7, %al
	jne	.L821
.L822:
	movq	-56(%rbp), %rax
	leaq	8(%rax), %rdx
	cmpq	$-8, %rax
	jnb	.L857
.L823:
	movq	-56(%rbp), %rax
	leaq	8(%rax), %rdi
	movq	%rdi, %rax
	shrq	$3, %rax
	cmpb	$0, 2147450880(%rax)
	jne	.L858
	movq	-56(%rbp), %rax
	movq	8(%rax), %rbx
	testq	%rbx, %rbx
	je	.L859
.L825:
	movq	%r14, %rsi
	movq	%rbx, %rdi
	call	array_append@PLT
.LVL860:
	.loc 1 453 17 view .LVU1277
	.loc 1 453 41 is_stmt 0 view .LVU1278
	leaq	stdout(%rip), %rdi
	movq	%rdi, %rax
	shrq	$3, %rax
	cmpb	$0, 2147450880(%rax)
	jne	.L860
	movq	stdout(%rip), %r12
	movq	g_diagnostics(%rip), %rbx
	testq	%rbx, %rbx
	je	.L861
.L827:
	testq	%r12, %r12
	je	.L862
.L828:
	movq	%r12, %rsi
	movq	%rbx, %rdi
	call	diagn_flush@PLT
.LVL861:
	movq	%rax, %rbx
.LVL862:
	.loc 1 454 3 is_stmt 1 view .LVU1279
	movq	g_diagnostics(%rip), %r12
	testq	%r12, %r12
	je	.L863
.LVL863:
.L829:
	.loc 1 454 3 is_stmt 0 view .LVU1280
	movq	%r12, %rdi
	call	diagn_free@PLT
.LVL864:
	.loc 1 455 3 is_stmt 1 view .LVU1281
	.loc 1 456 1 is_stmt 0 view .LVU1282
	movq	%rbx, %rax
	leaq	-40(%rbp), %rsp
	popq	%rbx
.LVL865:
	.loc 1 456 1 view .LVU1283
	popq	%r12
	popq	%r13
	popq	%r14
.LVL866:
	.loc 1 456 1 view .LVU1284
	popq	%r15
.LVL867:
	.loc 1 456 1 view .LVU1285
	popq	%rbp
	.cfi_remember_state
	.cfi_def_cfa 7, 8
.LVL868:
	.loc 1 456 1 view .LVU1286
	ret
.LVL869:
.L815:
	.cfi_restore_state
	.loc 1 451 3 view .LVU1287
	movq	%rbx, %rsi
	leaq	.Lubsan_data286(%rip), %rdi
	call	__ubsan_handle_type_mismatch_v1@PLT
.LVL870:
	jmp	.L816
.L853:
	.loc 1 451 3 view .LVU1288
	call	__asan_report_load8@PLT
.LVL871:
.L854:
	.loc 1 451 3 view .LVU1289
	leaq	.Lubsan_data154(%rip), %rdi
	call	__ubsan_handle_nonnull_arg@PLT
.LVL872:
	jmp	.L818
.LVL873:
.L855:
	.loc 1 451 3 discriminator 1 view .LVU1290
	call	__asan_report_load8@PLT
.LVL874:
.L856:
	leaq	.Lubsan_data155(%rip), %rdi
	call	__ubsan_handle_nonnull_arg@PLT
.LVL875:
	jmp	.L820
.L821:
	.loc 1 452 3 view .LVU1291
	movq	-56(%rbp), %rsi
	leaq	.Lubsan_data287(%rip), %rdi
	call	__ubsan_handle_type_mismatch_v1@PLT
.LVL876:
	jmp	.L822
.L857:
	movq	%rax, %rsi
	leaq	.Lubsan_data288(%rip), %rdi
	call	__ubsan_handle_pointer_overflow@PLT
.LVL877:
	jmp	.L823
.L858:
	call	__asan_report_load8@PLT
.LVL878:
.L859:
	leaq	.Lubsan_data157(%rip), %rdi
	call	__ubsan_handle_nonnull_arg@PLT
.LVL879:
	jmp	.L825
.L860:
	.loc 1 453 41 view .LVU1292
	call	__asan_report_load8@PLT
.LVL880:
.L861:
	leaq	.Lubsan_data158(%rip), %rdi
	call	__ubsan_handle_nonnull_arg@PLT
.LVL881:
	jmp	.L827
.L862:
	leaq	.Lubsan_data159(%rip), %rdi
	call	__ubsan_handle_nonnull_arg@PLT
.LVL882:
	jmp	.L828
.LVL883:
.L863:
	.loc 1 454 3 view .LVU1293
	leaq	.Lubsan_data160(%rip), %rdi
	call	__ubsan_handle_nonnull_arg@PLT
.LVL884:
	.loc 1 454 3 view .LVU1294
	jmp	.L829
	.cfi_endproc
.LFE68:
	.size	lex_ctx_process_impl, .-lex_ctx_process_impl
	.section	.rodata
	.align 32
.LC45:
	.string	"\033[1;37m%s:%u\033[0m: \033[1;34mverbose: \033[0mcreated lexer %p\n"
	.zero	40
	.text
	.globl	lex_ctx_new
	.type	lex_ctx_new, @function
lex_ctx_new:
.LASANPC69:
.LVL885:
.LFB69:
	.loc 1 460 1 is_stmt 1 view -0
	.cfi_startproc
	.loc 1 460 1 is_stmt 0 view .LVU1296
	endbr64
	pushq	%rbp
	.cfi_def_cfa_offset 16
	.cfi_offset 6, -16
	movq	%rsp, %rbp
	.cfi_def_cfa_register 6
	pushq	%r13
	pushq	%r12
	pushq	%rbx
	subq	$8, %rsp
	.cfi_offset 13, -24
	.cfi_offset 12, -32
	.cfi_offset 3, -40
1:	call	*mcount@GOTPCREL(%rip)
	movq	%rdi, %r12
	.loc 1 461 3 is_stmt 1 view .LVU1297
	.loc 1 461 19 is_stmt 0 view .LVU1298
	movl	$16, %edx
	movl	$1, %esi
	leaq	__func__.2(%rip), %rdi
.LVL886:
	.loc 1 461 19 view .LVU1299
	call	__chk_calloc_impl@PLT
.LVL887:
	movq	%rax, %rbx
.LVL888:
	.loc 1 462 3 is_stmt 1 view .LVU1300
	.loc 1 462 23 is_stmt 0 view .LVU1301
	call	array_new@PLT
.LVL889:
	.loc 1 462 23 view .LVU1302
	movq	%rax, %r13
	.loc 1 462 21 discriminator 1 view .LVU1303
	testq	%rbx, %rbx
	je	.L865
	testb	$7, %bl
	jne	.L865
.L866:
	movq	%rbx, %rax
	shrq	$3, %rax
	cmpb	$0, 2147450880(%rax)
	jne	.L874
	movq	%r13, (%rbx)
	.loc 1 463 3 is_stmt 1 view .LVU1304
	.loc 1 463 26 is_stmt 0 view .LVU1305
	call	array_new@PLT
.LVL890:
	movq	%rax, %r13
	.loc 1 463 24 discriminator 1 view .LVU1306
	testq	%rbx, %rbx
	je	.L868
	testb	$7, %bl
	jne	.L868
.L869:
	leaq	8(%rbx), %rdx
	cmpq	$-8, %rbx
	jnb	.L875
.L870:
	leaq	8(%rbx), %rdi
	movq	%rdi, %rax
	shrq	$3, %rax
	cmpb	$0, 2147450880(%rax)
	jne	.L876
	movq	%r13, 8(%rbx)
	.loc 1 464 3 is_stmt 1 view .LVU1307
	.loc 1 464 15 is_stmt 0 view .LVU1308
	movq	%r12, g_comp_args(%rip)
	.loc 1 465 3 is_stmt 1 view .LVU1309
	.loc 1 465 127 is_stmt 0 view .LVU1310
	movl	%ebx, %r13d
	.loc 1 465 3 view .LVU1311
	leaq	stdout(%rip), %rdi
	movq	%rdi, %rax
	shrq	$3, %rax
	cmpb	$0, 2147450880(%rax)
	jne	.L877
	.loc 1 465 3 view .LVU1312
	movq	stdout(%rip), %r12
.LVL891:
	.loc 1 465 3 view .LVU1313
	testq	%r12, %r12
	je	.L878
.LVL892:
.L873:
.LBB179:
.LBI179:
	.loc 2 77 1 is_stmt 1 view .LVU1314
.LBB180:
	.loc 2 79 3 view .LVU1315
	.loc 2 79 10 is_stmt 0 view .LVU1316
	movq	%r13, %r9
	movl	$465, %r8d
	leaq	.LC0(%rip), %rcx
	leaq	.LC45(%rip), %rdx
	movl	$2, %esi
	movq	%r12, %rdi
	movl	$0, %eax
	call	__fprintf_chk@PLT
.LVL893:
	.loc 2 79 10 view .LVU1317
.LBE180:
.LBE179:
	.loc 1 466 3 is_stmt 1 view .LVU1318
	.loc 1 467 1 is_stmt 0 view .LVU1319
	movq	%rbx, %rax
	addq	$8, %rsp
	popq	%rbx
.LVL894:
	.loc 1 467 1 view .LVU1320
	popq	%r12
	popq	%r13
	popq	%rbp
	.cfi_remember_state
	.cfi_def_cfa 7, 8
	ret
.LVL895:
.L865:
	.cfi_restore_state
	.loc 1 462 21 discriminator 1 view .LVU1321
	movq	%rbx, %rsi
	leaq	.Lubsan_data289(%rip), %rdi
	call	__ubsan_handle_type_mismatch_v1@PLT
.LVL896:
	jmp	.L866
.L874:
	.loc 1 462 21 discriminator 1 view .LVU1322
	movq	%rbx, %rdi
	call	__asan_report_store8@PLT
.LVL897:
.L868:
	.loc 1 463 24 discriminator 1 view .LVU1323
	movq	%rbx, %rsi
	leaq	.Lubsan_data290(%rip), %rdi
	call	__ubsan_handle_type_mismatch_v1@PLT
.LVL898:
	jmp	.L869
.L875:
	.loc 1 463 24 discriminator 1 view .LVU1324
	movq	%rbx, %rsi
	leaq	.Lubsan_data291(%rip), %rdi
	call	__ubsan_handle_pointer_overflow@PLT
.LVL899:
	jmp	.L870
.L876:
	.loc 1 463 24 discriminator 1 view .LVU1325
	call	__asan_report_store8@PLT
.LVL900:
.L877:
	.loc 1 465 3 view .LVU1326
	call	__asan_report_load8@PLT
.LVL901:
.L878:
	.loc 1 465 3 view .LVU1327
	leaq	.Lubsan_data164(%rip), %rdi
	call	__ubsan_handle_nonnull_arg@PLT
.LVL902:
	.loc 1 465 3 view .LVU1328
	jmp	.L873
	.cfi_endproc
.LFE69:
	.size	lex_ctx_new, .-lex_ctx_new
	.globl	lex_ctx_load_file
	.type	lex_ctx_load_file, @function
lex_ctx_load_file:
.LASANPC70:
.LVL903:
.LFB70:
	.loc 1 473 1 is_stmt 1 view -0
	.cfi_startproc
	.loc 1 473 1 is_stmt 0 view .LVU1330
	endbr64
	pushq	%rbp
	.cfi_def_cfa_offset 16
	.cfi_offset 6, -16
	movq	%rsp, %rbp
	.cfi_def_cfa_register 6
	pushq	%r12
	pushq	%rbx
	.cfi_offset 12, -24
	.cfi_offset 3, -32
1:	call	*mcount@GOTPCREL(%rip)
	movq	%rdi, %rbx
	movq	%rsi, %rdi
.LVL904:
	.loc 1 473 1 view .LVU1331
	movq	%rdx, %rsi
.LVL905:
	.loc 1 474 3 is_stmt 1 view .LVU1332
	.loc 1 474 35 is_stmt 0 view .LVU1333
	call	io_read_file_into_memstream@PLT
.LVL906:
	.loc 1 474 35 view .LVU1334
	movq	%rax, %r12
	.loc 1 474 3 discriminator 1 view .LVU1335
	testq	%rbx, %rbx
	je	.L880
	testb	$7, %bl
	jne	.L880
.L881:
	movq	%rbx, %rax
	shrq	$3, %rax
	cmpb	$0, 2147450880(%rax)
	jne	.L884
	movq	(%rbx), %rbx
.LVL907:
	.loc 1 474 3 discriminator 1 view .LVU1336
	testq	%rbx, %rbx
	je	.L885
.L883:
	movq	%r12, %rsi
	movq	%rbx, %rdi
	call	array_append@PLT
.LVL908:
	.loc 1 475 1 view .LVU1337
	popq	%rbx
	popq	%r12
	popq	%rbp
	.cfi_remember_state
	.cfi_def_cfa 7, 8
	ret
.LVL909:
.L880:
	.cfi_restore_state
	.loc 1 474 3 discriminator 1 view .LVU1338
	movq	%rbx, %rsi
	leaq	.Lubsan_data292(%rip), %rdi
	call	__ubsan_handle_type_mismatch_v1@PLT
.LVL910:
	jmp	.L881
.L884:
	.loc 1 474 3 discriminator 1 view .LVU1339
	movq	%rbx, %rdi
	call	__asan_report_load8@PLT
.LVL911:
.L885:
	.loc 1 474 3 discriminator 1 view .LVU1340
	leaq	.Lubsan_data167(%rip), %rdi
	call	__ubsan_handle_nonnull_arg@PLT
.LVL912:
	jmp	.L883
	.cfi_endproc
.LFE70:
	.size	lex_ctx_load_file, .-lex_ctx_load_file
	.globl	lex_ctx_process
	.type	lex_ctx_process, @function
lex_ctx_process:
.LASANPC71:
.LVL913:
.LFB71:
	.loc 1 479 1 is_stmt 1 view -0
	.cfi_startproc
	.loc 1 479 1 is_stmt 0 view .LVU1342
	endbr64
	pushq	%rbp
	.cfi_def_cfa_offset 16
	.cfi_offset 6, -16
	movq	%rsp, %rbp
	.cfi_def_cfa_register 6
	pushq	%r14
	pushq	%r13
	pushq	%r12
	pushq	%rbx
	.cfi_offset 14, -24
	.cfi_offset 13, -32
	.cfi_offset 12, -40
	.cfi_offset 3, -48
1:	call	*mcount@GOTPCREL(%rip)
	movq	%rdi, %rbx
	.loc 1 480 3 is_stmt 1 view .LVU1343
.LVL914:
	.loc 1 481 3 view .LVU1344
	.loc 1 481 23 discriminator 1 view .LVU1345
.LBB181:
	.loc 1 481 28 discriminator 1 view .LVU1346
	.loc 1 481 35 is_stmt 0 discriminator 1 view .LVU1347
	movl	$0, %r12d
.LBE181:
	.loc 1 480 12 view .LVU1348
	movl	$0, %r13d
.LBB182:
	.loc 1 481 23 view .LVU1349
	jmp	.L887
.LVL915:
.L897:
	.loc 1 483 5 is_stmt 1 view .LVU1350
	.loc 1 483 25 is_stmt 0 view .LVU1351
	movq	%rbx, %rdi
	call	lex_ctx_process_impl
.LVL916:
	.loc 1 483 22 discriminator 1 view .LVU1352
	addq	%rax, %r13
.LVL917:
	.loc 1 481 125 is_stmt 1 discriminator 4 view .LVU1353
	addq	$1, %r12
.LVL918:
.L887:
	.loc 1 481 78 discriminator 1 view .LVU1354
	.loc 1 481 46 is_stmt 0 discriminator 1 view .LVU1355
	testq	%rbx, %rbx
	je	.L888
	testb	$7, %bl
	jne	.L888
.L889:
	movq	%rbx, %rax
	shrq	$3, %rax
	cmpb	$0, 2147450880(%rax)
	jne	.L898
	movq	(%rbx), %r14
	testq	%r14, %r14
	je	.L899
.L891:
	movq	%r14, %rdi
	call	array_length@PLT
.LVL919:
	.loc 1 481 78 discriminator 1 view .LVU1356
	cmpq	%rax, %r12
	jnb	.L886
	.loc 1 481 91 discriminator 3 view .LVU1357
	testq	%rbx, %rbx
	je	.L893
	testb	$7, %bl
	jne	.L893
.L894:
	movq	%rbx, %rax
	shrq	$3, %rax
	cmpb	$0, 2147450880(%rax)
	jne	.L900
	movq	(%rbx), %r14
	testq	%r14, %r14
	je	.L901
.L896:
	movq	%r12, %rsi
	movq	%r14, %rdi
	call	array_get@PLT
.LVL920:
	movq	%rax, %rsi
.LVL921:
	.loc 1 481 78 discriminator 1 view .LVU1358
	testq	%rax, %rax
	jne	.L897
.LVL922:
.L886:
	.loc 1 481 78 discriminator 1 view .LVU1359
.LBE182:
	.loc 1 486 1 view .LVU1360
	movq	%r13, %rax
	popq	%rbx
.LVL923:
	.loc 1 486 1 view .LVU1361
	popq	%r12
.LVL924:
	.loc 1 486 1 view .LVU1362
	popq	%r13
.LVL925:
	.loc 1 486 1 view .LVU1363
	popq	%r14
	popq	%rbp
	.cfi_remember_state
	.cfi_def_cfa 7, 8
	ret
.LVL926:
.L888:
	.cfi_restore_state
.LBB183:
	.loc 1 481 46 discriminator 1 view .LVU1364
	movq	%rbx, %rsi
	leaq	.Lubsan_data293(%rip), %rdi
	call	__ubsan_handle_type_mismatch_v1@PLT
.LVL927:
	jmp	.L889
.L898:
	.loc 1 481 46 discriminator 1 view .LVU1365
	movq	%rbx, %rdi
	call	__asan_report_load8@PLT
.LVL928:
.L899:
	.loc 1 481 46 discriminator 1 view .LVU1366
	leaq	.Lubsan_data168(%rip), %rdi
	call	__ubsan_handle_nonnull_arg@PLT
.LVL929:
	jmp	.L891
.L893:
	.loc 1 481 91 discriminator 3 view .LVU1367
	movq	%rbx, %rsi
	leaq	.Lubsan_data294(%rip), %rdi
	call	__ubsan_handle_type_mismatch_v1@PLT
.LVL930:
	jmp	.L894
.L900:
	.loc 1 481 91 discriminator 3 view .LVU1368
	movq	%rbx, %rdi
	call	__asan_report_load8@PLT
.LVL931:
.L901:
	.loc 1 481 91 discriminator 3 view .LVU1369
	leaq	.Lubsan_data169(%rip), %rdi
	call	__ubsan_handle_nonnull_arg@PLT
.LVL932:
	jmp	.L896
.LBE183:
	.cfi_endproc
.LFE71:
	.size	lex_ctx_process, .-lex_ctx_process
	.globl	lex_ctx_free
	.type	lex_ctx_free, @function
lex_ctx_free:
.LASANPC73:
.LVL933:
.LFB73:
	.loc 1 497 1 is_stmt 1 view -0
	.cfi_startproc
	.loc 1 497 1 is_stmt 0 view .LVU1371
	endbr64
	pushq	%rbp
	.cfi_def_cfa_offset 16
	.cfi_offset 6, -16
	movq	%rsp, %rbp
	.cfi_def_cfa_register 6
	pushq	%r12
	pushq	%rbx
	.cfi_offset 12, -24
	.cfi_offset 3, -32
1:	call	*mcount@GOTPCREL(%rip)
	movq	%rdi, %rbx
	.loc 1 498 3 is_stmt 1 view .LVU1372
	testq	%rdi, %rdi
	je	.L903
	testb	$7, %dil
	jne	.L903
.LVL934:
.L904:
	.loc 1 498 3 is_stmt 0 view .LVU1373
	movq	%rbx, %rax
	shrq	$3, %rax
	cmpb	$0, 2147450880(%rax)
	jne	.L912
	movq	(%rbx), %r12
	testq	%r12, %r12
	je	.L913
.L906:
	movq	io_free_memstream@GOTPCREL(%rip), %rsi
	movq	%r12, %rdi
	call	array_free_cb@PLT
.LVL935:
	.loc 1 499 3 is_stmt 1 view .LVU1374
	testq	%rbx, %rbx
	je	.L907
	testb	$7, %bl
	jne	.L907
.L908:
	leaq	8(%rbx), %rdx
	cmpq	$-8, %rbx
	jnb	.L914
.L909:
	leaq	8(%rbx), %rdi
	movq	%rdi, %rax
	shrq	$3, %rax
	cmpb	$0, 2147450880(%rax)
	jne	.L915
	movq	8(%rbx), %r12
	testq	%r12, %r12
	je	.L916
.L911:
	leaq	lex_ctx_free_lexeme_arrays(%rip), %rsi
	movq	%r12, %rdi
	call	array_free_cb@PLT
.LVL936:
	.loc 1 500 3 view .LVU1375
	movq	%rbx, %rsi
	leaq	__func__.0(%rip), %rdi
	call	__chk_free_impl@PLT
.LVL937:
	.loc 1 501 1 is_stmt 0 view .LVU1376
	popq	%rbx
.LVL938:
	.loc 1 501 1 view .LVU1377
	popq	%r12
	popq	%rbp
	.cfi_remember_state
	.cfi_def_cfa 7, 8
	ret
.LVL939:
.L903:
	.cfi_restore_state
	.loc 1 498 3 view .LVU1378
	movq	%rbx, %rsi
	leaq	.Lubsan_data295(%rip), %rdi
	call	__ubsan_handle_type_mismatch_v1@PLT
.LVL940:
	jmp	.L904
.L912:
	.loc 1 498 3 view .LVU1379
	movq	%rbx, %rdi
	call	__asan_report_load8@PLT
.LVL941:
.L913:
	.loc 1 498 3 view .LVU1380
	leaq	.Lubsan_data170(%rip), %rdi
	call	__ubsan_handle_nonnull_arg@PLT
.LVL942:
	jmp	.L906
.L907:
	.loc 1 499 3 view .LVU1381
	movq	%rbx, %rsi
	leaq	.Lubsan_data296(%rip), %rdi
	call	__ubsan_handle_type_mismatch_v1@PLT
.LVL943:
	jmp	.L908
.L914:
	.loc 1 499 3 view .LVU1382
	movq	%rbx, %rsi
	leaq	.Lubsan_data297(%rip), %rdi
	call	__ubsan_handle_pointer_overflow@PLT
.LVL944:
	jmp	.L909
.L915:
	.loc 1 499 3 view .LVU1383
	call	__asan_report_load8@PLT
.LVL945:
.L916:
	leaq	.Lubsan_data171(%rip), %rdi
	call	__ubsan_handle_nonnull_arg@PLT
.LVL946:
	jmp	.L911
	.cfi_endproc
.LFE73:
	.size	lex_ctx_free, .-lex_ctx_free
	.section	.data.rel.local,"aw"
	.align 32
	.type	.Lubsan_data297, @object
	.size	.Lubsan_data297, 16
.Lubsan_data297:
	.quad	.LC0
	.long	499
	.long	3
	.zero	48
	.align 32
	.type	.Lubsan_data296, @object
	.size	.Lubsan_data296, 32
.Lubsan_data296:
	.quad	.LC0
	.long	499
	.long	3
	.quad	.Lubsan_type8
	.byte	3
	.byte	3
	.zero	6
	.zero	32
	.align 32
	.type	.Lubsan_data295, @object
	.size	.Lubsan_data295, 32
.Lubsan_data295:
	.quad	.LC0
	.long	498
	.long	3
	.quad	.Lubsan_type8
	.byte	3
	.byte	3
	.zero	6
	.zero	32
	.align 32
	.type	.Lubsan_data294, @object
	.size	.Lubsan_data294, 32
.Lubsan_data294:
	.quad	.LC0
	.long	481
	.long	91
	.quad	.Lubsan_type8
	.byte	3
	.byte	3
	.zero	6
	.zero	32
	.align 32
	.type	.Lubsan_data293, @object
	.size	.Lubsan_data293, 32
.Lubsan_data293:
	.quad	.LC0
	.long	481
	.long	46
	.quad	.Lubsan_type8
	.byte	3
	.byte	3
	.zero	6
	.zero	32
	.align 32
	.type	.Lubsan_data292, @object
	.size	.Lubsan_data292, 32
.Lubsan_data292:
	.quad	.LC0
	.long	474
	.long	3
	.quad	.Lubsan_type8
	.byte	3
	.byte	3
	.zero	6
	.zero	32
	.align 32
	.type	.Lubsan_data291, @object
	.size	.Lubsan_data291, 16
.Lubsan_data291:
	.quad	.LC0
	.long	463
	.long	24
	.zero	48
	.align 32
	.type	.Lubsan_data290, @object
	.size	.Lubsan_data290, 32
.Lubsan_data290:
	.quad	.LC0
	.long	463
	.long	24
	.quad	.Lubsan_type8
	.byte	3
	.byte	3
	.zero	6
	.zero	32
	.align 32
	.type	.Lubsan_data289, @object
	.size	.Lubsan_data289, 32
.Lubsan_data289:
	.quad	.LC0
	.long	462
	.long	21
	.quad	.Lubsan_type8
	.byte	3
	.byte	3
	.zero	6
	.zero	32
	.align 32
	.type	.Lubsan_data288, @object
	.size	.Lubsan_data288, 16
.Lubsan_data288:
	.quad	.LC0
	.long	452
	.long	3
	.zero	48
	.align 32
	.type	.Lubsan_data287, @object
	.size	.Lubsan_data287, 32
.Lubsan_data287:
	.quad	.LC0
	.long	452
	.long	3
	.quad	.Lubsan_type8
	.byte	3
	.byte	3
	.zero	6
	.zero	32
	.data
	.align 32
	.type	.Lubsan_type8, @object
	.size	.Lubsan_type8, 24
.Lubsan_type8:
	.value	-1
	.value	0
	.string	"'struct lexer_impl'"
	.zero	40
	.section	.data.rel.local
	.align 32
	.type	.Lubsan_data286, @object
	.size	.Lubsan_data286, 32
.Lubsan_data286:
	.quad	.LC0
	.long	451
	.long	3
	.quad	.Lubsan_type1
	.byte	3
	.byte	3
	.zero	6
	.zero	32
	.align 32
	.type	.Lubsan_data285, @object
	.size	.Lubsan_data285, 32
.Lubsan_data285:
	.quad	.LC0
	.long	401
	.long	11
	.quad	.Lubsan_type1
	.byte	3
	.byte	3
	.zero	6
	.zero	32
	.align 32
	.type	.Lubsan_data284, @object
	.size	.Lubsan_data284, 32
.Lubsan_data284:
	.quad	.LC0
	.long	444
	.long	15
	.quad	.Lubsan_type1
	.byte	3
	.byte	3
	.zero	6
	.zero	32
	.align 32
	.type	.Lubsan_data283, @object
	.size	.Lubsan_data283, 32
.Lubsan_data283:
	.quad	.LC0
	.long	442
	.long	39
	.quad	.Lubsan_type4
	.byte	1
	.byte	0
	.zero	6
	.zero	32
	.align 32
	.type	.Lubsan_data282, @object
	.size	.Lubsan_data282, 16
.Lubsan_data282:
	.quad	.LC0
	.long	442
	.long	39
	.zero	48
	.align 32
	.type	.Lubsan_data281, @object
	.size	.Lubsan_data281, 32
.Lubsan_data281:
	.quad	.LC0
	.long	442
	.long	21
	.quad	.Lubsan_type3
	.byte	3
	.byte	0
	.zero	6
	.zero	32
	.align 32
	.type	.Lubsan_data280, @object
	.size	.Lubsan_data280, 32
.Lubsan_data280:
	.quad	.LC0
	.long	416
	.long	11
	.quad	.Lubsan_type1
	.byte	3
	.byte	3
	.zero	6
	.zero	32
	.align 32
	.type	.Lubsan_data279, @object
	.size	.Lubsan_data279, 32
.Lubsan_data279:
	.quad	.LC0
	.long	404
	.long	48
	.quad	.Lubsan_type1
	.byte	3
	.byte	3
	.zero	6
	.zero	32
	.align 32
	.type	.Lubsan_data278, @object
	.size	.Lubsan_data278, 32
.Lubsan_data278:
	.quad	.LC0
	.long	403
	.long	51
	.quad	.Lubsan_type1
	.byte	3
	.byte	3
	.zero	6
	.zero	32
	.align 32
	.type	.Lubsan_data277, @object
	.size	.Lubsan_data277, 16
.Lubsan_data277:
	.quad	.LC0
	.long	399
	.long	19
	.zero	48
	.align 32
	.type	.Lubsan_data276, @object
	.size	.Lubsan_data276, 32
.Lubsan_data276:
	.quad	.LC0
	.long	399
	.long	19
	.quad	.Lubsan_type1
	.byte	3
	.byte	3
	.zero	6
	.zero	32
	.align 32
	.type	.Lubsan_data275, @object
	.size	.Lubsan_data275, 32
.Lubsan_data275:
	.quad	.LC0
	.long	196
	.long	89
	.quad	.Lubsan_type1
	.byte	3
	.byte	3
	.zero	6
	.zero	32
	.align 32
	.type	.Lubsan_data274, @object
	.size	.Lubsan_data274, 16
.Lubsan_data274:
	.quad	.LC0
	.long	195
	.long	3
	.zero	48
	.align 32
	.type	.Lubsan_data273, @object
	.size	.Lubsan_data273, 32
.Lubsan_data273:
	.quad	.LC0
	.long	195
	.long	162
	.quad	.Lubsan_type1
	.byte	3
	.byte	3
	.zero	6
	.zero	32
	.align 32
	.type	.Lubsan_data272, @object
	.size	.Lubsan_data272, 16
.Lubsan_data272:
	.quad	.LC0
	.long	195
	.long	151
	.zero	48
	.align 32
	.type	.Lubsan_data271, @object
	.size	.Lubsan_data271, 32
.Lubsan_data271:
	.quad	.LC0
	.long	195
	.long	151
	.quad	.Lubsan_type1
	.byte	3
	.byte	3
	.zero	6
	.zero	32
	.align 32
	.type	.Lubsan_data270, @object
	.size	.Lubsan_data270, 32
.Lubsan_data270:
	.quad	.LC0
	.long	189
	.long	57
	.quad	.Lubsan_type1
	.byte	3
	.byte	3
	.zero	6
	.zero	32
	.align 32
	.type	.Lubsan_data269, @object
	.size	.Lubsan_data269, 32
.Lubsan_data269:
	.quad	.LC0
	.long	391
	.long	87
	.quad	.Lubsan_type1
	.byte	3
	.byte	3
	.zero	6
	.zero	32
	.align 32
	.type	.Lubsan_data268, @object
	.size	.Lubsan_data268, 32
.Lubsan_data268:
	.quad	.LC0
	.long	388
	.long	7
	.quad	.Lubsan_type1
	.byte	3
	.byte	3
	.zero	6
	.zero	32
	.align 32
	.type	.Lubsan_data267, @object
	.size	.Lubsan_data267, 32
.Lubsan_data267:
	.quad	.LC0
	.long	320
	.long	14
	.quad	.Lubsan_type1
	.byte	3
	.byte	3
	.zero	6
	.zero	32
	.align 32
	.type	.Lubsan_data266, @object
	.size	.Lubsan_data266, 32
.Lubsan_data266:
	.quad	.LC0
	.long	319
	.long	17
	.quad	.Lubsan_type1
	.byte	3
	.byte	3
	.zero	6
	.zero	32
	.align 32
	.type	.Lubsan_data265, @object
	.size	.Lubsan_data265, 24
.Lubsan_data265:
	.quad	.LC0
	.long	121
	.long	3
	.quad	.Lubsan_type7
	.zero	40
	.align 32
	.type	.Lubsan_data264, @object
	.size	.Lubsan_data264, 24
.Lubsan_data264:
	.quad	.LC0
	.long	115
	.long	3
	.quad	.Lubsan_type6
	.zero	40
	.align 32
	.type	.Lubsan_data263, @object
	.size	.Lubsan_data263, 32
.Lubsan_data263:
	.quad	.LC0
	.long	121
	.long	3
	.quad	.Lubsan_type1
	.byte	3
	.byte	3
	.zero	6
	.zero	32
	.align 32
	.type	.Lubsan_data262, @object
	.size	.Lubsan_data262, 16
.Lubsan_data262:
	.quad	.LC0
	.long	117
	.long	7
	.zero	48
	.align 32
	.type	.Lubsan_data261, @object
	.size	.Lubsan_data261, 32
.Lubsan_data261:
	.quad	.LC0
	.long	117
	.long	7
	.quad	.Lubsan_type5
	.byte	3
	.byte	3
	.zero	6
	.zero	32
	.align 32
	.type	.Lubsan_data260, @object
	.size	.Lubsan_data260, 16
.Lubsan_data260:
	.quad	.LC0
	.long	115
	.long	3
	.zero	48
	.align 32
	.type	.Lubsan_data259, @object
	.size	.Lubsan_data259, 32
.Lubsan_data259:
	.quad	.LC0
	.long	115
	.long	147
	.quad	.Lubsan_type1
	.byte	3
	.byte	3
	.zero	6
	.zero	32
	.align 32
	.type	.Lubsan_data258, @object
	.size	.Lubsan_data258, 16
.Lubsan_data258:
	.quad	.LC0
	.long	115
	.long	136
	.zero	48
	.align 32
	.type	.Lubsan_data257, @object
	.size	.Lubsan_data257, 32
.Lubsan_data257:
	.quad	.LC0
	.long	115
	.long	136
	.quad	.Lubsan_type1
	.byte	3
	.byte	3
	.zero	6
	.zero	32
	.align 32
	.type	.Lubsan_data256, @object
	.size	.Lubsan_data256, 16
.Lubsan_data256:
	.quad	.LC0
	.long	113
	.long	72
	.zero	48
	.align 32
	.type	.Lubsan_data255, @object
	.size	.Lubsan_data255, 32
.Lubsan_data255:
	.quad	.LC0
	.long	113
	.long	72
	.quad	.Lubsan_type5
	.byte	3
	.byte	3
	.zero	6
	.zero	32
	.align 32
	.type	.Lubsan_data254, @object
	.size	.Lubsan_data254, 32
.Lubsan_data254:
	.quad	.LC0
	.long	128
	.long	3
	.quad	.Lubsan_type1
	.byte	3
	.byte	3
	.zero	6
	.zero	32
	.align 32
	.type	.Lubsan_data253, @object
	.size	.Lubsan_data253, 32
.Lubsan_data253:
	.quad	.LC0
	.long	104
	.long	57
	.quad	.Lubsan_type1
	.byte	3
	.byte	3
	.zero	6
	.zero	32
	.align 32
	.type	.Lubsan_data252, @object
	.size	.Lubsan_data252, 32
.Lubsan_data252:
	.quad	.LC0
	.long	106
	.long	16
	.quad	.Lubsan_type1
	.byte	3
	.byte	3
	.zero	6
	.zero	32
	.align 32
	.type	.Lubsan_data251, @object
	.size	.Lubsan_data251, 24
.Lubsan_data251:
	.quad	.LC0
	.long	260
	.long	3
	.quad	.Lubsan_type6
	.zero	40
	.align 32
	.type	.Lubsan_data250, @object
	.size	.Lubsan_data250, 32
.Lubsan_data250:
	.quad	.LC0
	.long	269
	.long	3
	.quad	.Lubsan_type1
	.byte	3
	.byte	3
	.zero	6
	.zero	32
	.align 32
	.type	.Lubsan_data249, @object
	.size	.Lubsan_data249, 32
.Lubsan_data249:
	.quad	.LC0
	.long	262
	.long	3
	.quad	.Lubsan_type1
	.byte	3
	.byte	3
	.zero	6
	.zero	32
	.align 32
	.type	.Lubsan_data248, @object
	.size	.Lubsan_data248, 16
.Lubsan_data248:
	.quad	.LC0
	.long	260
	.long	3
	.zero	48
	.align 32
	.type	.Lubsan_data247, @object
	.size	.Lubsan_data247, 32
.Lubsan_data247:
	.quad	.LC0
	.long	260
	.long	170
	.quad	.Lubsan_type1
	.byte	3
	.byte	3
	.zero	6
	.zero	32
	.align 32
	.type	.Lubsan_data246, @object
	.size	.Lubsan_data246, 16
.Lubsan_data246:
	.quad	.LC0
	.long	260
	.long	159
	.zero	48
	.align 32
	.type	.Lubsan_data245, @object
	.size	.Lubsan_data245, 32
.Lubsan_data245:
	.quad	.LC0
	.long	260
	.long	159
	.quad	.Lubsan_type1
	.byte	3
	.byte	3
	.zero	6
	.zero	32
	.align 32
	.type	.Lubsan_data244, @object
	.size	.Lubsan_data244, 32
.Lubsan_data244:
	.quad	.LC0
	.long	237
	.long	57
	.quad	.Lubsan_type1
	.byte	3
	.byte	3
	.zero	6
	.zero	32
	.align 32
	.type	.Lubsan_data243, @object
	.size	.Lubsan_data243, 32
.Lubsan_data243:
	.quad	.LC0
	.long	239
	.long	16
	.quad	.Lubsan_type1
	.byte	3
	.byte	3
	.zero	6
	.zero	32
	.align 32
	.type	.Lubsan_data242, @object
	.size	.Lubsan_data242, 24
.Lubsan_data242:
	.quad	.LC0
	.long	221
	.long	3
	.quad	.Lubsan_type6
	.zero	40
	.align 32
	.type	.Lubsan_data241, @object
	.size	.Lubsan_data241, 32
.Lubsan_data241:
	.quad	.LC0
	.long	229
	.long	3
	.quad	.Lubsan_type1
	.byte	3
	.byte	3
	.zero	6
	.zero	32
	.align 32
	.type	.Lubsan_data240, @object
	.size	.Lubsan_data240, 32
.Lubsan_data240:
	.quad	.LC0
	.long	222
	.long	92
	.quad	.Lubsan_type1
	.byte	3
	.byte	3
	.zero	6
	.zero	32
	.align 32
	.type	.Lubsan_data239, @object
	.size	.Lubsan_data239, 16
.Lubsan_data239:
	.quad	.LC0
	.long	221
	.long	3
	.zero	48
	.align 32
	.type	.Lubsan_data238, @object
	.size	.Lubsan_data238, 32
.Lubsan_data238:
	.quad	.LC0
	.long	221
	.long	167
	.quad	.Lubsan_type1
	.byte	3
	.byte	3
	.zero	6
	.zero	32
	.align 32
	.type	.Lubsan_data237, @object
	.size	.Lubsan_data237, 16
.Lubsan_data237:
	.quad	.LC0
	.long	221
	.long	156
	.zero	48
	.align 32
	.type	.Lubsan_data236, @object
	.size	.Lubsan_data236, 32
.Lubsan_data236:
	.quad	.LC0
	.long	221
	.long	156
	.quad	.Lubsan_type1
	.byte	3
	.byte	3
	.zero	6
	.zero	32
	.align 32
	.type	.Lubsan_data235, @object
	.size	.Lubsan_data235, 32
.Lubsan_data235:
	.quad	.LC0
	.long	203
	.long	57
	.quad	.Lubsan_type1
	.byte	3
	.byte	3
	.zero	6
	.zero	32
	.align 32
	.type	.Lubsan_data234, @object
	.size	.Lubsan_data234, 32
.Lubsan_data234:
	.quad	.LC0
	.long	205
	.long	16
	.quad	.Lubsan_type1
	.byte	3
	.byte	3
	.zero	6
	.zero	32
	.align 32
	.type	.Lubsan_data233, @object
	.size	.Lubsan_data233, 32
.Lubsan_data233:
	.quad	.LC0
	.long	293
	.long	93
	.quad	.Lubsan_type1
	.byte	3
	.byte	3
	.zero	6
	.zero	32
	.align 32
	.type	.Lubsan_data232, @object
	.size	.Lubsan_data232, 16
.Lubsan_data232:
	.quad	.LC0
	.long	292
	.long	3
	.zero	48
	.align 32
	.type	.Lubsan_data231, @object
	.size	.Lubsan_data231, 32
.Lubsan_data231:
	.quad	.LC0
	.long	292
	.long	164
	.quad	.Lubsan_type1
	.byte	3
	.byte	3
	.zero	6
	.zero	32
	.align 32
	.type	.Lubsan_data230, @object
	.size	.Lubsan_data230, 16
.Lubsan_data230:
	.quad	.LC0
	.long	292
	.long	153
	.zero	48
	.align 32
	.type	.Lubsan_data229, @object
	.size	.Lubsan_data229, 32
.Lubsan_data229:
	.quad	.LC0
	.long	292
	.long	153
	.quad	.Lubsan_type1
	.byte	3
	.byte	3
	.zero	6
	.zero	32
	.align 32
	.type	.Lubsan_data228, @object
	.size	.Lubsan_data228, 32
.Lubsan_data228:
	.quad	.LC0
	.long	277
	.long	57
	.quad	.Lubsan_type1
	.byte	3
	.byte	3
	.zero	6
	.zero	32
	.align 32
	.type	.Lubsan_data227, @object
	.size	.Lubsan_data227, 32
.Lubsan_data227:
	.quad	.LC0
	.long	281
	.long	32
	.quad	.Lubsan_type4
	.byte	1
	.byte	0
	.zero	6
	.zero	32
	.align 32
	.type	.Lubsan_data226, @object
	.size	.Lubsan_data226, 16
.Lubsan_data226:
	.quad	.LC0
	.long	281
	.long	32
	.zero	48
	.align 32
	.type	.Lubsan_data225, @object
	.size	.Lubsan_data225, 32
.Lubsan_data225:
	.quad	.LC0
	.long	281
	.long	14
	.quad	.Lubsan_type3
	.byte	3
	.byte	0
	.zero	6
	.zero	32
	.align 32
	.type	.Lubsan_data224, @object
	.size	.Lubsan_data224, 24
.Lubsan_data224:
	.quad	.LC0
	.long	97
	.long	3
	.quad	.Lubsan_type7
	.zero	40
	.data
	.align 32
	.type	.Lubsan_type7, @object
	.size	.Lubsan_type7, 15
.Lubsan_type7:
	.value	0
	.value	13
	.string	"'long int'"
	.zero	49
	.section	.data.rel.local
	.align 32
	.type	.Lubsan_data223, @object
	.size	.Lubsan_data223, 24
.Lubsan_data223:
	.quad	.LC0
	.long	92
	.long	3
	.quad	.Lubsan_type6
	.zero	40
	.data
	.align 32
	.type	.Lubsan_type6, @object
	.size	.Lubsan_type6, 10
.Lubsan_type6:
	.value	0
	.value	11
	.string	"'int'"
	.zero	54
	.section	.data.rel.local
	.align 32
	.type	.Lubsan_data222, @object
	.size	.Lubsan_data222, 32
.Lubsan_data222:
	.quad	.LC0
	.long	97
	.long	3
	.quad	.Lubsan_type1
	.byte	3
	.byte	3
	.zero	6
	.zero	32
	.align 32
	.type	.Lubsan_data221, @object
	.size	.Lubsan_data221, 16
.Lubsan_data221:
	.quad	.LC0
	.long	93
	.long	7
	.zero	48
	.align 32
	.type	.Lubsan_data220, @object
	.size	.Lubsan_data220, 32
.Lubsan_data220:
	.quad	.LC0
	.long	93
	.long	7
	.quad	.Lubsan_type5
	.byte	3
	.byte	3
	.zero	6
	.zero	32
	.data
	.align 32
	.type	.Lubsan_type5, @object
	.size	.Lubsan_type5, 30
.Lubsan_type5:
	.value	-1
	.value	0
	.string	"'struct compilation_args'"
	.zero	34
	.section	.data.rel.local
	.align 32
	.type	.Lubsan_data219, @object
	.size	.Lubsan_data219, 16
.Lubsan_data219:
	.quad	.LC0
	.long	92
	.long	3
	.zero	48
	.align 32
	.type	.Lubsan_data218, @object
	.size	.Lubsan_data218, 32
.Lubsan_data218:
	.quad	.LC0
	.long	92
	.long	171
	.quad	.Lubsan_type1
	.byte	3
	.byte	3
	.zero	6
	.zero	32
	.align 32
	.type	.Lubsan_data217, @object
	.size	.Lubsan_data217, 16
.Lubsan_data217:
	.quad	.LC0
	.long	92
	.long	160
	.zero	48
	.align 32
	.type	.Lubsan_data216, @object
	.size	.Lubsan_data216, 32
.Lubsan_data216:
	.quad	.LC0
	.long	92
	.long	160
	.quad	.Lubsan_type1
	.byte	3
	.byte	3
	.zero	6
	.zero	32
	.align 32
	.type	.Lubsan_data215, @object
	.size	.Lubsan_data215, 32
.Lubsan_data215:
	.quad	.LC0
	.long	86
	.long	57
	.quad	.Lubsan_type1
	.byte	3
	.byte	3
	.zero	6
	.zero	32
	.align 32
	.type	.Lubsan_data214, @object
	.size	.Lubsan_data214, 32
.Lubsan_data214:
	.quad	.LC0
	.long	182
	.long	93
	.quad	.Lubsan_type1
	.byte	3
	.byte	3
	.zero	6
	.zero	32
	.align 32
	.type	.Lubsan_data213, @object
	.size	.Lubsan_data213, 16
.Lubsan_data213:
	.quad	.LC0
	.long	181
	.long	3
	.zero	48
	.align 32
	.type	.Lubsan_data212, @object
	.size	.Lubsan_data212, 32
.Lubsan_data212:
	.quad	.LC0
	.long	181
	.long	158
	.quad	.Lubsan_type1
	.byte	3
	.byte	3
	.zero	6
	.zero	32
	.align 32
	.type	.Lubsan_data211, @object
	.size	.Lubsan_data211, 16
.Lubsan_data211:
	.quad	.LC0
	.long	181
	.long	147
	.zero	48
	.align 32
	.type	.Lubsan_data210, @object
	.size	.Lubsan_data210, 32
.Lubsan_data210:
	.quad	.LC0
	.long	181
	.long	147
	.quad	.Lubsan_type1
	.byte	3
	.byte	3
	.zero	6
	.zero	32
	.align 32
	.type	.Lubsan_data209, @object
	.size	.Lubsan_data209, 32
.Lubsan_data209:
	.quad	.LC0
	.long	170
	.long	57
	.quad	.Lubsan_type1
	.byte	3
	.byte	3
	.zero	6
	.zero	32
	.align 32
	.type	.Lubsan_data208, @object
	.size	.Lubsan_data208, 32
.Lubsan_data208:
	.quad	.LC0
	.long	177
	.long	34
	.quad	.Lubsan_type4
	.byte	1
	.byte	0
	.zero	6
	.zero	32
	.align 32
	.type	.Lubsan_data207, @object
	.size	.Lubsan_data207, 16
.Lubsan_data207:
	.quad	.LC0
	.long	177
	.long	34
	.zero	48
	.align 32
	.type	.Lubsan_data206, @object
	.size	.Lubsan_data206, 32
.Lubsan_data206:
	.quad	.LC0
	.long	177
	.long	16
	.quad	.Lubsan_type3
	.byte	3
	.byte	0
	.zero	6
	.zero	32
	.align 32
	.type	.Lubsan_data205, @object
	.size	.Lubsan_data205, 32
.Lubsan_data205:
	.quad	.LC0
	.long	163
	.long	94
	.quad	.Lubsan_type1
	.byte	3
	.byte	3
	.zero	6
	.zero	32
	.align 32
	.type	.Lubsan_data204, @object
	.size	.Lubsan_data204, 16
.Lubsan_data204:
	.quad	.LC0
	.long	162
	.long	3
	.zero	48
	.align 32
	.type	.Lubsan_data203, @object
	.size	.Lubsan_data203, 32
.Lubsan_data203:
	.quad	.LC0
	.long	162
	.long	165
	.quad	.Lubsan_type1
	.byte	3
	.byte	3
	.zero	6
	.zero	32
	.align 32
	.type	.Lubsan_data202, @object
	.size	.Lubsan_data202, 16
.Lubsan_data202:
	.quad	.LC0
	.long	162
	.long	154
	.zero	48
	.align 32
	.type	.Lubsan_data201, @object
	.size	.Lubsan_data201, 32
.Lubsan_data201:
	.quad	.LC0
	.long	162
	.long	154
	.quad	.Lubsan_type1
	.byte	3
	.byte	3
	.zero	6
	.zero	32
	.align 32
	.type	.Lubsan_data200, @object
	.size	.Lubsan_data200, 32
.Lubsan_data200:
	.quad	.LC0
	.long	154
	.long	57
	.quad	.Lubsan_type1
	.byte	3
	.byte	3
	.zero	6
	.zero	32
	.align 32
	.type	.Lubsan_data199, @object
	.size	.Lubsan_data199, 32
.Lubsan_data199:
	.quad	.LC0
	.long	158
	.long	34
	.quad	.Lubsan_type4
	.byte	1
	.byte	0
	.zero	6
	.zero	32
	.align 32
	.type	.Lubsan_data198, @object
	.size	.Lubsan_data198, 16
.Lubsan_data198:
	.quad	.LC0
	.long	158
	.long	34
	.zero	48
	.align 32
	.type	.Lubsan_data197, @object
	.size	.Lubsan_data197, 32
.Lubsan_data197:
	.quad	.LC0
	.long	158
	.long	16
	.quad	.Lubsan_type3
	.byte	3
	.byte	0
	.zero	6
	.zero	32
	.align 32
	.type	.Lubsan_data196, @object
	.size	.Lubsan_data196, 32
.Lubsan_data196:
	.quad	.LC0
	.long	312
	.long	93
	.quad	.Lubsan_type1
	.byte	3
	.byte	3
	.zero	6
	.zero	32
	.align 32
	.type	.Lubsan_data195, @object
	.size	.Lubsan_data195, 16
.Lubsan_data195:
	.quad	.LC0
	.long	311
	.long	3
	.zero	48
	.align 32
	.type	.Lubsan_data194, @object
	.size	.Lubsan_data194, 32
.Lubsan_data194:
	.quad	.LC0
	.long	311
	.long	170
	.quad	.Lubsan_type1
	.byte	3
	.byte	3
	.zero	6
	.zero	32
	.align 32
	.type	.Lubsan_data193, @object
	.size	.Lubsan_data193, 16
.Lubsan_data193:
	.quad	.LC0
	.long	311
	.long	159
	.zero	48
	.align 32
	.type	.Lubsan_data192, @object
	.size	.Lubsan_data192, 32
.Lubsan_data192:
	.quad	.LC0
	.long	311
	.long	159
	.quad	.Lubsan_type1
	.byte	3
	.byte	3
	.zero	6
	.zero	32
	.align 32
	.type	.Lubsan_data191, @object
	.size	.Lubsan_data191, 32
.Lubsan_data191:
	.quad	.LC0
	.long	300
	.long	57
	.quad	.Lubsan_type1
	.byte	3
	.byte	3
	.zero	6
	.zero	32
	.align 32
	.type	.Lubsan_data190, @object
	.size	.Lubsan_data190, 32
.Lubsan_data190:
	.quad	.LC0
	.long	307
	.long	34
	.quad	.Lubsan_type4
	.byte	1
	.byte	0
	.zero	6
	.zero	32
	.align 32
	.type	.Lubsan_data189, @object
	.size	.Lubsan_data189, 16
.Lubsan_data189:
	.quad	.LC0
	.long	307
	.long	34
	.zero	48
	.align 32
	.type	.Lubsan_data188, @object
	.size	.Lubsan_data188, 32
.Lubsan_data188:
	.quad	.LC0
	.long	307
	.long	16
	.quad	.Lubsan_type3
	.byte	3
	.byte	0
	.zero	6
	.zero	32
	.align 32
	.type	.Lubsan_data187, @object
	.size	.Lubsan_data187, 32
.Lubsan_data187:
	.quad	.LC0
	.long	146
	.long	94
	.quad	.Lubsan_type1
	.byte	3
	.byte	3
	.zero	6
	.zero	32
	.align 32
	.type	.Lubsan_data186, @object
	.size	.Lubsan_data186, 16
.Lubsan_data186:
	.quad	.LC0
	.long	145
	.long	3
	.zero	48
	.align 32
	.type	.Lubsan_data185, @object
	.size	.Lubsan_data185, 32
.Lubsan_data185:
	.quad	.LC0
	.long	145
	.long	169
	.quad	.Lubsan_type1
	.byte	3
	.byte	3
	.zero	6
	.zero	32
	.align 32
	.type	.Lubsan_data184, @object
	.size	.Lubsan_data184, 16
.Lubsan_data184:
	.quad	.LC0
	.long	145
	.long	158
	.zero	48
	.align 32
	.type	.Lubsan_data183, @object
	.size	.Lubsan_data183, 32
.Lubsan_data183:
	.quad	.LC0
	.long	145
	.long	158
	.quad	.Lubsan_type1
	.byte	3
	.byte	3
	.zero	6
	.zero	32
	.align 32
	.type	.Lubsan_data182, @object
	.size	.Lubsan_data182, 32
.Lubsan_data182:
	.quad	.LC0
	.long	137
	.long	57
	.quad	.Lubsan_type1
	.byte	3
	.byte	3
	.zero	6
	.zero	32
	.align 32
	.type	.Lubsan_data181, @object
	.size	.Lubsan_data181, 32
.Lubsan_data181:
	.quad	.LC0
	.long	141
	.long	34
	.quad	.Lubsan_type4
	.byte	1
	.byte	0
	.zero	6
	.zero	32
	.data
	.align 32
	.type	.Lubsan_type4, @object
	.size	.Lubsan_type4, 31
.Lubsan_type4:
	.value	-1
	.value	0
	.string	"'const short unsigned int'"
	.zero	33
	.section	.data.rel.local
	.align 32
	.type	.Lubsan_data180, @object
	.size	.Lubsan_data180, 16
.Lubsan_data180:
	.quad	.LC0
	.long	141
	.long	34
	.zero	48
	.align 32
	.type	.Lubsan_data179, @object
	.size	.Lubsan_data179, 32
.Lubsan_data179:
	.quad	.LC0
	.long	141
	.long	16
	.quad	.Lubsan_type3
	.byte	3
	.byte	0
	.zero	6
	.zero	32
	.data
	.align 32
	.type	.Lubsan_type3, @object
	.size	.Lubsan_type3, 33
.Lubsan_type3:
	.value	-1
	.value	0
	.string	"'const short unsigned int *'"
	.zero	63
	.section	.data.rel.local
	.align 32
	.type	.Lubsan_data178, @object
	.size	.Lubsan_data178, 16
.Lubsan_data178:
	.quad	.LC0
	.long	66
	.long	16
	.zero	48
	.align 32
	.type	.Lubsan_data177, @object
	.size	.Lubsan_data177, 32
.Lubsan_data177:
	.quad	.LC0
	.long	66
	.long	16
	.quad	.Lubsan_type2
	.byte	3
	.byte	3
	.zero	6
	.zero	32
	.align 32
	.type	.Lubsan_data176, @object
	.size	.Lubsan_data176, 32
.Lubsan_data176:
	.quad	.LC0
	.long	65
	.long	18
	.quad	.Lubsan_type2
	.byte	3
	.byte	3
	.zero	6
	.zero	32
	.align 32
	.type	.Lubsan_data175, @object
	.size	.Lubsan_data175, 16
.Lubsan_data175:
	.quad	.LC0
	.long	64
	.long	23
	.zero	48
	.align 32
	.type	.Lubsan_data174, @object
	.size	.Lubsan_data174, 32
.Lubsan_data174:
	.quad	.LC0
	.long	64
	.long	23
	.quad	.Lubsan_type2
	.byte	3
	.byte	3
	.zero	6
	.zero	32
	.data
	.align 32
	.type	.Lubsan_type2, @object
	.size	.Lubsan_type2, 23
.Lubsan_type2:
	.value	-1
	.value	0
	.string	"'struct <unknown>'"
	.zero	41
	.section	.data.rel.local
	.align 32
	.type	.Lubsan_data173, @object
	.size	.Lubsan_data173, 32
.Lubsan_data173:
	.quad	.LC0
	.long	64
	.long	35
	.quad	.Lubsan_type1
	.byte	3
	.byte	3
	.zero	6
	.zero	32
	.align 32
	.type	.Lubsan_data172, @object
	.size	.Lubsan_data172, 32
.Lubsan_data172:
	.quad	.LC0
	.long	73
	.long	57
	.quad	.Lubsan_type1
	.byte	3
	.byte	3
	.zero	6
	.zero	32
	.data
	.align 32
	.type	.Lubsan_type1, @object
	.size	.Lubsan_type1, 23
.Lubsan_type1:
	.value	-1
	.value	0
	.string	"'struct <unknown>'"
	.zero	41
	.section	.data.rel.local
	.align 32
	.type	.Lubsan_data171, @object
	.size	.Lubsan_data171, 40
.Lubsan_data171:
	.quad	.LC0
	.long	499
	.long	3
	.quad	0
	.long	0
	.long	0
	.long	1
	.zero	4
	.zero	56
	.align 32
	.type	.Lubsan_data170, @object
	.size	.Lubsan_data170, 40
.Lubsan_data170:
	.quad	.LC0
	.long	498
	.long	3
	.quad	0
	.long	0
	.long	0
	.long	1
	.zero	4
	.zero	56
	.align 32
	.type	.Lubsan_data169, @object
	.size	.Lubsan_data169, 40
.Lubsan_data169:
	.quad	.LC0
	.long	481
	.long	91
	.quad	0
	.long	0
	.long	0
	.long	1
	.zero	4
	.zero	56
	.align 32
	.type	.Lubsan_data168, @object
	.size	.Lubsan_data168, 40
.Lubsan_data168:
	.quad	.LC0
	.long	481
	.long	46
	.quad	0
	.long	0
	.long	0
	.long	1
	.zero	4
	.zero	56
	.align 32
	.type	.Lubsan_data167, @object
	.size	.Lubsan_data167, 40
.Lubsan_data167:
	.quad	.LC0
	.long	474
	.long	3
	.quad	0
	.long	0
	.long	0
	.long	1
	.zero	4
	.zero	56
	.align 32
	.type	.Lubsan_data164, @object
	.size	.Lubsan_data164, 40
.Lubsan_data164:
	.quad	.LC0
	.long	465
	.long	3
	.quad	0
	.long	0
	.long	0
	.long	1
	.zero	4
	.zero	56
	.align 32
	.type	.Lubsan_data163, @object
	.size	.Lubsan_data163, 40
.Lubsan_data163:
	.quad	.LC0
	.long	492
	.long	3
	.quad	0
	.long	0
	.long	0
	.long	1
	.zero	4
	.zero	56
	.align 32
	.type	.Lubsan_data161, @object
	.size	.Lubsan_data161, 40
.Lubsan_data161:
	.quad	.LC0
	.long	491
	.long	3
	.quad	0
	.long	0
	.long	0
	.long	1
	.zero	4
	.zero	56
	.align 32
	.type	.Lubsan_data160, @object
	.size	.Lubsan_data160, 40
.Lubsan_data160:
	.quad	.LC0
	.long	454
	.long	3
	.quad	0
	.long	0
	.long	0
	.long	1
	.zero	4
	.zero	56
	.align 32
	.type	.Lubsan_data159, @object
	.size	.Lubsan_data159, 40
.Lubsan_data159:
	.quad	.LC0
	.long	453
	.long	41
	.quad	0
	.long	0
	.long	0
	.long	2
	.zero	4
	.zero	56
	.align 32
	.type	.Lubsan_data158, @object
	.size	.Lubsan_data158, 40
.Lubsan_data158:
	.quad	.LC0
	.long	453
	.long	41
	.quad	0
	.long	0
	.long	0
	.long	1
	.zero	4
	.zero	56
	.align 32
	.type	.Lubsan_data157, @object
	.size	.Lubsan_data157, 40
.Lubsan_data157:
	.quad	.LC0
	.long	452
	.long	3
	.quad	0
	.long	0
	.long	0
	.long	1
	.zero	4
	.zero	56
	.align 32
	.type	.Lubsan_data155, @object
	.size	.Lubsan_data155, 40
.Lubsan_data155:
	.quad	.LC0
	.long	451
	.long	3
	.quad	0
	.long	0
	.long	0
	.long	1
	.zero	4
	.zero	56
	.align 32
	.type	.Lubsan_data154, @object
	.size	.Lubsan_data154, 40
.Lubsan_data154:
	.quad	.LC0
	.long	451
	.long	3
	.quad	0
	.long	0
	.long	0
	.long	1
	.zero	4
	.zero	56
	.align 32
	.type	.Lubsan_data153, @object
	.size	.Lubsan_data153, 40
.Lubsan_data153:
	.quad	.LC0
	.long	401
	.long	11
	.quad	0
	.long	0
	.long	0
	.long	1
	.zero	4
	.zero	56
	.align 32
	.type	.Lubsan_data152, @object
	.size	.Lubsan_data152, 40
.Lubsan_data152:
	.quad	.LC0
	.long	444
	.long	15
	.quad	0
	.long	0
	.long	0
	.long	1
	.zero	4
	.zero	56
	.align 32
	.type	.Lubsan_data151, @object
	.size	.Lubsan_data151, 40
.Lubsan_data151:
	.quad	.LC0
	.long	416
	.long	11
	.quad	0
	.long	0
	.long	0
	.long	1
	.zero	4
	.zero	56
	.align 32
	.type	.Lubsan_data150, @object
	.size	.Lubsan_data150, 40
.Lubsan_data150:
	.quad	.LC0
	.long	415
	.long	11
	.quad	0
	.long	0
	.long	0
	.long	1
	.zero	4
	.zero	56
	.align 32
	.type	.Lubsan_data148, @object
	.size	.Lubsan_data148, 40
.Lubsan_data148:
	.quad	.LC0
	.long	414
	.long	11
	.quad	0
	.long	0
	.long	0
	.long	1
	.zero	4
	.zero	56
	.align 32
	.type	.Lubsan_data147, @object
	.size	.Lubsan_data147, 40
.Lubsan_data147:
	.quad	.LC0
	.long	410
	.long	11
	.quad	0
	.long	0
	.long	0
	.long	1
	.zero	4
	.zero	56
	.align 32
	.type	.Lubsan_data145, @object
	.size	.Lubsan_data145, 40
.Lubsan_data145:
	.quad	.LC0
	.long	409
	.long	11
	.quad	0
	.long	0
	.long	0
	.long	1
	.zero	4
	.zero	56
	.align 32
	.type	.Lubsan_data144, @object
	.size	.Lubsan_data144, 40
.Lubsan_data144:
	.quad	.LC0
	.long	404
	.long	48
	.quad	0
	.long	0
	.long	0
	.long	1
	.zero	4
	.zero	56
	.align 32
	.type	.Lubsan_data143, @object
	.size	.Lubsan_data143, 40
.Lubsan_data143:
	.quad	.LC0
	.long	403
	.long	51
	.quad	0
	.long	0
	.long	0
	.long	1
	.zero	4
	.zero	56
	.align 32
	.type	.Lubsan_data142, @object
	.size	.Lubsan_data142, 40
.Lubsan_data142:
	.quad	.LC0
	.long	196
	.long	89
	.quad	0
	.long	0
	.long	0
	.long	1
	.zero	4
	.zero	56
	.align 32
	.type	.Lubsan_data141, @object
	.size	.Lubsan_data141, 40
.Lubsan_data141:
	.quad	.LC0
	.long	196
	.long	5
	.quad	0
	.long	0
	.long	0
	.long	1
	.zero	4
	.zero	56
	.align 32
	.type	.Lubsan_data139, @object
	.size	.Lubsan_data139, 40
.Lubsan_data139:
	.quad	.LC0
	.long	195
	.long	3
	.quad	0
	.long	0
	.long	0
	.long	1
	.zero	4
	.zero	56
	.align 32
	.type	.Lubsan_data138, @object
	.size	.Lubsan_data138, 40
.Lubsan_data138:
	.quad	.LC0
	.long	195
	.long	162
	.quad	0
	.long	0
	.long	0
	.long	1
	.zero	4
	.zero	56
	.align 32
	.type	.Lubsan_data137, @object
	.size	.Lubsan_data137, 40
.Lubsan_data137:
	.quad	.LC0
	.long	189
	.long	57
	.quad	0
	.long	0
	.long	0
	.long	1
	.zero	4
	.zero	56
	.align 32
	.type	.Lubsan_data136, @object
	.size	.Lubsan_data136, 40
.Lubsan_data136:
	.quad	.LC0
	.long	391
	.long	87
	.quad	0
	.long	0
	.long	0
	.long	1
	.zero	4
	.zero	56
	.align 32
	.type	.Lubsan_data135, @object
	.size	.Lubsan_data135, 40
.Lubsan_data135:
	.quad	.LC0
	.long	391
	.long	5
	.quad	0
	.long	0
	.long	0
	.long	1
	.zero	4
	.zero	56
	.align 32
	.type	.Lubsan_data134, @object
	.size	.Lubsan_data134, 40
.Lubsan_data134:
	.quad	.LC0
	.long	388
	.long	7
	.quad	0
	.long	0
	.long	0
	.long	1
	.zero	4
	.zero	56
	.align 32
	.type	.Lubsan_data132, @object
	.size	.Lubsan_data132, 40
.Lubsan_data132:
	.quad	.LC0
	.long	387
	.long	7
	.quad	0
	.long	0
	.long	0
	.long	1
	.zero	4
	.zero	56
	.align 32
	.type	.Lubsan_data130, @object
	.size	.Lubsan_data130, 40
.Lubsan_data130:
	.quad	.LC0
	.long	340
	.long	182
	.quad	0
	.long	0
	.long	0
	.long	1
	.zero	4
	.zero	56
	.align 32
	.type	.Lubsan_data128, @object
	.size	.Lubsan_data128, 40
.Lubsan_data128:
	.quad	.LC0
	.long	340
	.long	55
	.quad	0
	.long	0
	.long	0
	.long	1
	.zero	4
	.zero	56
	.align 32
	.type	.Lubsan_data126, @object
	.size	.Lubsan_data126, 40
.Lubsan_data126:
	.quad	.LC0
	.long	339
	.long	176
	.quad	0
	.long	0
	.long	0
	.long	1
	.zero	4
	.zero	56
	.align 32
	.type	.Lubsan_data124, @object
	.size	.Lubsan_data124, 40
.Lubsan_data124:
	.quad	.LC0
	.long	339
	.long	52
	.quad	0
	.long	0
	.long	0
	.long	1
	.zero	4
	.zero	56
	.align 32
	.type	.Lubsan_data122, @object
	.size	.Lubsan_data122, 40
.Lubsan_data122:
	.quad	.LC0
	.long	338
	.long	190
	.quad	0
	.long	0
	.long	0
	.long	1
	.zero	4
	.zero	56
	.align 32
	.type	.Lubsan_data120, @object
	.size	.Lubsan_data120, 40
.Lubsan_data120:
	.quad	.LC0
	.long	338
	.long	59
	.quad	0
	.long	0
	.long	0
	.long	1
	.zero	4
	.zero	56
	.align 32
	.type	.Lubsan_data118, @object
	.size	.Lubsan_data118, 40
.Lubsan_data118:
	.quad	.LC0
	.long	337
	.long	184
	.quad	0
	.long	0
	.long	0
	.long	1
	.zero	4
	.zero	56
	.align 32
	.type	.Lubsan_data116, @object
	.size	.Lubsan_data116, 40
.Lubsan_data116:
	.quad	.LC0
	.long	337
	.long	56
	.quad	0
	.long	0
	.long	0
	.long	1
	.zero	4
	.zero	56
	.align 32
	.type	.Lubsan_data114, @object
	.size	.Lubsan_data114, 40
.Lubsan_data114:
	.quad	.LC0
	.long	336
	.long	180
	.quad	0
	.long	0
	.long	0
	.long	1
	.zero	4
	.zero	56
	.align 32
	.type	.Lubsan_data112, @object
	.size	.Lubsan_data112, 40
.Lubsan_data112:
	.quad	.LC0
	.long	336
	.long	54
	.quad	0
	.long	0
	.long	0
	.long	1
	.zero	4
	.zero	56
	.align 32
	.type	.Lubsan_data110, @object
	.size	.Lubsan_data110, 40
.Lubsan_data110:
	.quad	.LC0
	.long	335
	.long	176
	.quad	0
	.long	0
	.long	0
	.long	1
	.zero	4
	.zero	56
	.align 32
	.type	.Lubsan_data108, @object
	.size	.Lubsan_data108, 40
.Lubsan_data108:
	.quad	.LC0
	.long	335
	.long	52
	.quad	0
	.long	0
	.long	0
	.long	1
	.zero	4
	.zero	56
	.align 32
	.type	.Lubsan_data106, @object
	.size	.Lubsan_data106, 40
.Lubsan_data106:
	.quad	.LC0
	.long	334
	.long	178
	.quad	0
	.long	0
	.long	0
	.long	1
	.zero	4
	.zero	56
	.align 32
	.type	.Lubsan_data104, @object
	.size	.Lubsan_data104, 40
.Lubsan_data104:
	.quad	.LC0
	.long	334
	.long	53
	.quad	0
	.long	0
	.long	0
	.long	1
	.zero	4
	.zero	56
	.align 32
	.type	.Lubsan_data102, @object
	.size	.Lubsan_data102, 40
.Lubsan_data102:
	.quad	.LC0
	.long	332
	.long	17
	.quad	0
	.long	0
	.long	0
	.long	1
	.zero	4
	.zero	56
	.align 32
	.type	.Lubsan_data100, @object
	.size	.Lubsan_data100, 40
.Lubsan_data100:
	.quad	.LC0
	.long	331
	.long	17
	.quad	0
	.long	0
	.long	0
	.long	1
	.zero	4
	.zero	56
	.align 32
	.type	.Lubsan_data98, @object
	.size	.Lubsan_data98, 40
.Lubsan_data98:
	.quad	.LC0
	.long	330
	.long	17
	.quad	0
	.long	0
	.long	0
	.long	1
	.zero	4
	.zero	56
	.align 32
	.type	.Lubsan_data96, @object
	.size	.Lubsan_data96, 40
.Lubsan_data96:
	.quad	.LC0
	.long	329
	.long	17
	.quad	0
	.long	0
	.long	0
	.long	1
	.zero	4
	.zero	56
	.align 32
	.type	.Lubsan_data94, @object
	.size	.Lubsan_data94, 40
.Lubsan_data94:
	.quad	.LC0
	.long	328
	.long	17
	.quad	0
	.long	0
	.long	0
	.long	1
	.zero	4
	.zero	56
	.align 32
	.type	.Lubsan_data92, @object
	.size	.Lubsan_data92, 40
.Lubsan_data92:
	.quad	.LC0
	.long	327
	.long	17
	.quad	0
	.long	0
	.long	0
	.long	1
	.zero	4
	.zero	56
	.align 32
	.type	.Lubsan_data90, @object
	.size	.Lubsan_data90, 40
.Lubsan_data90:
	.quad	.LC0
	.long	326
	.long	17
	.quad	0
	.long	0
	.long	0
	.long	1
	.zero	4
	.zero	56
	.align 32
	.type	.Lubsan_data89, @object
	.size	.Lubsan_data89, 40
.Lubsan_data89:
	.quad	.LC0
	.long	320
	.long	14
	.quad	0
	.long	0
	.long	0
	.long	1
	.zero	4
	.zero	56
	.align 32
	.type	.Lubsan_data88, @object
	.size	.Lubsan_data88, 40
.Lubsan_data88:
	.quad	.LC0
	.long	319
	.long	17
	.quad	0
	.long	0
	.long	0
	.long	1
	.zero	4
	.zero	56
	.align 32
	.type	.Lubsan_data87, @object
	.size	.Lubsan_data87, 40
.Lubsan_data87:
	.quad	.LC0
	.long	121
	.long	3
	.quad	0
	.long	0
	.long	0
	.long	1
	.zero	4
	.zero	56
	.align 32
	.type	.Lubsan_data86, @object
	.size	.Lubsan_data86, 40
.Lubsan_data86:
	.quad	.LC0
	.long	120
	.long	5
	.quad	0
	.long	0
	.long	0
	.long	1
	.zero	4
	.zero	56
	.align 32
	.type	.Lubsan_data85, @object
	.size	.Lubsan_data85, 40
.Lubsan_data85:
	.quad	.LC0
	.long	118
	.long	5
	.quad	0
	.long	0
	.long	0
	.long	1
	.zero	4
	.zero	56
	.align 32
	.type	.Lubsan_data83, @object
	.size	.Lubsan_data83, 40
.Lubsan_data83:
	.quad	.LC0
	.long	115
	.long	3
	.quad	0
	.long	0
	.long	0
	.long	1
	.zero	4
	.zero	56
	.align 32
	.type	.Lubsan_data82, @object
	.size	.Lubsan_data82, 40
.Lubsan_data82:
	.quad	.LC0
	.long	115
	.long	147
	.quad	0
	.long	0
	.long	0
	.long	1
	.zero	4
	.zero	56
	.align 32
	.type	.Lubsan_data80, @object
	.size	.Lubsan_data80, 40
.Lubsan_data80:
	.quad	.LC0
	.long	113
	.long	3
	.quad	0
	.long	0
	.long	0
	.long	1
	.zero	4
	.zero	56
	.align 32
	.type	.Lubsan_data79, @object
	.size	.Lubsan_data79, 40
.Lubsan_data79:
	.quad	.LC0
	.long	129
	.long	3
	.quad	0
	.long	0
	.long	0
	.long	1
	.zero	4
	.zero	56
	.align 32
	.type	.Lubsan_data78, @object
	.size	.Lubsan_data78, 40
.Lubsan_data78:
	.quad	.LC0
	.long	128
	.long	3
	.quad	0
	.long	0
	.long	0
	.long	1
	.zero	4
	.zero	56
	.align 32
	.type	.Lubsan_data77, @object
	.size	.Lubsan_data77, 40
.Lubsan_data77:
	.quad	.LC0
	.long	126
	.long	3
	.quad	0
	.long	0
	.long	0
	.long	4
	.zero	4
	.zero	56
	.align 32
	.type	.Lubsan_data76, @object
	.size	.Lubsan_data76, 40
.Lubsan_data76:
	.quad	.LC0
	.long	126
	.long	3
	.quad	0
	.long	0
	.long	0
	.long	1
	.zero	4
	.zero	56
	.align 32
	.type	.Lubsan_data75, @object
	.size	.Lubsan_data75, 40
.Lubsan_data75:
	.quad	.LC0
	.long	104
	.long	57
	.quad	0
	.long	0
	.long	0
	.long	1
	.zero	4
	.zero	56
	.align 32
	.type	.Lubsan_data74, @object
	.size	.Lubsan_data74, 40
.Lubsan_data74:
	.quad	.LC0
	.long	106
	.long	16
	.quad	0
	.long	0
	.long	0
	.long	1
	.zero	4
	.zero	56
	.align 32
	.type	.Lubsan_data73, @object
	.size	.Lubsan_data73, 40
.Lubsan_data73:
	.quad	.LC0
	.long	270
	.long	3
	.quad	0
	.long	0
	.long	0
	.long	1
	.zero	4
	.zero	56
	.align 32
	.type	.Lubsan_data72, @object
	.size	.Lubsan_data72, 40
.Lubsan_data72:
	.quad	.LC0
	.long	269
	.long	3
	.quad	0
	.long	0
	.long	0
	.long	1
	.zero	4
	.zero	56
	.align 32
	.type	.Lubsan_data71, @object
	.size	.Lubsan_data71, 40
.Lubsan_data71:
	.quad	.LC0
	.long	267
	.long	3
	.quad	0
	.long	0
	.long	0
	.long	4
	.zero	4
	.zero	56
	.align 32
	.type	.Lubsan_data70, @object
	.size	.Lubsan_data70, 40
.Lubsan_data70:
	.quad	.LC0
	.long	267
	.long	3
	.quad	0
	.long	0
	.long	0
	.long	1
	.zero	4
	.zero	56
	.align 32
	.type	.Lubsan_data69, @object
	.size	.Lubsan_data69, 40
.Lubsan_data69:
	.quad	.LC0
	.long	262
	.long	3
	.quad	0
	.long	0
	.long	0
	.long	1
	.zero	4
	.zero	56
	.align 32
	.type	.Lubsan_data68, @object
	.size	.Lubsan_data68, 40
.Lubsan_data68:
	.quad	.LC0
	.long	261
	.long	3
	.quad	0
	.long	0
	.long	0
	.long	1
	.zero	4
	.zero	56
	.align 32
	.type	.Lubsan_data66, @object
	.size	.Lubsan_data66, 40
.Lubsan_data66:
	.quad	.LC0
	.long	260
	.long	3
	.quad	0
	.long	0
	.long	0
	.long	1
	.zero	4
	.zero	56
	.align 32
	.type	.Lubsan_data65, @object
	.size	.Lubsan_data65, 40
.Lubsan_data65:
	.quad	.LC0
	.long	260
	.long	170
	.quad	0
	.long	0
	.long	0
	.long	1
	.zero	4
	.zero	56
	.align 32
	.type	.Lubsan_data64, @object
	.size	.Lubsan_data64, 40
.Lubsan_data64:
	.quad	.LC0
	.long	258
	.long	5
	.quad	0
	.long	0
	.long	0
	.long	4
	.zero	4
	.zero	56
	.align 32
	.type	.Lubsan_data63, @object
	.size	.Lubsan_data63, 40
.Lubsan_data63:
	.quad	.LC0
	.long	258
	.long	5
	.quad	0
	.long	0
	.long	0
	.long	1
	.zero	4
	.zero	56
	.align 32
	.type	.Lubsan_data62, @object
	.size	.Lubsan_data62, 40
.Lubsan_data62:
	.quad	.LC0
	.long	237
	.long	57
	.quad	0
	.long	0
	.long	0
	.long	1
	.zero	4
	.zero	56
	.align 32
	.type	.Lubsan_data61, @object
	.size	.Lubsan_data61, 40
.Lubsan_data61:
	.quad	.LC0
	.long	239
	.long	16
	.quad	0
	.long	0
	.long	0
	.long	1
	.zero	4
	.zero	56
	.align 32
	.type	.Lubsan_data60, @object
	.size	.Lubsan_data60, 40
.Lubsan_data60:
	.quad	.LC0
	.long	230
	.long	3
	.quad	0
	.long	0
	.long	0
	.long	1
	.zero	4
	.zero	56
	.align 32
	.type	.Lubsan_data59, @object
	.size	.Lubsan_data59, 40
.Lubsan_data59:
	.quad	.LC0
	.long	229
	.long	3
	.quad	0
	.long	0
	.long	0
	.long	1
	.zero	4
	.zero	56
	.align 32
	.type	.Lubsan_data58, @object
	.size	.Lubsan_data58, 40
.Lubsan_data58:
	.quad	.LC0
	.long	227
	.long	3
	.quad	0
	.long	0
	.long	0
	.long	4
	.zero	4
	.zero	56
	.align 32
	.type	.Lubsan_data57, @object
	.size	.Lubsan_data57, 40
.Lubsan_data57:
	.quad	.LC0
	.long	227
	.long	3
	.quad	0
	.long	0
	.long	0
	.long	1
	.zero	4
	.zero	56
	.align 32
	.type	.Lubsan_data56, @object
	.size	.Lubsan_data56, 40
.Lubsan_data56:
	.quad	.LC0
	.long	222
	.long	92
	.quad	0
	.long	0
	.long	0
	.long	1
	.zero	4
	.zero	56
	.align 32
	.type	.Lubsan_data55, @object
	.size	.Lubsan_data55, 40
.Lubsan_data55:
	.quad	.LC0
	.long	222
	.long	5
	.quad	0
	.long	0
	.long	0
	.long	1
	.zero	4
	.zero	56
	.align 32
	.type	.Lubsan_data53, @object
	.size	.Lubsan_data53, 40
.Lubsan_data53:
	.quad	.LC0
	.long	221
	.long	3
	.quad	0
	.long	0
	.long	0
	.long	1
	.zero	4
	.zero	56
	.align 32
	.type	.Lubsan_data52, @object
	.size	.Lubsan_data52, 40
.Lubsan_data52:
	.quad	.LC0
	.long	221
	.long	167
	.quad	0
	.long	0
	.long	0
	.long	1
	.zero	4
	.zero	56
	.align 32
	.type	.Lubsan_data51, @object
	.size	.Lubsan_data51, 40
.Lubsan_data51:
	.quad	.LC0
	.long	203
	.long	57
	.quad	0
	.long	0
	.long	0
	.long	1
	.zero	4
	.zero	56
	.align 32
	.type	.Lubsan_data50, @object
	.size	.Lubsan_data50, 40
.Lubsan_data50:
	.quad	.LC0
	.long	205
	.long	16
	.quad	0
	.long	0
	.long	0
	.long	1
	.zero	4
	.zero	56
	.align 32
	.type	.Lubsan_data49, @object
	.size	.Lubsan_data49, 40
.Lubsan_data49:
	.quad	.LC0
	.long	293
	.long	93
	.quad	0
	.long	0
	.long	0
	.long	1
	.zero	4
	.zero	56
	.align 32
	.type	.Lubsan_data48, @object
	.size	.Lubsan_data48, 40
.Lubsan_data48:
	.quad	.LC0
	.long	293
	.long	5
	.quad	0
	.long	0
	.long	0
	.long	1
	.zero	4
	.zero	56
	.align 32
	.type	.Lubsan_data46, @object
	.size	.Lubsan_data46, 40
.Lubsan_data46:
	.quad	.LC0
	.long	292
	.long	3
	.quad	0
	.long	0
	.long	0
	.long	1
	.zero	4
	.zero	56
	.align 32
	.type	.Lubsan_data45, @object
	.size	.Lubsan_data45, 40
.Lubsan_data45:
	.quad	.LC0
	.long	292
	.long	164
	.quad	0
	.long	0
	.long	0
	.long	1
	.zero	4
	.zero	56
	.align 32
	.type	.Lubsan_data44, @object
	.size	.Lubsan_data44, 40
.Lubsan_data44:
	.quad	.LC0
	.long	277
	.long	57
	.quad	0
	.long	0
	.long	0
	.long	1
	.zero	4
	.zero	56
	.align 32
	.type	.Lubsan_data43, @object
	.size	.Lubsan_data43, 40
.Lubsan_data43:
	.quad	.LC0
	.long	97
	.long	3
	.quad	0
	.long	0
	.long	0
	.long	1
	.zero	4
	.zero	56
	.align 32
	.type	.Lubsan_data42, @object
	.size	.Lubsan_data42, 40
.Lubsan_data42:
	.quad	.LC0
	.long	96
	.long	5
	.quad	0
	.long	0
	.long	0
	.long	1
	.zero	4
	.zero	56
	.align 32
	.type	.Lubsan_data41, @object
	.size	.Lubsan_data41, 40
.Lubsan_data41:
	.quad	.LC0
	.long	94
	.long	5
	.quad	0
	.long	0
	.long	0
	.long	1
	.zero	4
	.zero	56
	.align 32
	.type	.Lubsan_data39, @object
	.size	.Lubsan_data39, 40
.Lubsan_data39:
	.quad	.LC0
	.long	92
	.long	3
	.quad	0
	.long	0
	.long	0
	.long	1
	.zero	4
	.zero	56
	.align 32
	.type	.Lubsan_data38, @object
	.size	.Lubsan_data38, 40
.Lubsan_data38:
	.quad	.LC0
	.long	92
	.long	171
	.quad	0
	.long	0
	.long	0
	.long	1
	.zero	4
	.zero	56
	.align 32
	.type	.Lubsan_data37, @object
	.size	.Lubsan_data37, 40
.Lubsan_data37:
	.quad	.LC0
	.long	86
	.long	57
	.quad	0
	.long	0
	.long	0
	.long	1
	.zero	4
	.zero	56
	.align 32
	.type	.Lubsan_data36, @object
	.size	.Lubsan_data36, 40
.Lubsan_data36:
	.quad	.LC0
	.long	182
	.long	93
	.quad	0
	.long	0
	.long	0
	.long	1
	.zero	4
	.zero	56
	.align 32
	.type	.Lubsan_data35, @object
	.size	.Lubsan_data35, 40
.Lubsan_data35:
	.quad	.LC0
	.long	182
	.long	5
	.quad	0
	.long	0
	.long	0
	.long	1
	.zero	4
	.zero	56
	.align 32
	.type	.Lubsan_data33, @object
	.size	.Lubsan_data33, 40
.Lubsan_data33:
	.quad	.LC0
	.long	181
	.long	3
	.quad	0
	.long	0
	.long	0
	.long	1
	.zero	4
	.zero	56
	.align 32
	.type	.Lubsan_data32, @object
	.size	.Lubsan_data32, 40
.Lubsan_data32:
	.quad	.LC0
	.long	181
	.long	158
	.quad	0
	.long	0
	.long	0
	.long	1
	.zero	4
	.zero	56
	.align 32
	.type	.Lubsan_data31, @object
	.size	.Lubsan_data31, 40
.Lubsan_data31:
	.quad	.LC0
	.long	170
	.long	57
	.quad	0
	.long	0
	.long	0
	.long	1
	.zero	4
	.zero	56
	.align 32
	.type	.Lubsan_data30, @object
	.size	.Lubsan_data30, 40
.Lubsan_data30:
	.quad	.LC0
	.long	163
	.long	94
	.quad	0
	.long	0
	.long	0
	.long	1
	.zero	4
	.zero	56
	.align 32
	.type	.Lubsan_data29, @object
	.size	.Lubsan_data29, 40
.Lubsan_data29:
	.quad	.LC0
	.long	163
	.long	5
	.quad	0
	.long	0
	.long	0
	.long	1
	.zero	4
	.zero	56
	.align 32
	.type	.Lubsan_data27, @object
	.size	.Lubsan_data27, 40
.Lubsan_data27:
	.quad	.LC0
	.long	162
	.long	3
	.quad	0
	.long	0
	.long	0
	.long	1
	.zero	4
	.zero	56
	.align 32
	.type	.Lubsan_data26, @object
	.size	.Lubsan_data26, 40
.Lubsan_data26:
	.quad	.LC0
	.long	162
	.long	165
	.quad	0
	.long	0
	.long	0
	.long	1
	.zero	4
	.zero	56
	.align 32
	.type	.Lubsan_data25, @object
	.size	.Lubsan_data25, 40
.Lubsan_data25:
	.quad	.LC0
	.long	154
	.long	57
	.quad	0
	.long	0
	.long	0
	.long	1
	.zero	4
	.zero	56
	.align 32
	.type	.Lubsan_data24, @object
	.size	.Lubsan_data24, 40
.Lubsan_data24:
	.quad	.LC0
	.long	312
	.long	93
	.quad	0
	.long	0
	.long	0
	.long	1
	.zero	4
	.zero	56
	.align 32
	.type	.Lubsan_data23, @object
	.size	.Lubsan_data23, 40
.Lubsan_data23:
	.quad	.LC0
	.long	312
	.long	5
	.quad	0
	.long	0
	.long	0
	.long	1
	.zero	4
	.zero	56
	.align 32
	.type	.Lubsan_data21, @object
	.size	.Lubsan_data21, 40
.Lubsan_data21:
	.quad	.LC0
	.long	311
	.long	3
	.quad	0
	.long	0
	.long	0
	.long	1
	.zero	4
	.zero	56
	.align 32
	.type	.Lubsan_data20, @object
	.size	.Lubsan_data20, 40
.Lubsan_data20:
	.quad	.LC0
	.long	311
	.long	170
	.quad	0
	.long	0
	.long	0
	.long	1
	.zero	4
	.zero	56
	.align 32
	.type	.Lubsan_data19, @object
	.size	.Lubsan_data19, 40
.Lubsan_data19:
	.quad	.LC0
	.long	300
	.long	57
	.quad	0
	.long	0
	.long	0
	.long	1
	.zero	4
	.zero	56
	.align 32
	.type	.Lubsan_data18, @object
	.size	.Lubsan_data18, 40
.Lubsan_data18:
	.quad	.LC0
	.long	146
	.long	94
	.quad	0
	.long	0
	.long	0
	.long	1
	.zero	4
	.zero	56
	.align 32
	.type	.Lubsan_data17, @object
	.size	.Lubsan_data17, 40
.Lubsan_data17:
	.quad	.LC0
	.long	146
	.long	5
	.quad	0
	.long	0
	.long	0
	.long	1
	.zero	4
	.zero	56
	.align 32
	.type	.Lubsan_data15, @object
	.size	.Lubsan_data15, 40
.Lubsan_data15:
	.quad	.LC0
	.long	145
	.long	3
	.quad	0
	.long	0
	.long	0
	.long	1
	.zero	4
	.zero	56
	.align 32
	.type	.Lubsan_data14, @object
	.size	.Lubsan_data14, 40
.Lubsan_data14:
	.quad	.LC0
	.long	145
	.long	169
	.quad	0
	.long	0
	.long	0
	.long	1
	.zero	4
	.zero	56
	.align 32
	.type	.Lubsan_data13, @object
	.size	.Lubsan_data13, 40
.Lubsan_data13:
	.quad	.LC0
	.long	137
	.long	57
	.quad	0
	.long	0
	.long	0
	.long	1
	.zero	4
	.zero	56
	.align 32
	.type	.Lubsan_data12, @object
	.size	.Lubsan_data12, 40
.Lubsan_data12:
	.quad	.LC0
	.long	64
	.long	35
	.quad	0
	.long	0
	.long	0
	.long	1
	.zero	4
	.zero	56
	.align 32
	.type	.Lubsan_data11, @object
	.size	.Lubsan_data11, 40
.Lubsan_data11:
	.quad	.LC0
	.long	73
	.long	57
	.quad	0
	.long	0
	.long	0
	.long	1
	.zero	4
	.zero	56
	.section	.rodata
	.align 32
	.type	__func__.0, @object
	.size	__func__.0, 13
__func__.0:
	.string	"lex_ctx_free"
	.zero	51
	.align 32
	.type	__func__.1, @object
	.size	__func__.1, 22
__func__.1:
	.string	"lex_ctx_create_lexeme"
	.zero	42
	.align 32
	.type	__func__.2, @object
	.size	__func__.2, 12
__func__.2:
	.string	"lex_ctx_new"
	.zero	52
	.bss
	.align 32
	.type	g_comp_args, @object
	.size	g_comp_args, 8
g_comp_args:
	.zero	64
	.align 32
	.type	g_diagnostics, @object
	.size	g_diagnostics, 8
g_diagnostics:
	.zero	64
	.section	.data.rel.local
	.align 16
	.type	.LASANLOC1, @object
	.size	.LASANLOC1, 16
.LASANLOC1:
	.quad	.LC0
	.long	500
	.long	20
	.align 16
	.type	.LASANLOC2, @object
	.size	.LASANLOC2, 16
.LASANLOC2:
	.quad	.LC0
	.long	63
	.long	40
	.align 16
	.type	.LASANLOC3, @object
	.size	.LASANLOC3, 16
.LASANLOC3:
	.quad	.LC0
	.long	461
	.long	38
	.align 16
	.type	.LASANLOC4, @object
	.size	.LASANLOC4, 16
.LASANLOC4:
	.quad	.LC0
	.long	56
	.long	33
	.align 16
	.type	.LASANLOC5, @object
	.size	.LASANLOC5, 16
.LASANLOC5:
	.quad	.LC0
	.long	55
	.long	16
	.section	.rodata.str1.1,"aMS",@progbits,1
.LC46:
	.string	"*.Lubsan_data297"
.LC47:
	.string	"*.Lubsan_data296"
.LC48:
	.string	"*.Lubsan_data295"
.LC49:
	.string	"*.Lubsan_data294"
.LC50:
	.string	"*.Lubsan_data293"
.LC51:
	.string	"*.Lubsan_data292"
.LC52:
	.string	"*.Lubsan_data291"
.LC53:
	.string	"*.Lubsan_data290"
.LC54:
	.string	"*.Lubsan_data289"
.LC55:
	.string	"*.Lubsan_data288"
.LC56:
	.string	"*.Lubsan_data287"
.LC57:
	.string	"*.Lubsan_type8"
.LC58:
	.string	"*.Lubsan_data286"
.LC59:
	.string	"*.Lubsan_data285"
.LC60:
	.string	"*.Lubsan_data284"
.LC61:
	.string	"*.Lubsan_data283"
.LC62:
	.string	"*.Lubsan_data282"
.LC63:
	.string	"*.Lubsan_data281"
.LC64:
	.string	"*.Lubsan_data280"
.LC65:
	.string	"*.Lubsan_data279"
.LC66:
	.string	"*.Lubsan_data278"
.LC67:
	.string	"*.Lubsan_data277"
.LC68:
	.string	"*.Lubsan_data276"
.LC69:
	.string	"*.Lubsan_data275"
.LC70:
	.string	"*.Lubsan_data274"
.LC71:
	.string	"*.Lubsan_data273"
.LC72:
	.string	"*.Lubsan_data272"
.LC73:
	.string	"*.Lubsan_data271"
.LC74:
	.string	"*.Lubsan_data270"
.LC75:
	.string	"*.Lubsan_data269"
.LC76:
	.string	"*.Lubsan_data268"
.LC77:
	.string	"*.Lubsan_data267"
.LC78:
	.string	"*.Lubsan_data266"
.LC79:
	.string	"*.Lubsan_data265"
.LC80:
	.string	"*.Lubsan_data264"
.LC81:
	.string	"*.Lubsan_data263"
.LC82:
	.string	"*.Lubsan_data262"
.LC83:
	.string	"*.Lubsan_data261"
.LC84:
	.string	"*.Lubsan_data260"
.LC85:
	.string	"*.Lubsan_data259"
.LC86:
	.string	"*.Lubsan_data258"
.LC87:
	.string	"*.Lubsan_data257"
.LC88:
	.string	"*.Lubsan_data256"
.LC89:
	.string	"*.Lubsan_data255"
.LC90:
	.string	"*.Lubsan_data254"
.LC91:
	.string	"*.Lubsan_data253"
.LC92:
	.string	"*.Lubsan_data252"
.LC93:
	.string	"*.Lubsan_data251"
.LC94:
	.string	"*.Lubsan_data250"
.LC95:
	.string	"*.Lubsan_data249"
.LC96:
	.string	"*.Lubsan_data248"
.LC97:
	.string	"*.Lubsan_data247"
.LC98:
	.string	"*.Lubsan_data246"
.LC99:
	.string	"*.Lubsan_data245"
.LC100:
	.string	"*.Lubsan_data244"
.LC101:
	.string	"*.Lubsan_data243"
.LC102:
	.string	"*.Lubsan_data242"
.LC103:
	.string	"*.Lubsan_data241"
.LC104:
	.string	"*.Lubsan_data240"
.LC105:
	.string	"*.Lubsan_data239"
.LC106:
	.string	"*.Lubsan_data238"
.LC107:
	.string	"*.Lubsan_data237"
.LC108:
	.string	"*.Lubsan_data236"
.LC109:
	.string	"*.Lubsan_data235"
.LC110:
	.string	"*.Lubsan_data234"
.LC111:
	.string	"*.Lubsan_data233"
.LC112:
	.string	"*.Lubsan_data232"
.LC113:
	.string	"*.Lubsan_data231"
.LC114:
	.string	"*.Lubsan_data230"
.LC115:
	.string	"*.Lubsan_data229"
.LC116:
	.string	"*.Lubsan_data228"
.LC117:
	.string	"*.Lubsan_data227"
.LC118:
	.string	"*.Lubsan_data226"
.LC119:
	.string	"*.Lubsan_data225"
.LC120:
	.string	"*.Lubsan_data224"
.LC121:
	.string	"*.Lubsan_type7"
.LC122:
	.string	"*.Lubsan_data223"
.LC123:
	.string	"*.Lubsan_type6"
.LC124:
	.string	"*.Lubsan_data222"
.LC125:
	.string	"*.Lubsan_data221"
.LC126:
	.string	"*.Lubsan_data220"
.LC127:
	.string	"*.Lubsan_type5"
.LC128:
	.string	"*.Lubsan_data219"
.LC129:
	.string	"*.Lubsan_data218"
.LC130:
	.string	"*.Lubsan_data217"
.LC131:
	.string	"*.Lubsan_data216"
.LC132:
	.string	"*.Lubsan_data215"
.LC133:
	.string	"*.Lubsan_data214"
.LC134:
	.string	"*.Lubsan_data213"
.LC135:
	.string	"*.Lubsan_data212"
.LC136:
	.string	"*.Lubsan_data211"
.LC137:
	.string	"*.Lubsan_data210"
.LC138:
	.string	"*.Lubsan_data209"
.LC139:
	.string	"*.Lubsan_data208"
.LC140:
	.string	"*.Lubsan_data207"
.LC141:
	.string	"*.Lubsan_data206"
.LC142:
	.string	"*.Lubsan_data205"
.LC143:
	.string	"*.Lubsan_data204"
.LC144:
	.string	"*.Lubsan_data203"
.LC145:
	.string	"*.Lubsan_data202"
.LC146:
	.string	"*.Lubsan_data201"
.LC147:
	.string	"*.Lubsan_data200"
.LC148:
	.string	"*.Lubsan_data199"
.LC149:
	.string	"*.Lubsan_data198"
.LC150:
	.string	"*.Lubsan_data197"
.LC151:
	.string	"*.Lubsan_data196"
.LC152:
	.string	"*.Lubsan_data195"
.LC153:
	.string	"*.Lubsan_data194"
.LC154:
	.string	"*.Lubsan_data193"
.LC155:
	.string	"*.Lubsan_data192"
.LC156:
	.string	"*.Lubsan_data191"
.LC157:
	.string	"*.Lubsan_data190"
.LC158:
	.string	"*.Lubsan_data189"
.LC159:
	.string	"*.Lubsan_data188"
.LC160:
	.string	"*.Lubsan_data187"
.LC161:
	.string	"*.Lubsan_data186"
.LC162:
	.string	"*.Lubsan_data185"
.LC163:
	.string	"*.Lubsan_data184"
.LC164:
	.string	"*.Lubsan_data183"
.LC165:
	.string	"*.Lubsan_data182"
.LC166:
	.string	"*.Lubsan_data181"
.LC167:
	.string	"*.Lubsan_type4"
.LC168:
	.string	"*.Lubsan_data180"
.LC169:
	.string	"*.Lubsan_data179"
.LC170:
	.string	"*.Lubsan_type3"
.LC171:
	.string	"*.Lubsan_data178"
.LC172:
	.string	"*.Lubsan_data177"
.LC173:
	.string	"*.Lubsan_data176"
.LC174:
	.string	"*.Lubsan_data175"
.LC175:
	.string	"*.Lubsan_data174"
.LC176:
	.string	"*.Lubsan_type2"
.LC177:
	.string	"*.Lubsan_data173"
.LC178:
	.string	"*.Lubsan_data172"
.LC179:
	.string	"*.Lubsan_type1"
.LC180:
	.string	"*.Lubsan_data171"
.LC181:
	.string	"*.Lubsan_data170"
.LC182:
	.string	"*.Lubsan_data169"
.LC183:
	.string	"*.Lubsan_data168"
.LC184:
	.string	"*.Lubsan_data167"
.LC185:
	.string	"*.Lubsan_data164"
.LC186:
	.string	"*.Lubsan_data163"
.LC187:
	.string	"*.Lubsan_data161"
.LC188:
	.string	"*.Lubsan_data160"
.LC189:
	.string	"*.Lubsan_data159"
.LC190:
	.string	"*.Lubsan_data158"
.LC191:
	.string	"*.Lubsan_data157"
.LC192:
	.string	"*.Lubsan_data155"
.LC193:
	.string	"*.Lubsan_data154"
.LC194:
	.string	"*.Lubsan_data153"
.LC195:
	.string	"*.Lubsan_data152"
.LC196:
	.string	"*.Lubsan_data151"
.LC197:
	.string	"*.Lubsan_data150"
.LC198:
	.string	"*.Lubsan_data148"
.LC199:
	.string	"*.Lubsan_data147"
.LC200:
	.string	"*.Lubsan_data145"
.LC201:
	.string	"*.Lubsan_data144"
.LC202:
	.string	"*.Lubsan_data143"
.LC203:
	.string	"*.Lubsan_data142"
.LC204:
	.string	"*.Lubsan_data141"
.LC205:
	.string	"*.Lubsan_data139"
.LC206:
	.string	"*.Lubsan_data138"
.LC207:
	.string	"*.Lubsan_data137"
.LC208:
	.string	"*.Lubsan_data136"
.LC209:
	.string	"*.Lubsan_data135"
.LC210:
	.string	"*.Lubsan_data134"
.LC211:
	.string	"*.Lubsan_data132"
.LC212:
	.string	"*.Lubsan_data130"
.LC213:
	.string	"*.Lubsan_data128"
.LC214:
	.string	"*.Lubsan_data126"
.LC215:
	.string	"*.Lubsan_data124"
.LC216:
	.string	"*.Lubsan_data122"
.LC217:
	.string	"*.Lubsan_data120"
.LC218:
	.string	"*.Lubsan_data118"
.LC219:
	.string	"*.Lubsan_data116"
.LC220:
	.string	"*.Lubsan_data114"
.LC221:
	.string	"*.Lubsan_data112"
.LC222:
	.string	"*.Lubsan_data110"
.LC223:
	.string	"*.Lubsan_data108"
.LC224:
	.string	"*.Lubsan_data106"
.LC225:
	.string	"*.Lubsan_data104"
.LC226:
	.string	"*.Lubsan_data102"
.LC227:
	.string	"*.Lubsan_data100"
.LC228:
	.string	"*.Lubsan_data98"
.LC229:
	.string	"*.Lubsan_data96"
.LC230:
	.string	"*.Lubsan_data94"
.LC231:
	.string	"*.Lubsan_data92"
.LC232:
	.string	"*.Lubsan_data90"
.LC233:
	.string	"*.Lubsan_data89"
.LC234:
	.string	"*.Lubsan_data88"
.LC235:
	.string	"*.Lubsan_data87"
.LC236:
	.string	"*.Lubsan_data86"
.LC237:
	.string	"*.Lubsan_data85"
.LC238:
	.string	"*.Lubsan_data83"
.LC239:
	.string	"*.Lubsan_data82"
.LC240:
	.string	"*.Lubsan_data80"
.LC241:
	.string	"*.Lubsan_data79"
.LC242:
	.string	"*.Lubsan_data78"
.LC243:
	.string	"*.Lubsan_data77"
.LC244:
	.string	"*.Lubsan_data76"
.LC245:
	.string	"*.Lubsan_data75"
.LC246:
	.string	"*.Lubsan_data74"
.LC247:
	.string	"*.Lubsan_data73"
.LC248:
	.string	"*.Lubsan_data72"
.LC249:
	.string	"*.Lubsan_data71"
.LC250:
	.string	"*.Lubsan_data70"
.LC251:
	.string	"*.Lubsan_data69"
.LC252:
	.string	"*.Lubsan_data68"
.LC253:
	.string	"*.Lubsan_data66"
.LC254:
	.string	"*.Lubsan_data65"
.LC255:
	.string	"*.Lubsan_data64"
.LC256:
	.string	"*.Lubsan_data63"
.LC257:
	.string	"*.Lubsan_data62"
.LC258:
	.string	"*.Lubsan_data61"
.LC259:
	.string	"*.Lubsan_data60"
.LC260:
	.string	"*.Lubsan_data59"
.LC261:
	.string	"*.Lubsan_data58"
.LC262:
	.string	"*.Lubsan_data57"
.LC263:
	.string	"*.Lubsan_data56"
.LC264:
	.string	"*.Lubsan_data55"
.LC265:
	.string	"*.Lubsan_data53"
.LC266:
	.string	"*.Lubsan_data52"
.LC267:
	.string	"*.Lubsan_data51"
.LC268:
	.string	"*.Lubsan_data50"
.LC269:
	.string	"*.Lubsan_data49"
.LC270:
	.string	"*.Lubsan_data48"
.LC271:
	.string	"*.Lubsan_data46"
.LC272:
	.string	"*.Lubsan_data45"
.LC273:
	.string	"*.Lubsan_data44"
.LC274:
	.string	"*.Lubsan_data43"
.LC275:
	.string	"*.Lubsan_data42"
.LC276:
	.string	"*.Lubsan_data41"
.LC277:
	.string	"*.Lubsan_data39"
.LC278:
	.string	"*.Lubsan_data38"
.LC279:
	.string	"*.Lubsan_data37"
.LC280:
	.string	"*.Lubsan_data36"
.LC281:
	.string	"*.Lubsan_data35"
.LC282:
	.string	"*.Lubsan_data33"
.LC283:
	.string	"*.Lubsan_data32"
.LC284:
	.string	"*.Lubsan_data31"
.LC285:
	.string	"*.Lubsan_data30"
.LC286:
	.string	"*.Lubsan_data29"
.LC287:
	.string	"*.Lubsan_data27"
.LC288:
	.string	"*.Lubsan_data26"
.LC289:
	.string	"*.Lubsan_data25"
.LC290:
	.string	"*.Lubsan_data24"
.LC291:
	.string	"*.Lubsan_data23"
.LC292:
	.string	"*.Lubsan_data21"
.LC293:
	.string	"*.Lubsan_data20"
.LC294:
	.string	"*.Lubsan_data19"
.LC295:
	.string	"*.Lubsan_data18"
.LC296:
	.string	"*.Lubsan_data17"
.LC297:
	.string	"*.Lubsan_data15"
.LC298:
	.string	"*.Lubsan_data14"
.LC299:
	.string	"*.Lubsan_data13"
.LC300:
	.string	"*.Lubsan_data12"
.LC301:
	.string	"*.Lubsan_data11"
.LC302:
	.string	"__func__"
.LC303:
	.string	"g_comp_args"
.LC304:
	.string	"g_diagnostics"
.LC305:
	.string	"*.LC27"
.LC306:
	.string	"*.LC30"
.LC307:
	.string	"*.LC37"
.LC308:
	.string	"*.LC35"
.LC309:
	.string	"*.LC43"
.LC310:
	.string	"*.LC20"
.LC311:
	.string	"*.LC24"
.LC312:
	.string	"*.LC14"
.LC313:
	.string	"*.LC10"
.LC314:
	.string	"*.LC29"
.LC315:
	.string	"*.LC6"
.LC316:
	.string	"*.LC28"
.LC317:
	.string	"*.LC42"
.LC318:
	.string	"*.LC34"
.LC319:
	.string	"*.LC38"
.LC320:
	.string	"*.LC33"
.LC321:
	.string	"*.LC18"
.LC322:
	.string	"*.LC15"
.LC323:
	.string	"*.LC2"
.LC324:
	.string	"*.LC22"
.LC325:
	.string	"*.LC40"
.LC326:
	.string	"*.LC36"
.LC327:
	.string	"*.LC21"
.LC328:
	.string	"*.LC39"
.LC329:
	.string	"*.LC13"
.LC330:
	.string	"*.LC11"
.LC331:
	.string	"*.LC1"
.LC332:
	.string	"*.LC9"
.LC333:
	.string	"*.LC12"
.LC334:
	.string	"*.LC7"
.LC335:
	.string	"*.LC16"
.LC336:
	.string	"*.LC0"
.LC337:
	.string	"*.LC17"
.LC338:
	.string	"*.LC45"
.LC339:
	.string	"*.LC4"
.LC340:
	.string	"*.LC44"
.LC341:
	.string	"*.LC25"
.LC342:
	.string	"*.LC41"
.LC343:
	.string	"*.LC19"
.LC344:
	.string	"*.LC3"
.LC345:
	.string	"*.LC8"
.LC346:
	.string	"*.LC5"
.LC347:
	.string	"*.LC23"
.LC348:
	.string	"*.LC32"
.LC349:
	.string	"*.LC26"
.LC350:
	.string	"*.LC31"
	.section	.data.rel.local
	.align 32
	.type	.LASAN0, @object
	.size	.LASAN0, 19648
.LASAN0:
	.quad	.Lubsan_data297
	.quad	16
	.quad	64
	.quad	.LC46
	.quad	.LC0
	.quad	0
	.quad	0
	.quad	0
	.quad	.Lubsan_data296
	.quad	32
	.quad	64
	.quad	.LC47
	.quad	.LC0
	.quad	0
	.quad	0
	.quad	0
	.quad	.Lubsan_data295
	.quad	32
	.quad	64
	.quad	.LC48
	.quad	.LC0
	.quad	0
	.quad	0
	.quad	0
	.quad	.Lubsan_data294
	.quad	32
	.quad	64
	.quad	.LC49
	.quad	.LC0
	.quad	0
	.quad	0
	.quad	0
	.quad	.Lubsan_data293
	.quad	32
	.quad	64
	.quad	.LC50
	.quad	.LC0
	.quad	0
	.quad	0
	.quad	0
	.quad	.Lubsan_data292
	.quad	32
	.quad	64
	.quad	.LC51
	.quad	.LC0
	.quad	0
	.quad	0
	.quad	0
	.quad	.Lubsan_data291
	.quad	16
	.quad	64
	.quad	.LC52
	.quad	.LC0
	.quad	0
	.quad	0
	.quad	0
	.quad	.Lubsan_data290
	.quad	32
	.quad	64
	.quad	.LC53
	.quad	.LC0
	.quad	0
	.quad	0
	.quad	0
	.quad	.Lubsan_data289
	.quad	32
	.quad	64
	.quad	.LC54
	.quad	.LC0
	.quad	0
	.quad	0
	.quad	0
	.quad	.Lubsan_data288
	.quad	16
	.quad	64
	.quad	.LC55
	.quad	.LC0
	.quad	0
	.quad	0
	.quad	0
	.quad	.Lubsan_data287
	.quad	32
	.quad	64
	.quad	.LC56
	.quad	.LC0
	.quad	0
	.quad	0
	.quad	0
	.quad	.Lubsan_type8
	.quad	24
	.quad	64
	.quad	.LC57
	.quad	.LC0
	.quad	0
	.quad	0
	.quad	0
	.quad	.Lubsan_data286
	.quad	32
	.quad	64
	.quad	.LC58
	.quad	.LC0
	.quad	0
	.quad	0
	.quad	0
	.quad	.Lubsan_data285
	.quad	32
	.quad	64
	.quad	.LC59
	.quad	.LC0
	.quad	0
	.quad	0
	.quad	0
	.quad	.Lubsan_data284
	.quad	32
	.quad	64
	.quad	.LC60
	.quad	.LC0
	.quad	0
	.quad	0
	.quad	0
	.quad	.Lubsan_data283
	.quad	32
	.quad	64
	.quad	.LC61
	.quad	.LC0
	.quad	0
	.quad	0
	.quad	0
	.quad	.Lubsan_data282
	.quad	16
	.quad	64
	.quad	.LC62
	.quad	.LC0
	.quad	0
	.quad	0
	.quad	0
	.quad	.Lubsan_data281
	.quad	32
	.quad	64
	.quad	.LC63
	.quad	.LC0
	.quad	0
	.quad	0
	.quad	0
	.quad	.Lubsan_data280
	.quad	32
	.quad	64
	.quad	.LC64
	.quad	.LC0
	.quad	0
	.quad	0
	.quad	0
	.quad	.Lubsan_data279
	.quad	32
	.quad	64
	.quad	.LC65
	.quad	.LC0
	.quad	0
	.quad	0
	.quad	0
	.quad	.Lubsan_data278
	.quad	32
	.quad	64
	.quad	.LC66
	.quad	.LC0
	.quad	0
	.quad	0
	.quad	0
	.quad	.Lubsan_data277
	.quad	16
	.quad	64
	.quad	.LC67
	.quad	.LC0
	.quad	0
	.quad	0
	.quad	0
	.quad	.Lubsan_data276
	.quad	32
	.quad	64
	.quad	.LC68
	.quad	.LC0
	.quad	0
	.quad	0
	.quad	0
	.quad	.Lubsan_data275
	.quad	32
	.quad	64
	.quad	.LC69
	.quad	.LC0
	.quad	0
	.quad	0
	.quad	0
	.quad	.Lubsan_data274
	.quad	16
	.quad	64
	.quad	.LC70
	.quad	.LC0
	.quad	0
	.quad	0
	.quad	0
	.quad	.Lubsan_data273
	.quad	32
	.quad	64
	.quad	.LC71
	.quad	.LC0
	.quad	0
	.quad	0
	.quad	0
	.quad	.Lubsan_data272
	.quad	16
	.quad	64
	.quad	.LC72
	.quad	.LC0
	.quad	0
	.quad	0
	.quad	0
	.quad	.Lubsan_data271
	.quad	32
	.quad	64
	.quad	.LC73
	.quad	.LC0
	.quad	0
	.quad	0
	.quad	0
	.quad	.Lubsan_data270
	.quad	32
	.quad	64
	.quad	.LC74
	.quad	.LC0
	.quad	0
	.quad	0
	.quad	0
	.quad	.Lubsan_data269
	.quad	32
	.quad	64
	.quad	.LC75
	.quad	.LC0
	.quad	0
	.quad	0
	.quad	0
	.quad	.Lubsan_data268
	.quad	32
	.quad	64
	.quad	.LC76
	.quad	.LC0
	.quad	0
	.quad	0
	.quad	0
	.quad	.Lubsan_data267
	.quad	32
	.quad	64
	.quad	.LC77
	.quad	.LC0
	.quad	0
	.quad	0
	.quad	0
	.quad	.Lubsan_data266
	.quad	32
	.quad	64
	.quad	.LC78
	.quad	.LC0
	.quad	0
	.quad	0
	.quad	0
	.quad	.Lubsan_data265
	.quad	24
	.quad	64
	.quad	.LC79
	.quad	.LC0
	.quad	0
	.quad	0
	.quad	0
	.quad	.Lubsan_data264
	.quad	24
	.quad	64
	.quad	.LC80
	.quad	.LC0
	.quad	0
	.quad	0
	.quad	0
	.quad	.Lubsan_data263
	.quad	32
	.quad	64
	.quad	.LC81
	.quad	.LC0
	.quad	0
	.quad	0
	.quad	0
	.quad	.Lubsan_data262
	.quad	16
	.quad	64
	.quad	.LC82
	.quad	.LC0
	.quad	0
	.quad	0
	.quad	0
	.quad	.Lubsan_data261
	.quad	32
	.quad	64
	.quad	.LC83
	.quad	.LC0
	.quad	0
	.quad	0
	.quad	0
	.quad	.Lubsan_data260
	.quad	16
	.quad	64
	.quad	.LC84
	.quad	.LC0
	.quad	0
	.quad	0
	.quad	0
	.quad	.Lubsan_data259
	.quad	32
	.quad	64
	.quad	.LC85
	.quad	.LC0
	.quad	0
	.quad	0
	.quad	0
	.quad	.Lubsan_data258
	.quad	16
	.quad	64
	.quad	.LC86
	.quad	.LC0
	.quad	0
	.quad	0
	.quad	0
	.quad	.Lubsan_data257
	.quad	32
	.quad	64
	.quad	.LC87
	.quad	.LC0
	.quad	0
	.quad	0
	.quad	0
	.quad	.Lubsan_data256
	.quad	16
	.quad	64
	.quad	.LC88
	.quad	.LC0
	.quad	0
	.quad	0
	.quad	0
	.quad	.Lubsan_data255
	.quad	32
	.quad	64
	.quad	.LC89
	.quad	.LC0
	.quad	0
	.quad	0
	.quad	0
	.quad	.Lubsan_data254
	.quad	32
	.quad	64
	.quad	.LC90
	.quad	.LC0
	.quad	0
	.quad	0
	.quad	0
	.quad	.Lubsan_data253
	.quad	32
	.quad	64
	.quad	.LC91
	.quad	.LC0
	.quad	0
	.quad	0
	.quad	0
	.quad	.Lubsan_data252
	.quad	32
	.quad	64
	.quad	.LC92
	.quad	.LC0
	.quad	0
	.quad	0
	.quad	0
	.quad	.Lubsan_data251
	.quad	24
	.quad	64
	.quad	.LC93
	.quad	.LC0
	.quad	0
	.quad	0
	.quad	0
	.quad	.Lubsan_data250
	.quad	32
	.quad	64
	.quad	.LC94
	.quad	.LC0
	.quad	0
	.quad	0
	.quad	0
	.quad	.Lubsan_data249
	.quad	32
	.quad	64
	.quad	.LC95
	.quad	.LC0
	.quad	0
	.quad	0
	.quad	0
	.quad	.Lubsan_data248
	.quad	16
	.quad	64
	.quad	.LC96
	.quad	.LC0
	.quad	0
	.quad	0
	.quad	0
	.quad	.Lubsan_data247
	.quad	32
	.quad	64
	.quad	.LC97
	.quad	.LC0
	.quad	0
	.quad	0
	.quad	0
	.quad	.Lubsan_data246
	.quad	16
	.quad	64
	.quad	.LC98
	.quad	.LC0
	.quad	0
	.quad	0
	.quad	0
	.quad	.Lubsan_data245
	.quad	32
	.quad	64
	.quad	.LC99
	.quad	.LC0
	.quad	0
	.quad	0
	.quad	0
	.quad	.Lubsan_data244
	.quad	32
	.quad	64
	.quad	.LC100
	.quad	.LC0
	.quad	0
	.quad	0
	.quad	0
	.quad	.Lubsan_data243
	.quad	32
	.quad	64
	.quad	.LC101
	.quad	.LC0
	.quad	0
	.quad	0
	.quad	0
	.quad	.Lubsan_data242
	.quad	24
	.quad	64
	.quad	.LC102
	.quad	.LC0
	.quad	0
	.quad	0
	.quad	0
	.quad	.Lubsan_data241
	.quad	32
	.quad	64
	.quad	.LC103
	.quad	.LC0
	.quad	0
	.quad	0
	.quad	0
	.quad	.Lubsan_data240
	.quad	32
	.quad	64
	.quad	.LC104
	.quad	.LC0
	.quad	0
	.quad	0
	.quad	0
	.quad	.Lubsan_data239
	.quad	16
	.quad	64
	.quad	.LC105
	.quad	.LC0
	.quad	0
	.quad	0
	.quad	0
	.quad	.Lubsan_data238
	.quad	32
	.quad	64
	.quad	.LC106
	.quad	.LC0
	.quad	0
	.quad	0
	.quad	0
	.quad	.Lubsan_data237
	.quad	16
	.quad	64
	.quad	.LC107
	.quad	.LC0
	.quad	0
	.quad	0
	.quad	0
	.quad	.Lubsan_data236
	.quad	32
	.quad	64
	.quad	.LC108
	.quad	.LC0
	.quad	0
	.quad	0
	.quad	0
	.quad	.Lubsan_data235
	.quad	32
	.quad	64
	.quad	.LC109
	.quad	.LC0
	.quad	0
	.quad	0
	.quad	0
	.quad	.Lubsan_data234
	.quad	32
	.quad	64
	.quad	.LC110
	.quad	.LC0
	.quad	0
	.quad	0
	.quad	0
	.quad	.Lubsan_data233
	.quad	32
	.quad	64
	.quad	.LC111
	.quad	.LC0
	.quad	0
	.quad	0
	.quad	0
	.quad	.Lubsan_data232
	.quad	16
	.quad	64
	.quad	.LC112
	.quad	.LC0
	.quad	0
	.quad	0
	.quad	0
	.quad	.Lubsan_data231
	.quad	32
	.quad	64
	.quad	.LC113
	.quad	.LC0
	.quad	0
	.quad	0
	.quad	0
	.quad	.Lubsan_data230
	.quad	16
	.quad	64
	.quad	.LC114
	.quad	.LC0
	.quad	0
	.quad	0
	.quad	0
	.quad	.Lubsan_data229
	.quad	32
	.quad	64
	.quad	.LC115
	.quad	.LC0
	.quad	0
	.quad	0
	.quad	0
	.quad	.Lubsan_data228
	.quad	32
	.quad	64
	.quad	.LC116
	.quad	.LC0
	.quad	0
	.quad	0
	.quad	0
	.quad	.Lubsan_data227
	.quad	32
	.quad	64
	.quad	.LC117
	.quad	.LC0
	.quad	0
	.quad	0
	.quad	0
	.quad	.Lubsan_data226
	.quad	16
	.quad	64
	.quad	.LC118
	.quad	.LC0
	.quad	0
	.quad	0
	.quad	0
	.quad	.Lubsan_data225
	.quad	32
	.quad	64
	.quad	.LC119
	.quad	.LC0
	.quad	0
	.quad	0
	.quad	0
	.quad	.Lubsan_data224
	.quad	24
	.quad	64
	.quad	.LC120
	.quad	.LC0
	.quad	0
	.quad	0
	.quad	0
	.quad	.Lubsan_type7
	.quad	15
	.quad	64
	.quad	.LC121
	.quad	.LC0
	.quad	0
	.quad	0
	.quad	0
	.quad	.Lubsan_data223
	.quad	24
	.quad	64
	.quad	.LC122
	.quad	.LC0
	.quad	0
	.quad	0
	.quad	0
	.quad	.Lubsan_type6
	.quad	10
	.quad	64
	.quad	.LC123
	.quad	.LC0
	.quad	0
	.quad	0
	.quad	0
	.quad	.Lubsan_data222
	.quad	32
	.quad	64
	.quad	.LC124
	.quad	.LC0
	.quad	0
	.quad	0
	.quad	0
	.quad	.Lubsan_data221
	.quad	16
	.quad	64
	.quad	.LC125
	.quad	.LC0
	.quad	0
	.quad	0
	.quad	0
	.quad	.Lubsan_data220
	.quad	32
	.quad	64
	.quad	.LC126
	.quad	.LC0
	.quad	0
	.quad	0
	.quad	0
	.quad	.Lubsan_type5
	.quad	30
	.quad	64
	.quad	.LC127
	.quad	.LC0
	.quad	0
	.quad	0
	.quad	0
	.quad	.Lubsan_data219
	.quad	16
	.quad	64
	.quad	.LC128
	.quad	.LC0
	.quad	0
	.quad	0
	.quad	0
	.quad	.Lubsan_data218
	.quad	32
	.quad	64
	.quad	.LC129
	.quad	.LC0
	.quad	0
	.quad	0
	.quad	0
	.quad	.Lubsan_data217
	.quad	16
	.quad	64
	.quad	.LC130
	.quad	.LC0
	.quad	0
	.quad	0
	.quad	0
	.quad	.Lubsan_data216
	.quad	32
	.quad	64
	.quad	.LC131
	.quad	.LC0
	.quad	0
	.quad	0
	.quad	0
	.quad	.Lubsan_data215
	.quad	32
	.quad	64
	.quad	.LC132
	.quad	.LC0
	.quad	0
	.quad	0
	.quad	0
	.quad	.Lubsan_data214
	.quad	32
	.quad	64
	.quad	.LC133
	.quad	.LC0
	.quad	0
	.quad	0
	.quad	0
	.quad	.Lubsan_data213
	.quad	16
	.quad	64
	.quad	.LC134
	.quad	.LC0
	.quad	0
	.quad	0
	.quad	0
	.quad	.Lubsan_data212
	.quad	32
	.quad	64
	.quad	.LC135
	.quad	.LC0
	.quad	0
	.quad	0
	.quad	0
	.quad	.Lubsan_data211
	.quad	16
	.quad	64
	.quad	.LC136
	.quad	.LC0
	.quad	0
	.quad	0
	.quad	0
	.quad	.Lubsan_data210
	.quad	32
	.quad	64
	.quad	.LC137
	.quad	.LC0
	.quad	0
	.quad	0
	.quad	0
	.quad	.Lubsan_data209
	.quad	32
	.quad	64
	.quad	.LC138
	.quad	.LC0
	.quad	0
	.quad	0
	.quad	0
	.quad	.Lubsan_data208
	.quad	32
	.quad	64
	.quad	.LC139
	.quad	.LC0
	.quad	0
	.quad	0
	.quad	0
	.quad	.Lubsan_data207
	.quad	16
	.quad	64
	.quad	.LC140
	.quad	.LC0
	.quad	0
	.quad	0
	.quad	0
	.quad	.Lubsan_data206
	.quad	32
	.quad	64
	.quad	.LC141
	.quad	.LC0
	.quad	0
	.quad	0
	.quad	0
	.quad	.Lubsan_data205
	.quad	32
	.quad	64
	.quad	.LC142
	.quad	.LC0
	.quad	0
	.quad	0
	.quad	0
	.quad	.Lubsan_data204
	.quad	16
	.quad	64
	.quad	.LC143
	.quad	.LC0
	.quad	0
	.quad	0
	.quad	0
	.quad	.Lubsan_data203
	.quad	32
	.quad	64
	.quad	.LC144
	.quad	.LC0
	.quad	0
	.quad	0
	.quad	0
	.quad	.Lubsan_data202
	.quad	16
	.quad	64
	.quad	.LC145
	.quad	.LC0
	.quad	0
	.quad	0
	.quad	0
	.quad	.Lubsan_data201
	.quad	32
	.quad	64
	.quad	.LC146
	.quad	.LC0
	.quad	0
	.quad	0
	.quad	0
	.quad	.Lubsan_data200
	.quad	32
	.quad	64
	.quad	.LC147
	.quad	.LC0
	.quad	0
	.quad	0
	.quad	0
	.quad	.Lubsan_data199
	.quad	32
	.quad	64
	.quad	.LC148
	.quad	.LC0
	.quad	0
	.quad	0
	.quad	0
	.quad	.Lubsan_data198
	.quad	16
	.quad	64
	.quad	.LC149
	.quad	.LC0
	.quad	0
	.quad	0
	.quad	0
	.quad	.Lubsan_data197
	.quad	32
	.quad	64
	.quad	.LC150
	.quad	.LC0
	.quad	0
	.quad	0
	.quad	0
	.quad	.Lubsan_data196
	.quad	32
	.quad	64
	.quad	.LC151
	.quad	.LC0
	.quad	0
	.quad	0
	.quad	0
	.quad	.Lubsan_data195
	.quad	16
	.quad	64
	.quad	.LC152
	.quad	.LC0
	.quad	0
	.quad	0
	.quad	0
	.quad	.Lubsan_data194
	.quad	32
	.quad	64
	.quad	.LC153
	.quad	.LC0
	.quad	0
	.quad	0
	.quad	0
	.quad	.Lubsan_data193
	.quad	16
	.quad	64
	.quad	.LC154
	.quad	.LC0
	.quad	0
	.quad	0
	.quad	0
	.quad	.Lubsan_data192
	.quad	32
	.quad	64
	.quad	.LC155
	.quad	.LC0
	.quad	0
	.quad	0
	.quad	0
	.quad	.Lubsan_data191
	.quad	32
	.quad	64
	.quad	.LC156
	.quad	.LC0
	.quad	0
	.quad	0
	.quad	0
	.quad	.Lubsan_data190
	.quad	32
	.quad	64
	.quad	.LC157
	.quad	.LC0
	.quad	0
	.quad	0
	.quad	0
	.quad	.Lubsan_data189
	.quad	16
	.quad	64
	.quad	.LC158
	.quad	.LC0
	.quad	0
	.quad	0
	.quad	0
	.quad	.Lubsan_data188
	.quad	32
	.quad	64
	.quad	.LC159
	.quad	.LC0
	.quad	0
	.quad	0
	.quad	0
	.quad	.Lubsan_data187
	.quad	32
	.quad	64
	.quad	.LC160
	.quad	.LC0
	.quad	0
	.quad	0
	.quad	0
	.quad	.Lubsan_data186
	.quad	16
	.quad	64
	.quad	.LC161
	.quad	.LC0
	.quad	0
	.quad	0
	.quad	0
	.quad	.Lubsan_data185
	.quad	32
	.quad	64
	.quad	.LC162
	.quad	.LC0
	.quad	0
	.quad	0
	.quad	0
	.quad	.Lubsan_data184
	.quad	16
	.quad	64
	.quad	.LC163
	.quad	.LC0
	.quad	0
	.quad	0
	.quad	0
	.quad	.Lubsan_data183
	.quad	32
	.quad	64
	.quad	.LC164
	.quad	.LC0
	.quad	0
	.quad	0
	.quad	0
	.quad	.Lubsan_data182
	.quad	32
	.quad	64
	.quad	.LC165
	.quad	.LC0
	.quad	0
	.quad	0
	.quad	0
	.quad	.Lubsan_data181
	.quad	32
	.quad	64
	.quad	.LC166
	.quad	.LC0
	.quad	0
	.quad	0
	.quad	0
	.quad	.Lubsan_type4
	.quad	31
	.quad	64
	.quad	.LC167
	.quad	.LC0
	.quad	0
	.quad	0
	.quad	0
	.quad	.Lubsan_data180
	.quad	16
	.quad	64
	.quad	.LC168
	.quad	.LC0
	.quad	0
	.quad	0
	.quad	0
	.quad	.Lubsan_data179
	.quad	32
	.quad	64
	.quad	.LC169
	.quad	.LC0
	.quad	0
	.quad	0
	.quad	0
	.quad	.Lubsan_type3
	.quad	33
	.quad	96
	.quad	.LC170
	.quad	.LC0
	.quad	0
	.quad	0
	.quad	0
	.quad	.Lubsan_data178
	.quad	16
	.quad	64
	.quad	.LC171
	.quad	.LC0
	.quad	0
	.quad	0
	.quad	0
	.quad	.Lubsan_data177
	.quad	32
	.quad	64
	.quad	.LC172
	.quad	.LC0
	.quad	0
	.quad	0
	.quad	0
	.quad	.Lubsan_data176
	.quad	32
	.quad	64
	.quad	.LC173
	.quad	.LC0
	.quad	0
	.quad	0
	.quad	0
	.quad	.Lubsan_data175
	.quad	16
	.quad	64
	.quad	.LC174
	.quad	.LC0
	.quad	0
	.quad	0
	.quad	0
	.quad	.Lubsan_data174
	.quad	32
	.quad	64
	.quad	.LC175
	.quad	.LC0
	.quad	0
	.quad	0
	.quad	0
	.quad	.Lubsan_type2
	.quad	23
	.quad	64
	.quad	.LC176
	.quad	.LC0
	.quad	0
	.quad	0
	.quad	0
	.quad	.Lubsan_data173
	.quad	32
	.quad	64
	.quad	.LC177
	.quad	.LC0
	.quad	0
	.quad	0
	.quad	0
	.quad	.Lubsan_data172
	.quad	32
	.quad	64
	.quad	.LC178
	.quad	.LC0
	.quad	0
	.quad	0
	.quad	0
	.quad	.Lubsan_type1
	.quad	23
	.quad	64
	.quad	.LC179
	.quad	.LC0
	.quad	0
	.quad	0
	.quad	0
	.quad	.Lubsan_data171
	.quad	40
	.quad	96
	.quad	.LC180
	.quad	.LC0
	.quad	0
	.quad	0
	.quad	0
	.quad	.Lubsan_data170
	.quad	40
	.quad	96
	.quad	.LC181
	.quad	.LC0
	.quad	0
	.quad	0
	.quad	0
	.quad	.Lubsan_data169
	.quad	40
	.quad	96
	.quad	.LC182
	.quad	.LC0
	.quad	0
	.quad	0
	.quad	0
	.quad	.Lubsan_data168
	.quad	40
	.quad	96
	.quad	.LC183
	.quad	.LC0
	.quad	0
	.quad	0
	.quad	0
	.quad	.Lubsan_data167
	.quad	40
	.quad	96
	.quad	.LC184
	.quad	.LC0
	.quad	0
	.quad	0
	.quad	0
	.quad	.Lubsan_data164
	.quad	40
	.quad	96
	.quad	.LC185
	.quad	.LC0
	.quad	0
	.quad	0
	.quad	0
	.quad	.Lubsan_data163
	.quad	40
	.quad	96
	.quad	.LC186
	.quad	.LC0
	.quad	0
	.quad	0
	.quad	0
	.quad	.Lubsan_data161
	.quad	40
	.quad	96
	.quad	.LC187
	.quad	.LC0
	.quad	0
	.quad	0
	.quad	0
	.quad	.Lubsan_data160
	.quad	40
	.quad	96
	.quad	.LC188
	.quad	.LC0
	.quad	0
	.quad	0
	.quad	0
	.quad	.Lubsan_data159
	.quad	40
	.quad	96
	.quad	.LC189
	.quad	.LC0
	.quad	0
	.quad	0
	.quad	0
	.quad	.Lubsan_data158
	.quad	40
	.quad	96
	.quad	.LC190
	.quad	.LC0
	.quad	0
	.quad	0
	.quad	0
	.quad	.Lubsan_data157
	.quad	40
	.quad	96
	.quad	.LC191
	.quad	.LC0
	.quad	0
	.quad	0
	.quad	0
	.quad	.Lubsan_data155
	.quad	40
	.quad	96
	.quad	.LC192
	.quad	.LC0
	.quad	0
	.quad	0
	.quad	0
	.quad	.Lubsan_data154
	.quad	40
	.quad	96
	.quad	.LC193
	.quad	.LC0
	.quad	0
	.quad	0
	.quad	0
	.quad	.Lubsan_data153
	.quad	40
	.quad	96
	.quad	.LC194
	.quad	.LC0
	.quad	0
	.quad	0
	.quad	0
	.quad	.Lubsan_data152
	.quad	40
	.quad	96
	.quad	.LC195
	.quad	.LC0
	.quad	0
	.quad	0
	.quad	0
	.quad	.Lubsan_data151
	.quad	40
	.quad	96
	.quad	.LC196
	.quad	.LC0
	.quad	0
	.quad	0
	.quad	0
	.quad	.Lubsan_data150
	.quad	40
	.quad	96
	.quad	.LC197
	.quad	.LC0
	.quad	0
	.quad	0
	.quad	0
	.quad	.Lubsan_data148
	.quad	40
	.quad	96
	.quad	.LC198
	.quad	.LC0
	.quad	0
	.quad	0
	.quad	0
	.quad	.Lubsan_data147
	.quad	40
	.quad	96
	.quad	.LC199
	.quad	.LC0
	.quad	0
	.quad	0
	.quad	0
	.quad	.Lubsan_data145
	.quad	40
	.quad	96
	.quad	.LC200
	.quad	.LC0
	.quad	0
	.quad	0
	.quad	0
	.quad	.Lubsan_data144
	.quad	40
	.quad	96
	.quad	.LC201
	.quad	.LC0
	.quad	0
	.quad	0
	.quad	0
	.quad	.Lubsan_data143
	.quad	40
	.quad	96
	.quad	.LC202
	.quad	.LC0
	.quad	0
	.quad	0
	.quad	0
	.quad	.Lubsan_data142
	.quad	40
	.quad	96
	.quad	.LC203
	.quad	.LC0
	.quad	0
	.quad	0
	.quad	0
	.quad	.Lubsan_data141
	.quad	40
	.quad	96
	.quad	.LC204
	.quad	.LC0
	.quad	0
	.quad	0
	.quad	0
	.quad	.Lubsan_data139
	.quad	40
	.quad	96
	.quad	.LC205
	.quad	.LC0
	.quad	0
	.quad	0
	.quad	0
	.quad	.Lubsan_data138
	.quad	40
	.quad	96
	.quad	.LC206
	.quad	.LC0
	.quad	0
	.quad	0
	.quad	0
	.quad	.Lubsan_data137
	.quad	40
	.quad	96
	.quad	.LC207
	.quad	.LC0
	.quad	0
	.quad	0
	.quad	0
	.quad	.Lubsan_data136
	.quad	40
	.quad	96
	.quad	.LC208
	.quad	.LC0
	.quad	0
	.quad	0
	.quad	0
	.quad	.Lubsan_data135
	.quad	40
	.quad	96
	.quad	.LC209
	.quad	.LC0
	.quad	0
	.quad	0
	.quad	0
	.quad	.Lubsan_data134
	.quad	40
	.quad	96
	.quad	.LC210
	.quad	.LC0
	.quad	0
	.quad	0
	.quad	0
	.quad	.Lubsan_data132
	.quad	40
	.quad	96
	.quad	.LC211
	.quad	.LC0
	.quad	0
	.quad	0
	.quad	0
	.quad	.Lubsan_data130
	.quad	40
	.quad	96
	.quad	.LC212
	.quad	.LC0
	.quad	0
	.quad	0
	.quad	0
	.quad	.Lubsan_data128
	.quad	40
	.quad	96
	.quad	.LC213
	.quad	.LC0
	.quad	0
	.quad	0
	.quad	0
	.quad	.Lubsan_data126
	.quad	40
	.quad	96
	.quad	.LC214
	.quad	.LC0
	.quad	0
	.quad	0
	.quad	0
	.quad	.Lubsan_data124
	.quad	40
	.quad	96
	.quad	.LC215
	.quad	.LC0
	.quad	0
	.quad	0
	.quad	0
	.quad	.Lubsan_data122
	.quad	40
	.quad	96
	.quad	.LC216
	.quad	.LC0
	.quad	0
	.quad	0
	.quad	0
	.quad	.Lubsan_data120
	.quad	40
	.quad	96
	.quad	.LC217
	.quad	.LC0
	.quad	0
	.quad	0
	.quad	0
	.quad	.Lubsan_data118
	.quad	40
	.quad	96
	.quad	.LC218
	.quad	.LC0
	.quad	0
	.quad	0
	.quad	0
	.quad	.Lubsan_data116
	.quad	40
	.quad	96
	.quad	.LC219
	.quad	.LC0
	.quad	0
	.quad	0
	.quad	0
	.quad	.Lubsan_data114
	.quad	40
	.quad	96
	.quad	.LC220
	.quad	.LC0
	.quad	0
	.quad	0
	.quad	0
	.quad	.Lubsan_data112
	.quad	40
	.quad	96
	.quad	.LC221
	.quad	.LC0
	.quad	0
	.quad	0
	.quad	0
	.quad	.Lubsan_data110
	.quad	40
	.quad	96
	.quad	.LC222
	.quad	.LC0
	.quad	0
	.quad	0
	.quad	0
	.quad	.Lubsan_data108
	.quad	40
	.quad	96
	.quad	.LC223
	.quad	.LC0
	.quad	0
	.quad	0
	.quad	0
	.quad	.Lubsan_data106
	.quad	40
	.quad	96
	.quad	.LC224
	.quad	.LC0
	.quad	0
	.quad	0
	.quad	0
	.quad	.Lubsan_data104
	.quad	40
	.quad	96
	.quad	.LC225
	.quad	.LC0
	.quad	0
	.quad	0
	.quad	0
	.quad	.Lubsan_data102
	.quad	40
	.quad	96
	.quad	.LC226
	.quad	.LC0
	.quad	0
	.quad	0
	.quad	0
	.quad	.Lubsan_data100
	.quad	40
	.quad	96
	.quad	.LC227
	.quad	.LC0
	.quad	0
	.quad	0
	.quad	0
	.quad	.Lubsan_data98
	.quad	40
	.quad	96
	.quad	.LC228
	.quad	.LC0
	.quad	0
	.quad	0
	.quad	0
	.quad	.Lubsan_data96
	.quad	40
	.quad	96
	.quad	.LC229
	.quad	.LC0
	.quad	0
	.quad	0
	.quad	0
	.quad	.Lubsan_data94
	.quad	40
	.quad	96
	.quad	.LC230
	.quad	.LC0
	.quad	0
	.quad	0
	.quad	0
	.quad	.Lubsan_data92
	.quad	40
	.quad	96
	.quad	.LC231
	.quad	.LC0
	.quad	0
	.quad	0
	.quad	0
	.quad	.Lubsan_data90
	.quad	40
	.quad	96
	.quad	.LC232
	.quad	.LC0
	.quad	0
	.quad	0
	.quad	0
	.quad	.Lubsan_data89
	.quad	40
	.quad	96
	.quad	.LC233
	.quad	.LC0
	.quad	0
	.quad	0
	.quad	0
	.quad	.Lubsan_data88
	.quad	40
	.quad	96
	.quad	.LC234
	.quad	.LC0
	.quad	0
	.quad	0
	.quad	0
	.quad	.Lubsan_data87
	.quad	40
	.quad	96
	.quad	.LC235
	.quad	.LC0
	.quad	0
	.quad	0
	.quad	0
	.quad	.Lubsan_data86
	.quad	40
	.quad	96
	.quad	.LC236
	.quad	.LC0
	.quad	0
	.quad	0
	.quad	0
	.quad	.Lubsan_data85
	.quad	40
	.quad	96
	.quad	.LC237
	.quad	.LC0
	.quad	0
	.quad	0
	.quad	0
	.quad	.Lubsan_data83
	.quad	40
	.quad	96
	.quad	.LC238
	.quad	.LC0
	.quad	0
	.quad	0
	.quad	0
	.quad	.Lubsan_data82
	.quad	40
	.quad	96
	.quad	.LC239
	.quad	.LC0
	.quad	0
	.quad	0
	.quad	0
	.quad	.Lubsan_data80
	.quad	40
	.quad	96
	.quad	.LC240
	.quad	.LC0
	.quad	0
	.quad	0
	.quad	0
	.quad	.Lubsan_data79
	.quad	40
	.quad	96
	.quad	.LC241
	.quad	.LC0
	.quad	0
	.quad	0
	.quad	0
	.quad	.Lubsan_data78
	.quad	40
	.quad	96
	.quad	.LC242
	.quad	.LC0
	.quad	0
	.quad	0
	.quad	0
	.quad	.Lubsan_data77
	.quad	40
	.quad	96
	.quad	.LC243
	.quad	.LC0
	.quad	0
	.quad	0
	.quad	0
	.quad	.Lubsan_data76
	.quad	40
	.quad	96
	.quad	.LC244
	.quad	.LC0
	.quad	0
	.quad	0
	.quad	0
	.quad	.Lubsan_data75
	.quad	40
	.quad	96
	.quad	.LC245
	.quad	.LC0
	.quad	0
	.quad	0
	.quad	0
	.quad	.Lubsan_data74
	.quad	40
	.quad	96
	.quad	.LC246
	.quad	.LC0
	.quad	0
	.quad	0
	.quad	0
	.quad	.Lubsan_data73
	.quad	40
	.quad	96
	.quad	.LC247
	.quad	.LC0
	.quad	0
	.quad	0
	.quad	0
	.quad	.Lubsan_data72
	.quad	40
	.quad	96
	.quad	.LC248
	.quad	.LC0
	.quad	0
	.quad	0
	.quad	0
	.quad	.Lubsan_data71
	.quad	40
	.quad	96
	.quad	.LC249
	.quad	.LC0
	.quad	0
	.quad	0
	.quad	0
	.quad	.Lubsan_data70
	.quad	40
	.quad	96
	.quad	.LC250
	.quad	.LC0
	.quad	0
	.quad	0
	.quad	0
	.quad	.Lubsan_data69
	.quad	40
	.quad	96
	.quad	.LC251
	.quad	.LC0
	.quad	0
	.quad	0
	.quad	0
	.quad	.Lubsan_data68
	.quad	40
	.quad	96
	.quad	.LC252
	.quad	.LC0
	.quad	0
	.quad	0
	.quad	0
	.quad	.Lubsan_data66
	.quad	40
	.quad	96
	.quad	.LC253
	.quad	.LC0
	.quad	0
	.quad	0
	.quad	0
	.quad	.Lubsan_data65
	.quad	40
	.quad	96
	.quad	.LC254
	.quad	.LC0
	.quad	0
	.quad	0
	.quad	0
	.quad	.Lubsan_data64
	.quad	40
	.quad	96
	.quad	.LC255
	.quad	.LC0
	.quad	0
	.quad	0
	.quad	0
	.quad	.Lubsan_data63
	.quad	40
	.quad	96
	.quad	.LC256
	.quad	.LC0
	.quad	0
	.quad	0
	.quad	0
	.quad	.Lubsan_data62
	.quad	40
	.quad	96
	.quad	.LC257
	.quad	.LC0
	.quad	0
	.quad	0
	.quad	0
	.quad	.Lubsan_data61
	.quad	40
	.quad	96
	.quad	.LC258
	.quad	.LC0
	.quad	0
	.quad	0
	.quad	0
	.quad	.Lubsan_data60
	.quad	40
	.quad	96
	.quad	.LC259
	.quad	.LC0
	.quad	0
	.quad	0
	.quad	0
	.quad	.Lubsan_data59
	.quad	40
	.quad	96
	.quad	.LC260
	.quad	.LC0
	.quad	0
	.quad	0
	.quad	0
	.quad	.Lubsan_data58
	.quad	40
	.quad	96
	.quad	.LC261
	.quad	.LC0
	.quad	0
	.quad	0
	.quad	0
	.quad	.Lubsan_data57
	.quad	40
	.quad	96
	.quad	.LC262
	.quad	.LC0
	.quad	0
	.quad	0
	.quad	0
	.quad	.Lubsan_data56
	.quad	40
	.quad	96
	.quad	.LC263
	.quad	.LC0
	.quad	0
	.quad	0
	.quad	0
	.quad	.Lubsan_data55
	.quad	40
	.quad	96
	.quad	.LC264
	.quad	.LC0
	.quad	0
	.quad	0
	.quad	0
	.quad	.Lubsan_data53
	.quad	40
	.quad	96
	.quad	.LC265
	.quad	.LC0
	.quad	0
	.quad	0
	.quad	0
	.quad	.Lubsan_data52
	.quad	40
	.quad	96
	.quad	.LC266
	.quad	.LC0
	.quad	0
	.quad	0
	.quad	0
	.quad	.Lubsan_data51
	.quad	40
	.quad	96
	.quad	.LC267
	.quad	.LC0
	.quad	0
	.quad	0
	.quad	0
	.quad	.Lubsan_data50
	.quad	40
	.quad	96
	.quad	.LC268
	.quad	.LC0
	.quad	0
	.quad	0
	.quad	0
	.quad	.Lubsan_data49
	.quad	40
	.quad	96
	.quad	.LC269
	.quad	.LC0
	.quad	0
	.quad	0
	.quad	0
	.quad	.Lubsan_data48
	.quad	40
	.quad	96
	.quad	.LC270
	.quad	.LC0
	.quad	0
	.quad	0
	.quad	0
	.quad	.Lubsan_data46
	.quad	40
	.quad	96
	.quad	.LC271
	.quad	.LC0
	.quad	0
	.quad	0
	.quad	0
	.quad	.Lubsan_data45
	.quad	40
	.quad	96
	.quad	.LC272
	.quad	.LC0
	.quad	0
	.quad	0
	.quad	0
	.quad	.Lubsan_data44
	.quad	40
	.quad	96
	.quad	.LC273
	.quad	.LC0
	.quad	0
	.quad	0
	.quad	0
	.quad	.Lubsan_data43
	.quad	40
	.quad	96
	.quad	.LC274
	.quad	.LC0
	.quad	0
	.quad	0
	.quad	0
	.quad	.Lubsan_data42
	.quad	40
	.quad	96
	.quad	.LC275
	.quad	.LC0
	.quad	0
	.quad	0
	.quad	0
	.quad	.Lubsan_data41
	.quad	40
	.quad	96
	.quad	.LC276
	.quad	.LC0
	.quad	0
	.quad	0
	.quad	0
	.quad	.Lubsan_data39
	.quad	40
	.quad	96
	.quad	.LC277
	.quad	.LC0
	.quad	0
	.quad	0
	.quad	0
	.quad	.Lubsan_data38
	.quad	40
	.quad	96
	.quad	.LC278
	.quad	.LC0
	.quad	0
	.quad	0
	.quad	0
	.quad	.Lubsan_data37
	.quad	40
	.quad	96
	.quad	.LC279
	.quad	.LC0
	.quad	0
	.quad	0
	.quad	0
	.quad	.Lubsan_data36
	.quad	40
	.quad	96
	.quad	.LC280
	.quad	.LC0
	.quad	0
	.quad	0
	.quad	0
	.quad	.Lubsan_data35
	.quad	40
	.quad	96
	.quad	.LC281
	.quad	.LC0
	.quad	0
	.quad	0
	.quad	0
	.quad	.Lubsan_data33
	.quad	40
	.quad	96
	.quad	.LC282
	.quad	.LC0
	.quad	0
	.quad	0
	.quad	0
	.quad	.Lubsan_data32
	.quad	40
	.quad	96
	.quad	.LC283
	.quad	.LC0
	.quad	0
	.quad	0
	.quad	0
	.quad	.Lubsan_data31
	.quad	40
	.quad	96
	.quad	.LC284
	.quad	.LC0
	.quad	0
	.quad	0
	.quad	0
	.quad	.Lubsan_data30
	.quad	40
	.quad	96
	.quad	.LC285
	.quad	.LC0
	.quad	0
	.quad	0
	.quad	0
	.quad	.Lubsan_data29
	.quad	40
	.quad	96
	.quad	.LC286
	.quad	.LC0
	.quad	0
	.quad	0
	.quad	0
	.quad	.Lubsan_data27
	.quad	40
	.quad	96
	.quad	.LC287
	.quad	.LC0
	.quad	0
	.quad	0
	.quad	0
	.quad	.Lubsan_data26
	.quad	40
	.quad	96
	.quad	.LC288
	.quad	.LC0
	.quad	0
	.quad	0
	.quad	0
	.quad	.Lubsan_data25
	.quad	40
	.quad	96
	.quad	.LC289
	.quad	.LC0
	.quad	0
	.quad	0
	.quad	0
	.quad	.Lubsan_data24
	.quad	40
	.quad	96
	.quad	.LC290
	.quad	.LC0
	.quad	0
	.quad	0
	.quad	0
	.quad	.Lubsan_data23
	.quad	40
	.quad	96
	.quad	.LC291
	.quad	.LC0
	.quad	0
	.quad	0
	.quad	0
	.quad	.Lubsan_data21
	.quad	40
	.quad	96
	.quad	.LC292
	.quad	.LC0
	.quad	0
	.quad	0
	.quad	0
	.quad	.Lubsan_data20
	.quad	40
	.quad	96
	.quad	.LC293
	.quad	.LC0
	.quad	0
	.quad	0
	.quad	0
	.quad	.Lubsan_data19
	.quad	40
	.quad	96
	.quad	.LC294
	.quad	.LC0
	.quad	0
	.quad	0
	.quad	0
	.quad	.Lubsan_data18
	.quad	40
	.quad	96
	.quad	.LC295
	.quad	.LC0
	.quad	0
	.quad	0
	.quad	0
	.quad	.Lubsan_data17
	.quad	40
	.quad	96
	.quad	.LC296
	.quad	.LC0
	.quad	0
	.quad	0
	.quad	0
	.quad	.Lubsan_data15
	.quad	40
	.quad	96
	.quad	.LC297
	.quad	.LC0
	.quad	0
	.quad	0
	.quad	0
	.quad	.Lubsan_data14
	.quad	40
	.quad	96
	.quad	.LC298
	.quad	.LC0
	.quad	0
	.quad	0
	.quad	0
	.quad	.Lubsan_data13
	.quad	40
	.quad	96
	.quad	.LC299
	.quad	.LC0
	.quad	0
	.quad	0
	.quad	0
	.quad	.Lubsan_data12
	.quad	40
	.quad	96
	.quad	.LC300
	.quad	.LC0
	.quad	0
	.quad	0
	.quad	0
	.quad	.Lubsan_data11
	.quad	40
	.quad	96
	.quad	.LC301
	.quad	.LC0
	.quad	0
	.quad	0
	.quad	0
	.quad	__func__.0
	.quad	13
	.quad	64
	.quad	.LC302
	.quad	.LC0
	.quad	0
	.quad	.LASANLOC1
	.quad	0
	.quad	__func__.1
	.quad	22
	.quad	64
	.quad	.LC302
	.quad	.LC0
	.quad	0
	.quad	.LASANLOC2
	.quad	0
	.quad	__func__.2
	.quad	12
	.quad	64
	.quad	.LC302
	.quad	.LC0
	.quad	0
	.quad	.LASANLOC3
	.quad	0
	.quad	g_comp_args
	.quad	8
	.quad	64
	.quad	.LC303
	.quad	.LC0
	.quad	0
	.quad	.LASANLOC4
	.quad	0
	.quad	g_diagnostics
	.quad	8
	.quad	64
	.quad	.LC304
	.quad	.LC0
	.quad	0
	.quad	.LASANLOC5
	.quad	0
	.quad	.LC27
	.quad	69
	.quad	128
	.quad	.LC305
	.quad	.LC0
	.quad	0
	.quad	0
	.quad	0
	.quad	.LC30
	.quad	87
	.quad	128
	.quad	.LC306
	.quad	.LC0
	.quad	0
	.quad	0
	.quad	0
	.quad	.LC37
	.quad	68
	.quad	128
	.quad	.LC307
	.quad	.LC0
	.quad	0
	.quad	0
	.quad	0
	.quad	.LC35
	.quad	75
	.quad	128
	.quad	.LC308
	.quad	.LC0
	.quad	0
	.quad	0
	.quad	0
	.quad	.LC43
	.quad	61
	.quad	96
	.quad	.LC309
	.quad	.LC0
	.quad	0
	.quad	0
	.quad	0
	.quad	.LC20
	.quad	73
	.quad	128
	.quad	.LC310
	.quad	.LC0
	.quad	0
	.quad	0
	.quad	0
	.quad	.LC24
	.quad	68
	.quad	128
	.quad	.LC311
	.quad	.LC0
	.quad	0
	.quad	0
	.quad	0
	.quad	.LC14
	.quad	4
	.quad	64
	.quad	.LC312
	.quad	.LC0
	.quad	0
	.quad	0
	.quad	0
	.quad	.LC10
	.quad	35
	.quad	96
	.quad	.LC313
	.quad	.LC0
	.quad	0
	.quad	0
	.quad	0
	.quad	.LC29
	.quad	68
	.quad	128
	.quad	.LC314
	.quad	.LC0
	.quad	0
	.quad	0
	.quad	0
	.quad	.LC6
	.quad	79
	.quad	128
	.quad	.LC315
	.quad	.LC0
	.quad	0
	.quad	0
	.quad	0
	.quad	.LC28
	.quad	85
	.quad	128
	.quad	.LC316
	.quad	.LC0
	.quad	0
	.quad	0
	.quad	0
	.quad	.LC42
	.quad	61
	.quad	96
	.quad	.LC317
	.quad	.LC0
	.quad	0
	.quad	0
	.quad	0
	.quad	.LC34
	.quad	92
	.quad	128
	.quad	.LC318
	.quad	.LC0
	.quad	0
	.quad	0
	.quad	0
	.quad	.LC38
	.quad	88
	.quad	128
	.quad	.LC319
	.quad	.LC0
	.quad	0
	.quad	0
	.quad	0
	.quad	.LC33
	.quad	72
	.quad	128
	.quad	.LC320
	.quad	.LC0
	.quad	0
	.quad	0
	.quad	0
	.quad	.LC18
	.quad	67
	.quad	128
	.quad	.LC321
	.quad	.LC0
	.quad	0
	.quad	0
	.quad	0
	.quad	.LC15
	.quad	3
	.quad	64
	.quad	.LC322
	.quad	.LC0
	.quad	0
	.quad	0
	.quad	0
	.quad	.LC2
	.quad	77
	.quad	128
	.quad	.LC323
	.quad	.LC0
	.quad	0
	.quad	0
	.quad	0
	.quad	.LC22
	.quad	73
	.quad	128
	.quad	.LC324
	.quad	.LC0
	.quad	0
	.quad	0
	.quad	0
	.quad	.LC40
	.quad	66
	.quad	128
	.quad	.LC325
	.quad	.LC0
	.quad	0
	.quad	0
	.quad	0
	.quad	.LC36
	.quad	85
	.quad	128
	.quad	.LC326
	.quad	.LC0
	.quad	0
	.quad	0
	.quad	0
	.quad	.LC21
	.quad	74
	.quad	128
	.quad	.LC327
	.quad	.LC0
	.quad	0
	.quad	0
	.quad	0
	.quad	.LC39
	.quad	71
	.quad	128
	.quad	.LC328
	.quad	.LC0
	.quad	0
	.quad	0
	.quad	0
	.quad	.LC13
	.quad	43
	.quad	96
	.quad	.LC329
	.quad	.LC0
	.quad	0
	.quad	0
	.quad	0
	.quad	.LC11
	.quad	10
	.quad	64
	.quad	.LC330
	.quad	.LC0
	.quad	0
	.quad	0
	.quad	0
	.quad	.LC1
	.quad	67
	.quad	128
	.quad	.LC331
	.quad	.LC0
	.quad	0
	.quad	0
	.quad	0
	.quad	.LC9
	.quad	43
	.quad	96
	.quad	.LC332
	.quad	.LC0
	.quad	0
	.quad	0
	.quad	0
	.quad	.LC12
	.quad	77
	.quad	128
	.quad	.LC333
	.quad	.LC0
	.quad	0
	.quad	0
	.quad	0
	.quad	.LC7
	.quad	72
	.quad	128
	.quad	.LC334
	.quad	.LC0
	.quad	0
	.quad	0
	.quad	0
	.quad	.LC16
	.quad	68
	.quad	128
	.quad	.LC335
	.quad	.LC0
	.quad	0
	.quad	0
	.quad	0
	.quad	.LC0
	.quad	12
	.quad	64
	.quad	.LC336
	.quad	.LC0
	.quad	0
	.quad	0
	.quad	0
	.quad	.LC17
	.quad	106
	.quad	160
	.quad	.LC337
	.quad	.LC0
	.quad	0
	.quad	0
	.quad	0
	.quad	.LC45
	.quad	56
	.quad	96
	.quad	.LC338
	.quad	.LC0
	.quad	0
	.quad	0
	.quad	0
	.quad	.LC4
	.quad	73
	.quad	128
	.quad	.LC339
	.quad	.LC0
	.quad	0
	.quad	0
	.quad	0
	.quad	.LC44
	.quad	63
	.quad	96
	.quad	.LC340
	.quad	.LC0
	.quad	0
	.quad	0
	.quad	0
	.quad	.LC25
	.quad	67
	.quad	128
	.quad	.LC341
	.quad	.LC0
	.quad	0
	.quad	0
	.quad	0
	.quad	.LC41
	.quad	70
	.quad	128
	.quad	.LC342
	.quad	.LC0
	.quad	0
	.quad	0
	.quad	0
	.quad	.LC19
	.quad	77
	.quad	128
	.quad	.LC343
	.quad	.LC0
	.quad	0
	.quad	0
	.quad	0
	.quad	.LC3
	.quad	78
	.quad	128
	.quad	.LC344
	.quad	.LC0
	.quad	0
	.quad	0
	.quad	0
	.quad	.LC8
	.quad	74
	.quad	128
	.quad	.LC345
	.quad	.LC0
	.quad	0
	.quad	0
	.quad	0
	.quad	.LC5
	.quad	66
	.quad	128
	.quad	.LC346
	.quad	.LC0
	.quad	0
	.quad	0
	.quad	0
	.quad	.LC23
	.quad	74
	.quad	128
	.quad	.LC347
	.quad	.LC0
	.quad	0
	.quad	0
	.quad	0
	.quad	.LC32
	.quad	89
	.quad	128
	.quad	.LC348
	.quad	.LC0
	.quad	0
	.quad	0
	.quad	0
	.quad	.LC26
	.quad	86
	.quad	128
	.quad	.LC349
	.quad	.LC0
	.quad	0
	.quad	0
	.quad	0
	.quad	.LC31
	.quad	70
	.quad	128
	.quad	.LC350
	.quad	.LC0
	.quad	0
	.quad	0
	.quad	0
	.text
	.type	_sub_D_00099_0, @function
_sub_D_00099_0:
.LFB74:
	.cfi_startproc
	.loc 1 501 1 is_stmt 1 view .LVU1384
	endbr64
	pushq	%rbp
	.cfi_def_cfa_offset 16
	.cfi_offset 6, -16
	movq	%rsp, %rbp
	.cfi_def_cfa_register 6
	movl	$307, %esi
	leaq	.LASAN0(%rip), %rdi
	call	__asan_unregister_globals@PLT
	popq	%rbp
	.cfi_def_cfa 7, 8
	ret
	.cfi_endproc
.LFE74:
	.size	_sub_D_00099_0, .-_sub_D_00099_0
	.section	.fini_array.00099,"aw"
	.align 8
	.quad	_sub_D_00099_0
	.text
	.type	_sub_I_00099_1, @function
_sub_I_00099_1:
.LFB75:
	.cfi_startproc
	.loc 1 501 1 view .LVU1385
	endbr64
	pushq	%rbp
	.cfi_def_cfa_offset 16
	.cfi_offset 6, -16
	movq	%rsp, %rbp
	.cfi_def_cfa_register 6
	call	__asan_init@PLT
	call	__asan_version_mismatch_check_v8@PLT
	movl	$307, %esi
	leaq	.LASAN0(%rip), %rdi
	call	__asan_register_globals@PLT
	popq	%rbp
	.cfi_def_cfa 7, 8
	ret
	.cfi_endproc
.LFE75:
	.size	_sub_I_00099_1, .-_sub_I_00099_1
	.section	.init_array.00099,"aw"
	.align 8
	.quad	_sub_I_00099_1
	.text
.Letext0:
	.file 3 "/usr/lib/gcc/x86_64-pc-linux-gnu/13/include/stddef.h"
	.file 4 "/usr/include/bits/types.h"
	.file 5 "/usr/include/bits/stdint-intn.h"
	.file 6 "include/array.h"
	.file 7 "/usr/include/bits/stdint-uintn.h"
	.file 8 "/usr/include/stdint.h"
	.file 9 "/usr/include/bits/types/struct_FILE.h"
	.file 10 "/usr/include/bits/types/FILE.h"
	.file 11 "/usr/include/stdio.h"
	.file 12 "include/io.h"
	.file 13 "include/lexer.h"
	.file 14 "include/diagnostics.h"
	.file 15 "include/generic.h"
	.file 16 "include/stdio-ext.h"
	.file 17 "/usr/include/bits/stdio2-decl.h"
	.file 18 "/usr/include/ctype.h"
	.file 19 "<built-in>"
	.section	.note.GNU-stack,"",@progbits
	.section	.note.gnu.property,"a"
	.align 8
	.long	1f - 0f
	.long	4f - 1f
	.long	5
0:
	.string	"GNU"
1:
	.align 8
	.long	0xc0000002
	.long	3f - 2f
2:
	.long	0x3
3:
	.align 8
4:
