	.file	"tokenizer.c"
	.text
.Ltext0:
	.file 0 "/home/unazed/Programming/c/ucc-0.2.0" "src/tokenizer.c"
	.section	.rodata
	.align 32
.LC0:
	.string	"src/tokenizer.c"
	.zero	48
	.align 32
.LC1:
	.string	"\033[1;37m%s:%u\033[0m: \033[1;34mverbose: \033[0mfreeing tokenizer: %p\n"
	.zero	35
	.text
	.globl	tkn_free
	.type	tkn_free, @function
tkn_free:
.LASANPC53:
.LVL0:
.LFB53:
	.file 1 "src/tokenizer.c"
	.loc 1 18 1 view -0
	.cfi_startproc
	.loc 1 18 1 is_stmt 0 view .LVU1
	endbr64
	pushq	%rbp
	.cfi_def_cfa_offset 16
	.cfi_offset 6, -16
	movq	%rsp, %rbp
	.cfi_def_cfa_register 6
	pushq	%r13
	pushq	%r12
	pushq	%rbx
	subq	$8, %rsp
	.cfi_offset 13, -24
	.cfi_offset 12, -32
	.cfi_offset 3, -40
1:	call	*mcount@GOTPCREL(%rip)
	movq	%rdi, %rbx
	.loc 1 19 3 is_stmt 1 view .LVU2
	.loc 1 19 134 is_stmt 0 view .LVU3
	movl	%edi, %r13d
	.loc 1 19 3 view .LVU4
	leaq	stdout(%rip), %rdi
.LVL1:
	.loc 1 19 3 view .LVU5
	movq	%rdi, %rax
	shrq	$3, %rax
	cmpb	$0, 2147450880(%rax)
	jne	.L4
	movq	stdout(%rip), %r12
	testq	%r12, %r12
	je	.L5
.L3:
.LVL2:
.LBB6:
.LBI6:
	.file 2 "/usr/include/bits/stdio2.h"
	.loc 2 77 1 is_stmt 1 view .LVU6
.LBB7:
	.loc 2 79 3 view .LVU7
	.loc 2 79 10 is_stmt 0 view .LVU8
	movq	%r13, %r9
	movl	$19, %r8d
	leaq	.LC0(%rip), %rcx
	leaq	.LC1(%rip), %rdx
	movl	$2, %esi
	movq	%r12, %rdi
	movl	$0, %eax
	call	__fprintf_chk@PLT
.LVL3:
	.loc 2 79 10 view .LVU9
.LBE7:
.LBE6:
	.loc 1 20 3 is_stmt 1 view .LVU10
	movq	%rbx, %rsi
	leaq	__func__.1(%rip), %rdi
	call	__chk_free_impl@PLT
.LVL4:
	.loc 1 21 1 is_stmt 0 view .LVU11
	addq	$8, %rsp
	popq	%rbx
.LVL5:
	.loc 1 21 1 view .LVU12
	popq	%r12
	popq	%r13
	popq	%rbp
	.cfi_remember_state
	.cfi_def_cfa 7, 8
	ret
.LVL6:
.L4:
	.cfi_restore_state
	.loc 1 19 3 view .LVU13
	call	__asan_report_load8@PLT
.LVL7:
.L5:
	leaq	.Lubsan_data11(%rip), %rdi
	call	__ubsan_handle_nonnull_arg@PLT
.LVL8:
	jmp	.L3
	.cfi_endproc
.LFE53:
	.size	tkn_free, .-tkn_free
	.globl	tkn_process
	.type	tkn_process, @function
tkn_process:
.LASANPC55:
.LVL9:
.LFB55:
	.loc 1 31 1 is_stmt 1 view -0
	.cfi_startproc
	.loc 1 31 1 is_stmt 0 view .LVU15
	endbr64
	pushq	%rbp
	.cfi_def_cfa_offset 16
	.cfi_offset 6, -16
	movq	%rsp, %rbp
	.cfi_def_cfa_register 6
	pushq	%r13
	pushq	%r12
	pushq	%rbx
	subq	$8, %rsp
	.cfi_offset 13, -24
	.cfi_offset 12, -32
	.cfi_offset 3, -40
1:	call	*mcount@GOTPCREL(%rip)
	movq	%rdi, %rbx
	.loc 1 32 3 is_stmt 1 view .LVU16
	.loc 1 32 20 discriminator 1 view .LVU17
.LBB8:
	.loc 1 32 25 discriminator 1 view .LVU18
.LVL10:
	.loc 1 32 32 is_stmt 0 discriminator 1 view .LVU19
	movl	$0, %r13d
	.loc 1 32 20 view .LVU20
	jmp	.L7
.LVL11:
.L25:
	.loc 1 33 5 is_stmt 1 view .LVU21
	.loc 1 32 143 discriminator 4 view .LVU22
	addq	$1, %r13
.LVL12:
.L7:
	.loc 1 32 85 discriminator 1 view .LVU23
	.loc 1 32 61 is_stmt 0 discriminator 1 view .LVU24
	testq	%rbx, %rbx
	je	.L8
	testb	$7, %bl
	jne	.L8
.L9:
	movq	%rbx, %rax
	shrq	$3, %rax
	cmpb	$0, 2147450880(%rax)
	jne	.L26
	movq	(%rbx), %r12
	.loc 1 32 43 discriminator 1 view .LVU25
	testq	%r12, %r12
	je	.L11
	testb	$7, %r12b
	jne	.L11
.L12:
	leaq	8(%r12), %rdx
	cmpq	$-8, %r12
	jnb	.L27
.L13:
	leaq	8(%r12), %rdi
	movq	%rdi, %rax
	shrq	$3, %rax
	cmpb	$0, 2147450880(%rax)
	jne	.L28
	movq	8(%r12), %r12
	testq	%r12, %r12
	je	.L29
.L15:
	movq	%r12, %rdi
	call	array_length@PLT
.LVL13:
	.loc 1 32 85 discriminator 1 view .LVU26
	cmpq	%rax, %r13
	jnb	.L6
	.loc 1 32 114 discriminator 3 view .LVU27
	testq	%rbx, %rbx
	je	.L17
	testb	$7, %bl
	jne	.L17
.L18:
	movq	%rbx, %rax
	shrq	$3, %rax
	cmpb	$0, 2147450880(%rax)
	jne	.L30
	movq	(%rbx), %r12
	.loc 1 32 99 discriminator 3 view .LVU28
	testq	%r12, %r12
	je	.L20
	testb	$7, %r12b
	jne	.L20
.L21:
	leaq	8(%r12), %rdx
	cmpq	$-8, %r12
	jnb	.L31
.L22:
	leaq	8(%r12), %rdi
	movq	%rdi, %rax
	shrq	$3, %rax
	cmpb	$0, 2147450880(%rax)
	jne	.L32
	movq	8(%r12), %r12
	testq	%r12, %r12
	je	.L33
.L24:
	movq	%r13, %rsi
	movq	%r12, %rdi
	call	array_get@PLT
.LVL14:
	.loc 1 32 85 discriminator 1 view .LVU29
	testq	%rax, %rax
	jne	.L25
.LVL15:
.L6:
	.loc 1 32 85 discriminator 1 view .LVU30
.LBE8:
	.loc 1 34 1 view .LVU31
	addq	$8, %rsp
	popq	%rbx
.LVL16:
	.loc 1 34 1 view .LVU32
	popq	%r12
	popq	%r13
.LVL17:
	.loc 1 34 1 view .LVU33
	popq	%rbp
	.cfi_remember_state
	.cfi_def_cfa 7, 8
	ret
.LVL18:
.L8:
	.cfi_restore_state
.LBB9:
	.loc 1 32 61 discriminator 1 view .LVU34
	movq	%rbx, %rsi
	leaq	.Lubsan_data17(%rip), %rdi
	call	__ubsan_handle_type_mismatch_v1@PLT
.LVL19:
	jmp	.L9
.L26:
	.loc 1 32 61 discriminator 1 view .LVU35
	movq	%rbx, %rdi
	call	__asan_report_load8@PLT
.LVL20:
.L11:
	.loc 1 32 43 discriminator 1 view .LVU36
	movq	%r12, %rsi
	leaq	.Lubsan_data18(%rip), %rdi
	call	__ubsan_handle_type_mismatch_v1@PLT
.LVL21:
	jmp	.L12
.L27:
	movq	%r12, %rsi
	leaq	.Lubsan_data19(%rip), %rdi
	call	__ubsan_handle_pointer_overflow@PLT
.LVL22:
	jmp	.L13
.L28:
	call	__asan_report_load8@PLT
.LVL23:
.L29:
	leaq	.Lubsan_data13(%rip), %rdi
	call	__ubsan_handle_nonnull_arg@PLT
.LVL24:
	jmp	.L15
.L17:
	.loc 1 32 114 discriminator 3 view .LVU37
	movq	%rbx, %rsi
	leaq	.Lubsan_data20(%rip), %rdi
	call	__ubsan_handle_type_mismatch_v1@PLT
.LVL25:
	jmp	.L18
.L30:
	.loc 1 32 114 discriminator 3 view .LVU38
	movq	%rbx, %rdi
	call	__asan_report_load8@PLT
.LVL26:
.L20:
	.loc 1 32 99 discriminator 3 view .LVU39
	movq	%r12, %rsi
	leaq	.Lubsan_data21(%rip), %rdi
	call	__ubsan_handle_type_mismatch_v1@PLT
.LVL27:
	jmp	.L21
.L31:
	movq	%r12, %rsi
	leaq	.Lubsan_data22(%rip), %rdi
	call	__ubsan_handle_pointer_overflow@PLT
.LVL28:
	jmp	.L22
.L32:
	call	__asan_report_load8@PLT
.LVL29:
.L33:
	leaq	.Lubsan_data14(%rip), %rdi
	call	__ubsan_handle_nonnull_arg@PLT
.LVL30:
	jmp	.L24
.LBE9:
	.cfi_endproc
.LFE55:
	.size	tkn_process, .-tkn_process
	.section	.rodata
	.align 32
.LC2:
	.string	"\033[1;37m%s:%u\033[0m: \033[1;34mverbose: \033[0mcreated tokeniser: %p\n"
	.zero	35
	.text
	.globl	tkn_new
	.type	tkn_new, @function
tkn_new:
.LASANPC56:
.LVL31:
.LFB56:
	.loc 1 38 1 is_stmt 1 view -0
	.cfi_startproc
	.loc 1 38 1 is_stmt 0 view .LVU41
	endbr64
	pushq	%rbp
	.cfi_def_cfa_offset 16
	.cfi_offset 6, -16
	movq	%rsp, %rbp
	.cfi_def_cfa_register 6
	pushq	%r13
	pushq	%r12
	pushq	%rbx
	subq	$8, %rsp
	.cfi_offset 13, -24
	.cfi_offset 12, -32
	.cfi_offset 3, -40
1:	call	*mcount@GOTPCREL(%rip)
	movq	%rdi, %r12
	.loc 1 39 3 is_stmt 1 view .LVU42
	.loc 1 39 21 is_stmt 0 view .LVU43
	movl	$16, %edx
	movl	$1, %esi
	leaq	__func__.0(%rip), %rdi
.LVL32:
	.loc 1 39 21 view .LVU44
	call	__chk_calloc_impl@PLT
.LVL33:
	movq	%rax, %rbx
.LVL34:
	.loc 1 40 3 is_stmt 1 view .LVU45
	.loc 1 40 20 is_stmt 0 view .LVU46
	testq	%rax, %rax
	je	.L35
	testb	$7, %al
	jne	.L35
.LVL35:
.L36:
	.loc 1 40 20 view .LVU47
	movq	%rbx, %rax
	shrq	$3, %rax
	cmpb	$0, 2147450880(%rax)
	jne	.L40
	movq	%r12, (%rbx)
	.loc 1 41 3 is_stmt 1 view .LVU48
	.loc 1 41 139 is_stmt 0 view .LVU49
	movl	%ebx, %r13d
	.loc 1 41 3 view .LVU50
	leaq	stdout(%rip), %rdi
	movq	%rdi, %rax
	shrq	$3, %rax
	cmpb	$0, 2147450880(%rax)
	jne	.L41
	.loc 1 41 3 view .LVU51
	movq	stdout(%rip), %r12
.LVL36:
	.loc 1 41 3 view .LVU52
	testq	%r12, %r12
	je	.L42
.LVL37:
.L39:
.LBB10:
.LBI10:
	.loc 2 77 1 is_stmt 1 view .LVU53
.LBB11:
	.loc 2 79 3 view .LVU54
	.loc 2 79 10 is_stmt 0 view .LVU55
	movq	%r13, %r9
	movl	$41, %r8d
	leaq	.LC0(%rip), %rcx
	leaq	.LC2(%rip), %rdx
	movl	$2, %esi
	movq	%r12, %rdi
	movl	$0, %eax
	call	__fprintf_chk@PLT
.LVL38:
	.loc 2 79 10 view .LVU56
.LBE11:
.LBE10:
	.loc 1 42 3 is_stmt 1 view .LVU57
	.loc 1 43 1 is_stmt 0 view .LVU58
	movq	%rbx, %rax
	addq	$8, %rsp
	popq	%rbx
.LVL39:
	.loc 1 43 1 view .LVU59
	popq	%r12
	popq	%r13
	popq	%rbp
	.cfi_remember_state
	.cfi_def_cfa 7, 8
	ret
.LVL40:
.L35:
	.cfi_restore_state
	.loc 1 40 20 view .LVU60
	movq	%rbx, %rsi
	leaq	.Lubsan_data23(%rip), %rdi
	call	__ubsan_handle_type_mismatch_v1@PLT
.LVL41:
	.loc 1 40 20 view .LVU61
	jmp	.L36
.L40:
	.loc 1 40 20 view .LVU62
	movq	%rbx, %rdi
	call	__asan_report_store8@PLT
.LVL42:
.L41:
	.loc 1 41 3 view .LVU63
	call	__asan_report_load8@PLT
.LVL43:
.L42:
	.loc 1 41 3 view .LVU64
	leaq	.Lubsan_data15(%rip), %rdi
	call	__ubsan_handle_nonnull_arg@PLT
.LVL44:
	.loc 1 41 3 view .LVU65
	jmp	.L39
	.cfi_endproc
.LFE56:
	.size	tkn_new, .-tkn_new
	.section	.data.rel.local,"aw"
	.align 32
	.type	.Lubsan_data23, @object
	.size	.Lubsan_data23, 32
.Lubsan_data23:
	.quad	.LC0
	.long	40
	.long	20
	.quad	.Lubsan_type1
	.byte	3
	.byte	3
	.zero	6
	.zero	32
	.align 32
	.type	.Lubsan_data22, @object
	.size	.Lubsan_data22, 16
.Lubsan_data22:
	.quad	.LC0
	.long	32
	.long	99
	.zero	48
	.align 32
	.type	.Lubsan_data21, @object
	.size	.Lubsan_data21, 32
.Lubsan_data21:
	.quad	.LC0
	.long	32
	.long	99
	.quad	.Lubsan_type2
	.byte	3
	.byte	3
	.zero	6
	.zero	32
	.align 32
	.type	.Lubsan_data20, @object
	.size	.Lubsan_data20, 32
.Lubsan_data20:
	.quad	.LC0
	.long	32
	.long	114
	.quad	.Lubsan_type1
	.byte	3
	.byte	3
	.zero	6
	.zero	32
	.align 32
	.type	.Lubsan_data19, @object
	.size	.Lubsan_data19, 16
.Lubsan_data19:
	.quad	.LC0
	.long	32
	.long	43
	.zero	48
	.align 32
	.type	.Lubsan_data18, @object
	.size	.Lubsan_data18, 32
.Lubsan_data18:
	.quad	.LC0
	.long	32
	.long	43
	.quad	.Lubsan_type2
	.byte	3
	.byte	3
	.zero	6
	.zero	32
	.data
	.align 32
	.type	.Lubsan_type2, @object
	.size	.Lubsan_type2, 24
.Lubsan_type2:
	.value	-1
	.value	0
	.string	"'struct lexer_impl'"
	.zero	40
	.section	.data.rel.local
	.align 32
	.type	.Lubsan_data17, @object
	.size	.Lubsan_data17, 32
.Lubsan_data17:
	.quad	.LC0
	.long	32
	.long	61
	.quad	.Lubsan_type1
	.byte	3
	.byte	3
	.zero	6
	.zero	32
	.data
	.align 32
	.type	.Lubsan_type1, @object
	.size	.Lubsan_type1, 22
.Lubsan_type1:
	.value	-1
	.value	0
	.string	"'struct tkn_impl'"
	.zero	42
	.section	.data.rel.local
	.align 32
	.type	.Lubsan_data15, @object
	.size	.Lubsan_data15, 40
.Lubsan_data15:
	.quad	.LC0
	.long	41
	.long	3
	.quad	0
	.long	0
	.long	0
	.long	1
	.zero	4
	.zero	56
	.align 32
	.type	.Lubsan_data14, @object
	.size	.Lubsan_data14, 40
.Lubsan_data14:
	.quad	.LC0
	.long	32
	.long	99
	.quad	0
	.long	0
	.long	0
	.long	1
	.zero	4
	.zero	56
	.align 32
	.type	.Lubsan_data13, @object
	.size	.Lubsan_data13, 40
.Lubsan_data13:
	.quad	.LC0
	.long	32
	.long	43
	.quad	0
	.long	0
	.long	0
	.long	1
	.zero	4
	.zero	56
	.align 32
	.type	.Lubsan_data11, @object
	.size	.Lubsan_data11, 40
.Lubsan_data11:
	.quad	.LC0
	.long	19
	.long	3
	.quad	0
	.long	0
	.long	0
	.long	1
	.zero	4
	.zero	56
	.section	.rodata
	.align 32
	.type	__func__.0, @object
	.size	__func__.0, 8
__func__.0:
	.string	"tkn_new"
	.zero	56
	.align 32
	.type	__func__.1, @object
	.size	__func__.1, 9
__func__.1:
	.string	"tkn_free"
	.zero	55
	.section	.data.rel.local
	.align 16
	.type	.LASANLOC1, @object
	.size	.LASANLOC1, 16
.LASANLOC1:
	.quad	.LC0
	.long	39
	.long	40
	.align 16
	.type	.LASANLOC2, @object
	.size	.LASANLOC2, 16
.LASANLOC2:
	.quad	.LC0
	.long	20
	.long	20
	.section	.rodata.str1.1,"aMS",@progbits,1
.LC3:
	.string	"*.Lubsan_data23"
.LC4:
	.string	"*.Lubsan_data22"
.LC5:
	.string	"*.Lubsan_data21"
.LC6:
	.string	"*.Lubsan_data20"
.LC7:
	.string	"*.Lubsan_data19"
.LC8:
	.string	"*.Lubsan_data18"
.LC9:
	.string	"*.Lubsan_type2"
.LC10:
	.string	"*.Lubsan_data17"
.LC11:
	.string	"*.Lubsan_type1"
.LC12:
	.string	"*.Lubsan_data15"
.LC13:
	.string	"*.Lubsan_data14"
.LC14:
	.string	"*.Lubsan_data13"
.LC15:
	.string	"*.Lubsan_data11"
.LC16:
	.string	"__func__"
.LC17:
	.string	"*.LC1"
.LC18:
	.string	"*.LC2"
.LC19:
	.string	"*.LC0"
	.section	.data.rel.local
	.align 32
	.type	.LASAN0, @object
	.size	.LASAN0, 1152
.LASAN0:
	.quad	.Lubsan_data23
	.quad	32
	.quad	64
	.quad	.LC3
	.quad	.LC0
	.quad	0
	.quad	0
	.quad	0
	.quad	.Lubsan_data22
	.quad	16
	.quad	64
	.quad	.LC4
	.quad	.LC0
	.quad	0
	.quad	0
	.quad	0
	.quad	.Lubsan_data21
	.quad	32
	.quad	64
	.quad	.LC5
	.quad	.LC0
	.quad	0
	.quad	0
	.quad	0
	.quad	.Lubsan_data20
	.quad	32
	.quad	64
	.quad	.LC6
	.quad	.LC0
	.quad	0
	.quad	0
	.quad	0
	.quad	.Lubsan_data19
	.quad	16
	.quad	64
	.quad	.LC7
	.quad	.LC0
	.quad	0
	.quad	0
	.quad	0
	.quad	.Lubsan_data18
	.quad	32
	.quad	64
	.quad	.LC8
	.quad	.LC0
	.quad	0
	.quad	0
	.quad	0
	.quad	.Lubsan_type2
	.quad	24
	.quad	64
	.quad	.LC9
	.quad	.LC0
	.quad	0
	.quad	0
	.quad	0
	.quad	.Lubsan_data17
	.quad	32
	.quad	64
	.quad	.LC10
	.quad	.LC0
	.quad	0
	.quad	0
	.quad	0
	.quad	.Lubsan_type1
	.quad	22
	.quad	64
	.quad	.LC11
	.quad	.LC0
	.quad	0
	.quad	0
	.quad	0
	.quad	.Lubsan_data15
	.quad	40
	.quad	96
	.quad	.LC12
	.quad	.LC0
	.quad	0
	.quad	0
	.quad	0
	.quad	.Lubsan_data14
	.quad	40
	.quad	96
	.quad	.LC13
	.quad	.LC0
	.quad	0
	.quad	0
	.quad	0
	.quad	.Lubsan_data13
	.quad	40
	.quad	96
	.quad	.LC14
	.quad	.LC0
	.quad	0
	.quad	0
	.quad	0
	.quad	.Lubsan_data11
	.quad	40
	.quad	96
	.quad	.LC15
	.quad	.LC0
	.quad	0
	.quad	0
	.quad	0
	.quad	__func__.0
	.quad	8
	.quad	64
	.quad	.LC16
	.quad	.LC0
	.quad	0
	.quad	.LASANLOC1
	.quad	0
	.quad	__func__.1
	.quad	9
	.quad	64
	.quad	.LC16
	.quad	.LC0
	.quad	0
	.quad	.LASANLOC2
	.quad	0
	.quad	.LC1
	.quad	61
	.quad	96
	.quad	.LC17
	.quad	.LC0
	.quad	0
	.quad	0
	.quad	0
	.quad	.LC2
	.quad	61
	.quad	96
	.quad	.LC18
	.quad	.LC0
	.quad	0
	.quad	0
	.quad	0
	.quad	.LC0
	.quad	16
	.quad	64
	.quad	.LC19
	.quad	.LC0
	.quad	0
	.quad	0
	.quad	0
	.text
	.type	_sub_D_00099_0, @function
_sub_D_00099_0:
.LFB57:
	.cfi_startproc
	.loc 1 43 1 is_stmt 1 view .LVU66
	endbr64
	pushq	%rbp
	.cfi_def_cfa_offset 16
	.cfi_offset 6, -16
	movq	%rsp, %rbp
	.cfi_def_cfa_register 6
	movl	$18, %esi
	leaq	.LASAN0(%rip), %rdi
	call	__asan_unregister_globals@PLT
	popq	%rbp
	.cfi_def_cfa 7, 8
	ret
	.cfi_endproc
.LFE57:
	.size	_sub_D_00099_0, .-_sub_D_00099_0
	.section	.fini_array.00099,"aw"
	.align 8
	.quad	_sub_D_00099_0
	.text
	.type	_sub_I_00099_1, @function
_sub_I_00099_1:
.LFB58:
	.cfi_startproc
	.loc 1 43 1 view .LVU67
	endbr64
	pushq	%rbp
	.cfi_def_cfa_offset 16
	.cfi_offset 6, -16
	movq	%rsp, %rbp
	.cfi_def_cfa_register 6
	call	__asan_init@PLT
	call	__asan_version_mismatch_check_v8@PLT
	movl	$18, %esi
	leaq	.LASAN0(%rip), %rdi
	call	__asan_register_globals@PLT
	popq	%rbp
	.cfi_def_cfa 7, 8
	ret
	.cfi_endproc
.LFE58:
	.size	_sub_I_00099_1, .-_sub_I_00099_1
	.section	.init_array.00099,"aw"
	.align 8
	.quad	_sub_I_00099_1
	.text
.Letext0:
	.file 3 "/usr/include/bits/types.h"
	.file 4 "/usr/include/stdint.h"
	.file 5 "/usr/lib/gcc/x86_64-pc-linux-gnu/13/include/stddef.h"
	.file 6 "/usr/include/bits/types/struct_FILE.h"
	.file 7 "/usr/include/bits/types/FILE.h"
	.file 8 "include/array.h"
	.file 9 "include/lexer.h"
	.file 10 "include/tokenizer.h"
	.file 11 "include/generic.h"
	.file 12 "/usr/include/bits/stdio2-decl.h"
	.file 13 "/usr/include/stdio.h"
	.file 14 "<built-in>"
	.section	.note.GNU-stack,"",@progbits
	.section	.note.gnu.property,"a"
	.align 8
	.long	1f - 0f
	.long	4f - 1f
	.long	5
0:
	.string	"GNU"
1:
	.align 8
	.long	0xc0000002
	.long	3f - 2f
2:
	.long	0x3
3:
	.align 8
4:
